EXPORTS 
	?$TSS0@?1???$GetPerDeviceAttributeCache@UPtxVersionCacheTag@CUB_200500_890_NS@cub@@@CUB_200500_890_NS@cub@@YAAEAUPerDeviceAttributeCache@12@XZ@4HA 	 DATA
	?$TSS0@?1???$get@UNVTXCCCLDomain@detail@CUB_200500_890_NS@cub@@$0A@@domain@v1@nvtx3@@SAAEBV123@XZ@4HA 	 DATA
	?$TSS0@?1??DeviceCountCachedValue@CUB_200500_890_NS@cub@@YAHXZ@4HA 	 DATA
	?$TSS0@?2???$Sum@PEBMPEAM_J@DeviceReduce@CUB_200500_890_NS@cub@@SA?AW4cudaError@@PEAXAEA_KPEBMPEAM_JPEAUCUstream_st@@@Z@4HA 	 DATA
	?$TSS1@?2???$Sum@PEBMPEAM_J@DeviceReduce@CUB_200500_890_NS@cub@@SA?AW4cudaError@@PEAXAEA_KPEBMPEAM_JPEAUCUstream_st@@@Z@4HA 	 DATA
	??_R0?AUggml_cuda_pool@@@8 	 DATA
	??_R0?AUggml_cuda_pool_leg@@@8 	 DATA
	??_R0?AUggml_cuda_pool_vmm@@@8 	 DATA
	??_R0?AVbad_alloc@std@@@8 	 DATA
	??_R0?AVbad_array_new_length@std@@@8 	 DATA
	??_R0?AVexception@std@@@8 	 DATA
	?_OptionsStorage@?1??__local_stdio_printf_options@@9@4_KA 	 DATA
	?__cub_nvtx3_func_attr@?2???$Sum@PEBMPEAM_J@DeviceReduce@CUB_200500_890_NS@cub@@SA?AW4cudaError@@PEAXAEA_KPEBMPEAM_JPEAUCUstream_st@@@Z@4Vevent_attributes@v1@nvtx3@@B 	 DATA
	?__cub_nvtx3_func_name@?2???$Sum@PEBMPEAM_J@DeviceReduce@CUB_200500_890_NS@cub@@SA?AW4cudaError@@PEAXAEA_KPEBMPEAM_JPEAUCUstream_st@@@Z@4V?$registered_string_in@UNVTXCCCLDomain@detail@CUB_200500_890_NS@cub@@@v1@nvtx3@@B 	 DATA
	?cache@?1???$GetPerDeviceAttributeCache@UPtxVersionCacheTag@CUB_200500_890_NS@cub@@@CUB_200500_890_NS@cub@@YAAEAUPerDeviceAttributeCache@12@XZ@4U312@A 	 DATA
	?cache@?1??DeviceCountCachedValue@CUB_200500_890_NS@cub@@YAHXZ@4U?$ValueCache@H$1?DeviceCountUncached@CUB_200500_890_NS@cub@@YAHXZ@23@A 	 DATA
	?d@?1???$get@UNVTXCCCLDomain@detail@CUB_200500_890_NS@cub@@$0A@@domain@v1@nvtx3@@SAAEBV123@XZ@4V123@B 	 DATA
	__isa_available_default 	 DATA
	nvtxGlobals_v3 	 DATA
	??$?0$$V@?$_Compressed_pair@U?$default_delete@Uggml_cuda_graph@@@std@@PEAUggml_cuda_graph@@$00@std@@QEAA@U_Zero_then_variadic_args_t@1@@Z
	??$?0$$V@?$_Compressed_pair@U?$default_delete@Uggml_cuda_pool@@@std@@PEAUggml_cuda_pool@@$00@std@@QEAA@U_Zero_then_variadic_args_t@1@@Z
	??$?0$$V@?$_Compressed_pair@V?$allocator@D@std@@V?$_String_val@U?$_Simple_types@D@std@@@2@$00@std@@QEAA@U_Zero_then_variadic_args_t@1@@Z
	??$?0$$V@?$_Compressed_pair@V?$allocator@PEAPEAD@std@@V?$_Vector_val@U?$_Simple_types@PEAPEAD@std@@@2@$00@std@@QEAA@U_Zero_then_variadic_args_t@1@@Z
	??$?0$$V@?$_Compressed_pair@V?$allocator@PEAUCUgraphNode_st@@@std@@V?$_Vector_val@U?$_Simple_types@PEAUCUgraphNode_st@@@std@@@2@$00@std@@QEAA@U_Zero_then_variadic_args_t@1@@Z
	??$?0$$V@?$_Compressed_pair@V?$allocator@PEAUggml_backend_device@@@std@@V?$_Vector_val@U?$_Simple_types@PEAUggml_backend_device@@@std@@@2@$00@std@@QEAA@U_Zero_then_variadic_args_t@1@@Z
	??$?0$$V@?$_Compressed_pair@V?$allocator@PEAUggml_tensor_extra_gpu@@@std@@V?$_Vector_val@U?$_Simple_types@PEAUggml_tensor_extra_gpu@@@std@@@2@$00@std@@QEAA@U_Zero_then_variadic_args_t@1@@Z
	??$?0$$V@?$_Compressed_pair@V?$allocator@PEAX@std@@V?$_Vector_val@U?$_Simple_types@PEAX@std@@@2@$00@std@@QEAA@U_Zero_then_variadic_args_t@1@@Z
	??$?0$$V@?$_Compressed_pair@V?$allocator@U?$_Tree_node@U?$pair@$$CBU?$pair@HV?$array@M$0BA@@std@@@std@@Uggml_backend_buffer_type@@@std@@PEAX@std@@@std@@V?$_Tree_val@U?$_Tree_simple_types@U?$pair@$$CBU?$pair@HV?$array@M$0BA@@std@@@std@@Uggml_backend_buffer_type@@@std@@@std@@@2@$00@std@@QEAA@U_Zero_then_variadic_args_t@1@@Z
	??$?0$$V@?$_Compressed_pair@V?$allocator@UcudaKernelNodeParams@@@std@@V?$_Vector_val@U?$_Simple_types@UcudaKernelNodeParams@@@std@@@2@$00@std@@QEAA@U_Zero_then_variadic_args_t@1@@Z
	??$?0$$V@?$_Compressed_pair@V?$allocator@Uggml_backend_feature@@@std@@V?$_Vector_val@U?$_Simple_types@Uggml_backend_feature@@@std@@@2@$00@std@@QEAA@U_Zero_then_variadic_args_t@1@@Z
	??$?0$$V@?$_Compressed_pair@V?$allocator@Uggml_graph_node_properties@@@std@@V?$_Vector_val@U?$_Simple_types@Uggml_graph_node_properties@@@std@@@2@$00@std@@QEAA@U_Zero_then_variadic_args_t@1@@Z
	??$?0$$V@event_attributes@v1@nvtx3@@QEAA@AEBVmessage@12@@Z
	??$?0AEAHAEAV?$array@M$0BA@@std@@$0A@@?$pair@HV?$array@M$0BA@@std@@@std@@QEAA@AEAHAEAV?$array@M$0BA@@1@@Z
	??$?0AEAPEAU?$_Tree_node@U?$pair@$$CBU?$pair@HV?$array@M$0BA@@std@@@std@@Uggml_backend_buffer_type@@@std@@PEAX@std@@_N$0A@@?$pair@PEAU?$_Tree_node@U?$pair@$$CBU?$pair@HV?$array@M$0BA@@std@@@std@@Uggml_backend_buffer_type@@@std@@PEAX@std@@_N@std@@QEAA@AEAPEAU?$_Tree_node@U?$pair@$$CBU?$pair@HV?$array@M$0BA@@std@@@std@@Uggml_backend_buffer_type@@@std@@PEAX@1@$$QEA_N@Z
	??$?0AEAPEAUggml_cuda_pool@@@?$_Compressed_pair@U?$default_delete@Uggml_cuda_pool@@@std@@PEAUggml_cuda_pool@@$00@std@@QEAA@U_Zero_then_variadic_args_t@1@AEAPEAUggml_cuda_pool@@@Z
	??$?0AEBU?$less@U?$pair@HV?$array@M$0BA@@std@@@std@@@std@@U_Zero_then_variadic_args_t@1@@?$_Compressed_pair@U?$less@U?$pair@HV?$array@M$0BA@@std@@@std@@@std@@V?$_Compressed_pair@V?$allocator@U?$_Tree_node@U?$pair@$$CBU?$pair@HV?$array@M$0BA@@std@@@std@@Uggml_backend_buffer_type@@@std@@PEAX@std@@@std@@V?$_Tree_val@U?$_Tree_simple_types@U?$pair@$$CBU?$pair@HV?$array@M$0BA@@std@@@std@@Uggml_backend_buffer_type@@@std@@@std@@@2@$00@2@$00@std@@QEAA@U_One_then_variadic_args_t@1@AEBU?$less@U?$pair@HV?$array@M$0BA@@std@@@std@@@1@$$QEAU_Zero_then_variadic_args_t@1@@Z
	??$?0AEBV?$allocator@D@std@@$$V@?$_Compressed_pair@V?$allocator@D@std@@V?$_String_val@U?$_Simple_types@D@std@@@2@$00@std@@QEAA@U_One_then_variadic_args_t@1@AEBV?$allocator@D@1@@Z
	??$?0AEBV?$allocator@D@std@@$$V@?$_Compressed_pair@V?$allocator@D@std@@V?$_Vector_val@U?$_Simple_types@D@std@@@2@$00@std@@QEAA@U_One_then_variadic_args_t@1@AEBV?$allocator@D@1@@Z
	??$?0PEAD$0A@@?$basic_string@DU?$char_traits@D@std@@V?$allocator@D@2@@std@@QEAA@PEAD0AEBV?$allocator@D@1@@Z
	??$?0PEAU?$_Tree_node@U?$pair@$$CBU?$pair@HV?$array@M$0BA@@std@@@std@@Uggml_backend_buffer_type@@@std@@PEAX@std@@_N$0A@@?$pair@PEAU?$_Tree_node@U?$pair@$$CBU?$pair@HV?$array@M$0BA@@std@@@std@@Uggml_backend_buffer_type@@@std@@PEAX@std@@_N@std@@QEAA@$$QEAPEAU?$_Tree_node@U?$pair@$$CBU?$pair@HV?$array@M$0BA@@std@@@std@@Uggml_backend_buffer_type@@@std@@PEAX@1@$$QEA_N@Z
	??$?0U?$default_delete@Uggml_cuda_graph@@@std@@$0A@@?$unique_ptr@Uggml_cuda_graph@@U?$default_delete@Uggml_cuda_graph@@@std@@@std@@QEAA@XZ
	??$?0U?$default_delete@Uggml_cuda_pool@@@std@@$0A@@?$unique_ptr@Uggml_cuda_pool@@U?$default_delete@Uggml_cuda_pool@@@std@@@std@@QEAA@$$QEAV01@@Z
	??$?0U?$default_delete@Uggml_cuda_pool@@@std@@$0A@@?$unique_ptr@Uggml_cuda_pool@@U?$default_delete@Uggml_cuda_pool@@@std@@@std@@QEAA@PEAUggml_cuda_pool@@@Z
	??$?0U?$default_delete@Uggml_cuda_pool@@@std@@$0A@@?$unique_ptr@Uggml_cuda_pool@@U?$default_delete@Uggml_cuda_pool@@@std@@@std@@QEAA@XZ
	??$?0U?$default_delete@Uggml_cuda_pool@@@std@@PEAUggml_cuda_pool@@@?$_Compressed_pair@U?$default_delete@Uggml_cuda_pool@@@std@@PEAUggml_cuda_pool@@$00@std@@QEAA@U_One_then_variadic_args_t@1@$$QEAU?$default_delete@Uggml_cuda_pool@@@1@$$QEAPEAUggml_cuda_pool@@@Z
	??$?0U?$pair@HV?$array@M$0BA@@std@@@std@@AEAUggml_backend_buffer_type@@$0A@@?$pair@$$CBU?$pair@HV?$array@M$0BA@@std@@@std@@Uggml_backend_buffer_type@@@std@@QEAA@$$QEAU?$pair@HV?$array@M$0BA@@std@@@1@AEAUggml_backend_buffer_type@@@Z
	??$?0U?$pair@HV?$array@M$0BA@@std@@@std@@AEAUggml_backend_buffer_type@@@?$_Tree_temp_node@V?$allocator@U?$_Tree_node@U?$pair@$$CBU?$pair@HV?$array@M$0BA@@std@@@std@@Uggml_backend_buffer_type@@@std@@PEAX@std@@@std@@@std@@QEAA@AEAV?$allocator@U?$_Tree_node@U?$pair@$$CBU?$pair@HV?$array@M$0BA@@std@@@std@@Uggml_backend_buffer_type@@@std@@PEAX@std@@@1@PEAU?$_Tree_node@U?$pair@$$CBU?$pair@HV?$array@M$0BA@@std@@@std@@Uggml_backend_buffer_type@@@std@@PEAX@1@$$QEAU?$pair@HV?$array@M$0BA@@std@@@1@AEAUggml_backend_buffer_type@@@Z
	??$?0UNVTXCCCLDomain@detail@CUB_200500_890_NS@cub@@@message@v1@nvtx3@@QEAA@AEBV?$registered_string_in@UNVTXCCCLDomain@detail@CUB_200500_890_NS@cub@@@12@@Z
	??$?0V?$_Tree_iterator@V?$_Tree_val@U?$_Tree_simple_types@U?$pair@$$CBU?$pair@HV?$array@M$0BA@@std@@@std@@Uggml_backend_buffer_type@@@std@@@std@@@std@@@std@@AEB_N$0A@@?$pair@V?$_Tree_iterator@V?$_Tree_val@U?$_Tree_simple_types@U?$pair@$$CBU?$pair@HV?$array@M$0BA@@std@@@std@@Uggml_backend_buffer_type@@@std@@@std@@@std@@@std@@_N@std@@QEAA@$$QEAV?$_Tree_iterator@V?$_Tree_val@U?$_Tree_simple_types@U?$pair@$$CBU?$pair@HV?$array@M$0BA@@std@@@std@@Uggml_backend_buffer_type@@@std@@@std@@@std@@@1@AEB_N@Z
	??$?0V?$allocator@D@std@@$$V@?$_Compressed_pair@V?$allocator@D@std@@V?$_String_val@U?$_Simple_types@D@std@@@2@$00@std@@QEAA@U_One_then_variadic_args_t@1@$$QEAV?$allocator@D@1@@Z
	??$?0V?$allocator@Uggml_backend_feature@@@std@@PEAUggml_backend_feature@@PEAU2@PEAU2@@?$_Compressed_pair@V?$allocator@Uggml_backend_feature@@@std@@V?$_Vector_val@U?$_Simple_types@Uggml_backend_feature@@@std@@@2@$00@std@@QEAA@U_One_then_variadic_args_t@1@$$QEAV?$allocator@Uggml_backend_feature@@@1@$$QEAPEAUggml_backend_feature@@22@Z
	??$?4U?$default_delete@Uggml_cuda_pool@@@std@@$0A@@?$unique_ptr@Uggml_cuda_pool@@U?$default_delete@Uggml_cuda_pool@@@std@@@std@@QEAAAEAV01@$$QEAV01@@Z
	??$?8Uggml_cuda_graph@@U?$default_delete@Uggml_cuda_graph@@@std@@@std@@YA_NAEBV?$unique_ptr@Uggml_cuda_graph@@U?$default_delete@Uggml_cuda_graph@@@std@@@0@$$T@Z
	??$?8Uggml_cuda_pool@@U?$default_delete@Uggml_cuda_pool@@@std@@@std@@YA_NAEBV?$unique_ptr@Uggml_cuda_pool@@U?$default_delete@Uggml_cuda_pool@@@std@@@0@$$T@Z
	??$?HDU?$char_traits@D@std@@V?$allocator@D@1@@std@@YA?AV?$basic_string@DU?$char_traits@D@std@@V?$allocator@D@2@@0@$$QEAV10@QEBD@Z
	??$?HDU?$char_traits@D@std@@V?$allocator@D@1@@std@@YA?AV?$basic_string@DU?$char_traits@D@std@@V?$allocator@D@2@@0@QEBD$$QEAV10@@Z
	??$?MHV?$array@M$0BA@@std@@HV01@@std@@YA_NAEBU?$pair@HV?$array@M$0BA@@std@@@0@0@Z
	??$?MM$0BA@@std@@YA_NAEBV?$array@M$0BA@@0@0@Z
	??$?RAEBMAEBM@?$less@X@std@@QEBA_NAEBM0@Z
	??$?RV<lambda_b4cbd73692cf29fbda2a019b404e4e88>@@@PerDeviceAttributeCache@CUB_200500_890_NS@cub@@QEAA?AUDevicePayload@012@$$QEAV<lambda_b4cbd73692cf29fbda2a019b404e4e88>@@H@Z
	??$AliasTemporaries@$00@CUB_200500_890_NS@cub@@YA?AW4cudaError@@PEAXAEA_KAEAY00PEAXAEAY00_K@Z
	??$DeviceReduceKernel@UPolicy600@?$DeviceReducePolicy@M_KU?$plus@X@__4@std@cuda@@@CUB_200500_890_NS@cub@@PEBM_KU?$plus@X@__4@std@cuda@@MU__identity@678@@CUB_200500_890_NS@cub@@YAXPEBMPEAM_KU?$GridEvenShare@_K@01@U?$plus@X@__4@std@cuda@@U__identity@456@@Z
	??$DeviceReduceSingleTileKernel@UPolicy600@?$DeviceReducePolicy@M_KU?$plus@X@__4@std@cuda@@@CUB_200500_890_NS@cub@@PEAMPEAMHU?$plus@X@__4@std@cuda@@MMU__identity@678@@CUB_200500_890_NS@cub@@YAXPEAM0HU?$plus@X@__4@std@cuda@@MU__identity@345@@Z
	??$DeviceReduceSingleTileKernel@UPolicy600@?$DeviceReducePolicy@M_KU?$plus@X@__4@std@cuda@@@CUB_200500_890_NS@cub@@PEBMPEAM_KU?$plus@X@__4@std@cuda@@MMU__identity@678@@CUB_200500_890_NS@cub@@YAXPEBMPEAM_KU?$plus@X@__4@std@cuda@@MU__identity@345@@Z
	??$DivideAndRoundUp@_KH@CUB_200500_890_NS@cub@@YA_K_KH@Z
	??$EmptyKernel@X@CUB_200500_890_NS@cub@@YAXXZ
	??$GetPerDeviceAttributeCache@UPtxVersionCacheTag@CUB_200500_890_NS@cub@@@CUB_200500_890_NS@cub@@YAAEAUPerDeviceAttributeCache@01@XZ
	??$Init@U?$AgentReducePolicy@$0BAA@$0BA@M$03$01$04U?$MemBoundScaling@$0BAA@$0BA@M@CUB_200500_890_NS@cub@@@CUB_200500_890_NS@cub@@P6AXPEBMPEAM_KU?$GridEvenShare@_K@23@U?$plus@X@__4@std@cuda@@U__identity@678@@Z@KernelConfig@CUB_200500_890_NS@cub@@QEAA?AW4cudaError@@P6AXPEBMPEAM_KU?$GridEvenShare@_K@12@U?$plus@X@__4@std@cuda@@U__identity@678@@Z@Z
	??$Init@U?$AgentReducePolicy@$0BAA@$0BE@M$01$01$0A@U?$MemBoundScaling@$0BAA@$0BE@M@CUB_200500_890_NS@cub@@@CUB_200500_890_NS@cub@@P6AXPEBMPEAM_KU?$GridEvenShare@_K@23@U?$plus@X@__4@std@cuda@@U__identity@678@@Z@KernelConfig@CUB_200500_890_NS@cub@@QEAA?AW4cudaError@@P6AXPEBMPEAM_KU?$GridEvenShare@_K@12@U?$plus@X@__4@std@cuda@@U__identity@678@@Z@Z
	??$Init@U?$AgentReducePolicy@$0BAA@$0BE@M$03$01$04U?$MemBoundScaling@$0BAA@$0BE@M@CUB_200500_890_NS@cub@@@CUB_200500_890_NS@cub@@P6AXPEBMPEAM_KU?$GridEvenShare@_K@23@U?$plus@X@__4@std@cuda@@U__identity@678@@Z@KernelConfig@CUB_200500_890_NS@cub@@QEAA?AW4cudaError@@P6AXPEBMPEAM_KU?$GridEvenShare@_K@12@U?$plus@X@__4@std@cuda@@U__identity@678@@Z@Z
	??$Invoke@U?$DispatchReduce@PEBMPEAM_KU?$plus@X@__4@std@cuda@@MMU?$DeviceReducePolicy@M_KU?$plus@X@__4@std@cuda@@@CUB_200500_890_NS@cub@@U__identity@234@@CUB_200500_890_NS@cub@@@?$ChainedPolicy@$0BCM@UPolicy300@?$DeviceReducePolicy@M_KU?$plus@X@__4@std@cuda@@@CUB_200500_890_NS@cub@@U1234@@CUB_200500_890_NS@cub@@SA?AW4cudaError@@HAEAU?$DispatchReduce@PEBMPEAM_KU?$plus@X@__4@std@cuda@@MMU?$DeviceReducePolicy@M_KU?$plus@X@__4@std@cuda@@@CUB_200500_890_NS@cub@@U__identity@234@@12@@Z
	??$Invoke@U?$DispatchReduce@PEBMPEAM_KU?$plus@X@__4@std@cuda@@MMU?$DeviceReducePolicy@M_KU?$plus@X@__4@std@cuda@@@CUB_200500_890_NS@cub@@U__identity@234@@CUB_200500_890_NS@cub@@@?$ChainedPolicy@$0BFO@UPolicy350@?$DeviceReducePolicy@M_KU?$plus@X@__4@std@cuda@@@CUB_200500_890_NS@cub@@UPolicy300@234@@CUB_200500_890_NS@cub@@SA?AW4cudaError@@HAEAU?$DispatchReduce@PEBMPEAM_KU?$plus@X@__4@std@cuda@@MMU?$DeviceReducePolicy@M_KU?$plus@X@__4@std@cuda@@@CUB_200500_890_NS@cub@@U__identity@234@@12@@Z
	??$Invoke@U?$DispatchReduce@PEBMPEAM_KU?$plus@X@__4@std@cuda@@MMU?$DeviceReducePolicy@M_KU?$plus@X@__4@std@cuda@@@CUB_200500_890_NS@cub@@U__identity@234@@CUB_200500_890_NS@cub@@@?$ChainedPolicy@$0CFI@UPolicy600@?$DeviceReducePolicy@M_KU?$plus@X@__4@std@cuda@@@CUB_200500_890_NS@cub@@UPolicy350@234@@CUB_200500_890_NS@cub@@SA?AW4cudaError@@HAEAU?$DispatchReduce@PEBMPEAM_KU?$plus@X@__4@std@cuda@@MMU?$DeviceReducePolicy@M_KU?$plus@X@__4@std@cuda@@@CUB_200500_890_NS@cub@@U__identity@234@@12@@Z
	??$Invoke@UPolicy300@?$DeviceReducePolicy@M_KU?$plus@X@__4@std@cuda@@@CUB_200500_890_NS@cub@@@?$DispatchReduce@PEBMPEAM_KU?$plus@X@__4@std@cuda@@MMU?$DeviceReducePolicy@M_KU?$plus@X@__4@std@cuda@@@CUB_200500_890_NS@cub@@U__identity@234@@CUB_200500_890_NS@cub@@QEAA?AW4cudaError@@XZ
	??$Invoke@UPolicy350@?$DeviceReducePolicy@M_KU?$plus@X@__4@std@cuda@@@CUB_200500_890_NS@cub@@@?$DispatchReduce@PEBMPEAM_KU?$plus@X@__4@std@cuda@@MMU?$DeviceReducePolicy@M_KU?$plus@X@__4@std@cuda@@@CUB_200500_890_NS@cub@@U__identity@234@@CUB_200500_890_NS@cub@@QEAA?AW4cudaError@@XZ
	??$Invoke@UPolicy600@?$DeviceReducePolicy@M_KU?$plus@X@__4@std@cuda@@@CUB_200500_890_NS@cub@@@?$DispatchReduce@PEBMPEAM_KU?$plus@X@__4@std@cuda@@MMU?$DeviceReducePolicy@M_KU?$plus@X@__4@std@cuda@@@CUB_200500_890_NS@cub@@U__identity@234@@CUB_200500_890_NS@cub@@QEAA?AW4cudaError@@XZ
	??$InvokePasses@UPolicy300@?$DeviceReducePolicy@M_KU?$plus@X@__4@std@cuda@@@CUB_200500_890_NS@cub@@P6AXPEBMPEAM_KU?$GridEvenShare@_K@34@U?$plus@X@__4@std@cuda@@U__identity@789@@ZP6AX11H4M5@Z@?$DispatchReduce@PEBMPEAM_KU?$plus@X@__4@std@cuda@@MMU?$DeviceReducePolicy@M_KU?$plus@X@__4@std@cuda@@@CUB_200500_890_NS@cub@@U__identity@234@@CUB_200500_890_NS@cub@@QEAA?AW4cudaError@@P6AXPEBMPEAM_KU?$GridEvenShare@_K@12@U?$plus@X@__4@std@cuda@@U__identity@678@@ZP6AX11H4M5@Z@Z
	??$InvokePasses@UPolicy350@?$DeviceReducePolicy@M_KU?$plus@X@__4@std@cuda@@@CUB_200500_890_NS@cub@@P6AXPEBMPEAM_KU?$GridEvenShare@_K@34@U?$plus@X@__4@std@cuda@@U__identity@789@@ZP6AX11H4M5@Z@?$DispatchReduce@PEBMPEAM_KU?$plus@X@__4@std@cuda@@MMU?$DeviceReducePolicy@M_KU?$plus@X@__4@std@cuda@@@CUB_200500_890_NS@cub@@U__identity@234@@CUB_200500_890_NS@cub@@QEAA?AW4cudaError@@P6AXPEBMPEAM_KU?$GridEvenShare@_K@12@U?$plus@X@__4@std@cuda@@U__identity@678@@ZP6AX11H4M5@Z@Z
	??$InvokePasses@UPolicy600@?$DeviceReducePolicy@M_KU?$plus@X@__4@std@cuda@@@CUB_200500_890_NS@cub@@P6AXPEBMPEAM_KU?$GridEvenShare@_K@34@U?$plus@X@__4@std@cuda@@U__identity@789@@ZP6AX11H4M5@Z@?$DispatchReduce@PEBMPEAM_KU?$plus@X@__4@std@cuda@@MMU?$DeviceReducePolicy@M_KU?$plus@X@__4@std@cuda@@@CUB_200500_890_NS@cub@@U__identity@234@@CUB_200500_890_NS@cub@@QEAA?AW4cudaError@@P6AXPEBMPEAM_KU?$GridEvenShare@_K@12@U?$plus@X@__4@std@cuda@@U__identity@678@@ZP6AX11H4M5@Z@Z
	??$InvokeSingleTile@UPolicy300@?$DeviceReducePolicy@M_KU?$plus@X@__4@std@cuda@@@CUB_200500_890_NS@cub@@P6AXPEBMPEAM_KU?$plus@X@__4@std@cuda@@MU__identity@678@@Z@?$DispatchReduce@PEBMPEAM_KU?$plus@X@__4@std@cuda@@MMU?$DeviceReducePolicy@M_KU?$plus@X@__4@std@cuda@@@CUB_200500_890_NS@cub@@U__identity@234@@CUB_200500_890_NS@cub@@QEAA?AW4cudaError@@P6AXPEBMPEAM_KU?$plus@X@__4@std@cuda@@MU__identity@567@@Z@Z
	??$InvokeSingleTile@UPolicy350@?$DeviceReducePolicy@M_KU?$plus@X@__4@std@cuda@@@CUB_200500_890_NS@cub@@P6AXPEBMPEAM_KU?$plus@X@__4@std@cuda@@MU__identity@678@@Z@?$DispatchReduce@PEBMPEAM_KU?$plus@X@__4@std@cuda@@MMU?$DeviceReducePolicy@M_KU?$plus@X@__4@std@cuda@@@CUB_200500_890_NS@cub@@U__identity@234@@CUB_200500_890_NS@cub@@QEAA?AW4cudaError@@P6AXPEBMPEAM_KU?$plus@X@__4@std@cuda@@MU__identity@567@@Z@Z
	??$InvokeSingleTile@UPolicy600@?$DeviceReducePolicy@M_KU?$plus@X@__4@std@cuda@@@CUB_200500_890_NS@cub@@P6AXPEBMPEAM_KU?$plus@X@__4@std@cuda@@MU__identity@678@@Z@?$DispatchReduce@PEBMPEAM_KU?$plus@X@__4@std@cuda@@MMU?$DeviceReducePolicy@M_KU?$plus@X@__4@std@cuda@@@CUB_200500_890_NS@cub@@U__identity@234@@CUB_200500_890_NS@cub@@QEAA?AW4cudaError@@P6AXPEBMPEAM_KU?$plus@X@__4@std@cuda@@MU__identity@567@@Z@Z
	??$MaxSmOccupancy@P6AXPEBMPEAM_KU?$GridEvenShare@_K@CUB_200500_890_NS@cub@@U?$plus@X@__4@std@cuda@@U__identity@567@@Z@CUB_200500_890_NS@cub@@YA?AW4cudaError@@AEAHP6AXPEBMPEAM_KU?$GridEvenShare@_K@01@U?$plus@X@__4@std@cuda@@U__identity@567@@ZHH@Z
	??$Sum@PEBMPEAM_J@DeviceReduce@CUB_200500_890_NS@cub@@SA?AW4cudaError@@PEAXAEA_KPEBMPEAM_JPEAUCUstream_st@@@Z
	??$_Adl_verify_range@PEADPEAD@std@@YAXAEBQEAD0@Z
	??$_Adl_verify_range@PEBMPEBM@std@@YAXAEBQEBM0@Z
	??$_Adl_verify_range@V?$_Vector_iterator@V?$_Vector_val@U?$_Simple_types@PEAX@std@@@std@@@std@@V12@@std@@YAXAEBV?$_Vector_iterator@V?$_Vector_val@U?$_Simple_types@PEAX@std@@@std@@@0@0@Z
	??$_Allocate@$0BA@U_Default_allocate_traits@std@@@std@@YAPEAX_K@Z
	??$_Allocate_at_least_helper@V?$allocator@D@std@@@std@@YAPEADAEAV?$allocator@D@0@AEA_K@Z
	??$_Allocate_at_least_helper@V?$allocator@PEAPEAD@std@@@std@@YAPEAPEAPEADAEAV?$allocator@PEAPEAD@0@AEA_K@Z
	??$_Allocate_at_least_helper@V?$allocator@PEAUCUgraphNode_st@@@std@@@std@@YAPEAPEAUCUgraphNode_st@@AEAV?$allocator@PEAUCUgraphNode_st@@@0@AEA_K@Z
	??$_Allocate_at_least_helper@V?$allocator@PEAUggml_backend_device@@@std@@@std@@YAPEAPEAUggml_backend_device@@AEAV?$allocator@PEAUggml_backend_device@@@0@AEA_K@Z
	??$_Allocate_at_least_helper@V?$allocator@PEAUggml_tensor_extra_gpu@@@std@@@std@@YAPEAPEAUggml_tensor_extra_gpu@@AEAV?$allocator@PEAUggml_tensor_extra_gpu@@@0@AEA_K@Z
	??$_Allocate_at_least_helper@V?$allocator@PEAX@std@@@std@@YAPEAPEAXAEAV?$allocator@PEAX@0@AEA_K@Z
	??$_Allocate_at_least_helper@V?$allocator@UcudaKernelNodeParams@@@std@@@std@@YAPEAUcudaKernelNodeParams@@AEAV?$allocator@UcudaKernelNodeParams@@@0@AEA_K@Z
	??$_Allocate_at_least_helper@V?$allocator@Uggml_backend_feature@@@std@@@std@@YAPEAUggml_backend_feature@@AEAV?$allocator@Uggml_backend_feature@@@0@AEA_K@Z
	??$_Allocate_at_least_helper@V?$allocator@Uggml_graph_node_properties@@@std@@@std@@YAPEAUggml_graph_node_properties@@AEAV?$allocator@Uggml_graph_node_properties@@@0@AEA_K@Z
	??$_Allocate_for_capacity@$0A@@?$basic_string@DU?$char_traits@D@std@@V?$allocator@D@2@@std@@CAPEADAEAV?$allocator@D@1@AEA_K@Z
	??$_Allocate_manually_vector_aligned@U_Default_allocate_traits@std@@@std@@YAPEAX_K@Z
	??$_Atomic_address_as@HU?$_Atomic_padded@W4DeviceEntryStatus@PerDeviceAttributeCache@CUB_200500_890_NS@cub@@@std@@@std@@YAPECHAEAU?$_Atomic_padded@W4DeviceEntryStatus@PerDeviceAttributeCache@CUB_200500_890_NS@cub@@@0@@Z
	??$_Atomic_address_as@HU?$_Atomic_padded@W4DeviceEntryStatus@PerDeviceAttributeCache@CUB_200500_890_NS@cub@@@std@@@std@@YAPEDHAEBU?$_Atomic_padded@W4DeviceEntryStatus@PerDeviceAttributeCache@CUB_200500_890_NS@cub@@@0@@Z
	??$_Atomic_address_as@JU?$_Atomic_padded@W4DeviceEntryStatus@PerDeviceAttributeCache@CUB_200500_890_NS@cub@@@std@@@std@@YAPECJAEAU?$_Atomic_padded@W4DeviceEntryStatus@PerDeviceAttributeCache@CUB_200500_890_NS@cub@@@0@@Z
	??$_Atomic_reinterpret_as@HW4DeviceEntryStatus@PerDeviceAttributeCache@CUB_200500_890_NS@cub@@@std@@YAHAEBW4DeviceEntryStatus@PerDeviceAttributeCache@CUB_200500_890_NS@cub@@@Z
	??$_Atomic_reinterpret_as@JW4DeviceEntryStatus@PerDeviceAttributeCache@CUB_200500_890_NS@cub@@@std@@YAJAEBW4DeviceEntryStatus@PerDeviceAttributeCache@CUB_200500_890_NS@cub@@@Z
	??$_Buyheadnode@V?$allocator@U?$_Tree_node@U?$pair@$$CBU?$pair@HV?$array@M$0BA@@std@@@std@@Uggml_backend_buffer_type@@@std@@PEAX@std@@@std@@@?$_Tree_node@U?$pair@$$CBU?$pair@HV?$array@M$0BA@@std@@@std@@Uggml_backend_buffer_type@@@std@@PEAX@std@@SAPEAU01@AEAV?$allocator@U?$_Tree_node@U?$pair@$$CBU?$pair@HV?$array@M$0BA@@std@@@std@@Uggml_backend_buffer_type@@@std@@PEAX@std@@@1@@Z
	??$_Construct@$00PEAD@?$basic_string@DU?$char_traits@D@std@@V?$allocator@D@2@@std@@AEAAXQEAD_K@Z
	??$_Construct_in_place@PEADAEAPEAD@std@@YAXAEAPEAD0@Z
	??$_Construct_in_place@PEADAEBQEAD@std@@YAXAEAPEADAEBQEAD@Z
	??$_Construct_in_place@PEAPEADPEAPEAD@std@@YAXAEAPEAPEAD$$QEAPEAPEAD@Z
	??$_Construct_in_place@PEAU?$_Tree_node@U?$pair@$$CBU?$pair@HV?$array@M$0BA@@std@@@std@@Uggml_backend_buffer_type@@@std@@PEAX@std@@AEAPEAU12@@std@@YAXAEAPEAU?$_Tree_node@U?$pair@$$CBU?$pair@HV?$array@M$0BA@@std@@@std@@Uggml_backend_buffer_type@@@std@@PEAX@0@0@Z
	??$_Construct_in_place@PEAU?$_Tree_node@U?$pair@$$CBU?$pair@HV?$array@M$0BA@@std@@@std@@Uggml_backend_buffer_type@@@std@@PEAX@std@@AEBQEAU12@@std@@YAXAEAPEAU?$_Tree_node@U?$pair@$$CBU?$pair@HV?$array@M$0BA@@std@@@std@@Uggml_backend_buffer_type@@@std@@PEAX@0@AEBQEAU10@@Z
	??$_Construct_in_place@PEAUggml_backend_device@@AEBQEAU1@@std@@YAXAEAPEAUggml_backend_device@@AEBQEAU1@@Z
	??$_Construct_in_place@PEAUggml_tensor_extra_gpu@@AEBQEAU1@@std@@YAXAEAPEAUggml_tensor_extra_gpu@@AEBQEAU1@@Z
	??$_Construct_in_place@PEAXAEBQEAX@std@@YAXAEAPEAXAEBQEAX@Z
	??$_Construct_in_place@Uggml_backend_feature@@U1@@std@@YAXAEAUggml_backend_feature@@$$QEAU1@@Z
	??$_Construct_n@$$V@?$vector@DV?$allocator@D@std@@@std@@AEAAX_K@Z
	??$_Convert_size@_K_K@std@@YA_K_K@Z
	??$_Copy_memmove@PEAPEAPEADPEAPEAPEAD@std@@YAPEAPEAPEADPEAPEAPEAD00@Z
	??$_Copy_memmove@PEAPEAUCUgraphNode_st@@PEAPEAU1@@std@@YAPEAPEAUCUgraphNode_st@@PEAPEAU1@00@Z
	??$_Copy_memmove@PEAPEAUggml_backend_device@@PEAPEAU1@@std@@YAPEAPEAUggml_backend_device@@PEAPEAU1@00@Z
	??$_Copy_memmove@PEAPEAUggml_tensor_extra_gpu@@PEAPEAU1@@std@@YAPEAPEAUggml_tensor_extra_gpu@@PEAPEAU1@00@Z
	??$_Copy_memmove@PEAPEAXPEAPEAX@std@@YAPEAPEAXPEAPEAX00@Z
	??$_Copy_memmove@PEAUcudaKernelNodeParams@@PEAU1@@std@@YAPEAUcudaKernelNodeParams@@PEAU1@00@Z
	??$_Copy_memmove@PEAUggml_backend_feature@@PEAU1@@std@@YAPEAUggml_backend_feature@@PEAU1@00@Z
	??$_Copy_memmove@PEAUggml_graph_node_properties@@PEAU1@@std@@YAPEAUggml_graph_node_properties@@PEAU1@00@Z
	??$_Could_compare_equal_to_value_type@PEAPEAXPEAX@std@@YA_NAEBQEAX@Z
	??$_Count_vectorized@PEAXPEAX@std@@YA_KQEAPEAX0QEAX@Z
	??$_Deallocate@$0BA@@std@@YAXPEAX_K@Z
	??$_Destroy_in_place@PEAD@std@@YAXAEAPEAD@Z
	??$_Destroy_in_place@PEAU?$_Tree_node@U?$pair@$$CBU?$pair@HV?$array@M$0BA@@std@@@std@@Uggml_backend_buffer_type@@@std@@PEAX@std@@@std@@YAXAEAPEAU?$_Tree_node@U?$pair@$$CBU?$pair@HV?$array@M$0BA@@std@@@std@@Uggml_backend_buffer_type@@@std@@PEAX@0@@Z
	??$_Destroy_range@V?$allocator@D@std@@@std@@YAXPEADQEADAEAV?$allocator@D@0@@Z
	??$_Destroy_range@V?$allocator@PEAPEAD@std@@@std@@YAXPEAPEAPEADQEAPEAPEADAEAV?$allocator@PEAPEAD@0@@Z
	??$_Destroy_range@V?$allocator@PEAUCUgraphNode_st@@@std@@@std@@YAXPEAPEAUCUgraphNode_st@@QEAPEAU1@AEAV?$allocator@PEAUCUgraphNode_st@@@0@@Z
	??$_Destroy_range@V?$allocator@PEAUggml_backend_device@@@std@@@std@@YAXPEAPEAUggml_backend_device@@QEAPEAU1@AEAV?$allocator@PEAUggml_backend_device@@@0@@Z
	??$_Destroy_range@V?$allocator@PEAUggml_tensor_extra_gpu@@@std@@@std@@YAXPEAPEAUggml_tensor_extra_gpu@@QEAPEAU1@AEAV?$allocator@PEAUggml_tensor_extra_gpu@@@0@@Z
	??$_Destroy_range@V?$allocator@PEAX@std@@@std@@YAXPEAPEAXQEAPEAXAEAV?$allocator@PEAX@0@@Z
	??$_Destroy_range@V?$allocator@UcudaKernelNodeParams@@@std@@@std@@YAXPEAUcudaKernelNodeParams@@QEAU1@AEAV?$allocator@UcudaKernelNodeParams@@@0@@Z
	??$_Destroy_range@V?$allocator@Uggml_backend_feature@@@std@@@std@@YAXPEAUggml_backend_feature@@QEAU1@AEAV?$allocator@Uggml_backend_feature@@@0@@Z
	??$_Destroy_range@V?$allocator@Uggml_graph_node_properties@@@std@@@std@@YAXPEAUggml_graph_node_properties@@QEAU1@AEAV?$allocator@Uggml_graph_node_properties@@@0@@Z
	??$_Emplace@U?$pair@HV?$array@M$0BA@@std@@@std@@AEAUggml_backend_buffer_type@@@?$_Tree@V?$_Tmap_traits@U?$pair@HV?$array@M$0BA@@std@@@std@@Uggml_backend_buffer_type@@U?$less@U?$pair@HV?$array@M$0BA@@std@@@std@@@2@V?$allocator@U?$pair@$$CBU?$pair@HV?$array@M$0BA@@std@@@std@@Uggml_backend_buffer_type@@@std@@@2@$0A@@std@@@std@@IEAA?AU?$pair@PEAU?$_Tree_node@U?$pair@$$CBU?$pair@HV?$array@M$0BA@@std@@@std@@Uggml_backend_buffer_type@@@std@@PEAX@std@@_N@1@$$QEAU?$pair@HV?$array@M$0BA@@std@@@1@AEAUggml_backend_buffer_type@@@Z
	??$_Emplace_back@$$V@?$_Uninitialized_backout_al@V?$allocator@D@std@@@std@@QEAAXXZ
	??$_Emplace_back@$$V@?$_Uninitialized_backout_al@V?$allocator@PEAUCUgraphNode_st@@@std@@@std@@QEAAXXZ
	??$_Emplace_back@$$V@?$_Uninitialized_backout_al@V?$allocator@UcudaKernelNodeParams@@@std@@@std@@QEAAXXZ
	??$_Emplace_back@$$V@?$_Uninitialized_backout_al@V?$allocator@Uggml_graph_node_properties@@@std@@@std@@QEAAXXZ
	??$_Emplace_back@PEAPEAD@?$_Uninitialized_backout_al@V?$allocator@PEAPEAD@std@@@std@@QEAAX$$QEAPEAPEAD@Z
	??$_Emplace_back@PEAUCUgraphNode_st@@@?$_Uninitialized_backout_al@V?$allocator@PEAUCUgraphNode_st@@@std@@@std@@QEAAX$$QEAPEAUCUgraphNode_st@@@Z
	??$_Emplace_back@PEAUggml_backend_device@@@?$_Uninitialized_backout_al@V?$allocator@PEAUggml_backend_device@@@std@@@std@@QEAAX$$QEAPEAUggml_backend_device@@@Z
	??$_Emplace_back@PEAUggml_tensor_extra_gpu@@@?$_Uninitialized_backout_al@V?$allocator@PEAUggml_tensor_extra_gpu@@@std@@@std@@QEAAX$$QEAPEAUggml_tensor_extra_gpu@@@Z
	??$_Emplace_back@PEAX@?$_Uninitialized_backout_al@V?$allocator@PEAX@std@@@std@@QEAAX$$QEAPEAX@Z
	??$_Emplace_back@UcudaKernelNodeParams@@@?$_Uninitialized_backout_al@V?$allocator@UcudaKernelNodeParams@@@std@@@std@@QEAAX$$QEAUcudaKernelNodeParams@@@Z
	??$_Emplace_back@Uggml_backend_feature@@@?$_Uninitialized_backout_al@V?$allocator@Uggml_backend_feature@@@std@@@std@@QEAAX$$QEAUggml_backend_feature@@@Z
	??$_Emplace_back@Uggml_graph_node_properties@@@?$_Uninitialized_backout_al@V?$allocator@Uggml_graph_node_properties@@@std@@@std@@QEAAX$$QEAUggml_graph_node_properties@@@Z
	??$_Emplace_back_with_unused_capacity@AEBQEAUggml_backend_device@@@?$vector@PEAUggml_backend_device@@V?$allocator@PEAUggml_backend_device@@@std@@@std@@AEAAAEAPEAUggml_backend_device@@AEBQEAU2@@Z
	??$_Emplace_back_with_unused_capacity@AEBQEAUggml_tensor_extra_gpu@@@?$vector@PEAUggml_tensor_extra_gpu@@V?$allocator@PEAUggml_tensor_extra_gpu@@@std@@@std@@AEAAAEAPEAUggml_tensor_extra_gpu@@AEBQEAU2@@Z
	??$_Emplace_back_with_unused_capacity@AEBQEAX@?$vector@PEAXV?$allocator@PEAX@std@@@std@@AEAAAEAPEAXAEBQEAX@Z
	??$_Emplace_back_with_unused_capacity@PEAPEAD@?$vector@PEAPEADV?$allocator@PEAPEAD@std@@@std@@AEAAAEAPEAPEAD$$QEAPEAPEAD@Z
	??$_Emplace_back_with_unused_capacity@Uggml_backend_feature@@@?$vector@Uggml_backend_feature@@V?$allocator@Uggml_backend_feature@@@std@@@std@@AEAAAEAUggml_backend_feature@@$$QEAU2@@Z
	??$_Emplace_one_at_back@AEBQEAUggml_backend_device@@@?$vector@PEAUggml_backend_device@@V?$allocator@PEAUggml_backend_device@@@std@@@std@@AEAAAEAPEAUggml_backend_device@@AEBQEAU2@@Z
	??$_Emplace_one_at_back@AEBQEAUggml_tensor_extra_gpu@@@?$vector@PEAUggml_tensor_extra_gpu@@V?$allocator@PEAUggml_tensor_extra_gpu@@@std@@@std@@AEAAAEAPEAUggml_tensor_extra_gpu@@AEBQEAU2@@Z
	??$_Emplace_one_at_back@AEBQEAX@?$vector@PEAXV?$allocator@PEAX@std@@@std@@AEAAAEAPEAXAEBQEAX@Z
	??$_Emplace_one_at_back@PEAPEAD@?$vector@PEAPEADV?$allocator@PEAPEAD@std@@@std@@AEAAAEAPEAPEAD$$QEAPEAPEAD@Z
	??$_Emplace_one_at_back@Uggml_backend_feature@@@?$vector@Uggml_backend_feature@@V?$allocator@Uggml_backend_feature@@@std@@@std@@AEAAAEAUggml_backend_feature@@$$QEAU2@@Z
	??$_Emplace_reallocate@AEBQEAUggml_backend_device@@@?$vector@PEAUggml_backend_device@@V?$allocator@PEAUggml_backend_device@@@std@@@std@@AEAAPEAPEAUggml_backend_device@@QEAPEAU2@AEBQEAU2@@Z
	??$_Emplace_reallocate@AEBQEAUggml_tensor_extra_gpu@@@?$vector@PEAUggml_tensor_extra_gpu@@V?$allocator@PEAUggml_tensor_extra_gpu@@@std@@@std@@AEAAPEAPEAUggml_tensor_extra_gpu@@QEAPEAU2@AEBQEAU2@@Z
	??$_Emplace_reallocate@AEBQEAX@?$vector@PEAXV?$allocator@PEAX@std@@@std@@AEAAPEAPEAXQEAPEAXAEBQEAX@Z
	??$_Emplace_reallocate@PEAPEAD@?$vector@PEAPEADV?$allocator@PEAPEAD@std@@@std@@AEAAPEAPEAPEADQEAPEAPEAD$$QEAPEAPEAD@Z
	??$_Emplace_reallocate@Uggml_backend_feature@@@?$vector@Uggml_backend_feature@@V?$allocator@Uggml_backend_feature@@@std@@@std@@AEAAPEAUggml_backend_feature@@QEAU2@$$QEAU2@@Z
	??$_Erase_head@V?$allocator@U?$_Tree_node@U?$pair@$$CBU?$pair@HV?$array@M$0BA@@std@@@std@@Uggml_backend_buffer_type@@@std@@PEAX@std@@@std@@@?$_Tree_val@U?$_Tree_simple_types@U?$pair@$$CBU?$pair@HV?$array@M$0BA@@std@@@std@@Uggml_backend_buffer_type@@@std@@@std@@@std@@QEAAXAEAV?$allocator@U?$_Tree_node@U?$pair@$$CBU?$pair@HV?$array@M$0BA@@std@@@std@@Uggml_backend_buffer_type@@@std@@PEAX@std@@@1@@Z
	??$_Erase_tree@V?$allocator@U?$_Tree_node@U?$pair@$$CBU?$pair@HV?$array@M$0BA@@std@@@std@@Uggml_backend_buffer_type@@@std@@PEAX@std@@@std@@@?$_Tree_val@U?$_Tree_simple_types@U?$pair@$$CBU?$pair@HV?$array@M$0BA@@std@@@std@@Uggml_backend_buffer_type@@@std@@@std@@@std@@QEAAXAEAV?$allocator@U?$_Tree_node@U?$pair@$$CBU?$pair@HV?$array@M$0BA@@std@@@std@@Uggml_backend_buffer_type@@@std@@PEAX@std@@@1@PEAU?$_Tree_node@U?$pair@$$CBU?$pair@HV?$array@M$0BA@@std@@@std@@Uggml_backend_buffer_type@@@std@@PEAX@1@@Z
	??$_Find@U?$pair@HV?$array@M$0BA@@std@@@std@@@?$_Tree@V?$_Tmap_traits@U?$pair@HV?$array@M$0BA@@std@@@std@@Uggml_backend_buffer_type@@U?$less@U?$pair@HV?$array@M$0BA@@std@@@std@@@2@V?$allocator@U?$pair@$$CBU?$pair@HV?$array@M$0BA@@std@@@std@@Uggml_backend_buffer_type@@@std@@@2@$0A@@std@@@std@@AEBAPEAU?$_Tree_node@U?$pair@$$CBU?$pair@HV?$array@M$0BA@@std@@@std@@Uggml_backend_buffer_type@@@std@@PEAX@1@AEBU?$pair@HV?$array@M$0BA@@std@@@1@@Z
	??$_Find_lower_bound@U?$pair@HV?$array@M$0BA@@std@@@std@@@?$_Tree@V?$_Tmap_traits@U?$pair@HV?$array@M$0BA@@std@@@std@@Uggml_backend_buffer_type@@U?$less@U?$pair@HV?$array@M$0BA@@std@@@std@@@2@V?$allocator@U?$pair@$$CBU?$pair@HV?$array@M$0BA@@std@@@std@@Uggml_backend_buffer_type@@@std@@@2@$0A@@std@@@std@@IEBA?AU?$_Tree_find_result@PEAU?$_Tree_node@U?$pair@$$CBU?$pair@HV?$array@M$0BA@@std@@@std@@Uggml_backend_buffer_type@@@std@@PEAX@std@@@1@AEBU?$pair@HV?$array@M$0BA@@std@@@1@@Z
	??$_Find_unchecked@PEAPEAXPEAX@std@@YAPEAPEAXPEAPEAXQEAPEAXAEBQEAX@Z
	??$_Find_vectorized@PEAXPEAX@std@@YAPEAPEAXQEAPEAX0QEAX@Z
	??$_Freenode0@V?$allocator@U?$_Tree_node@U?$pair@$$CBU?$pair@HV?$array@M$0BA@@std@@@std@@Uggml_backend_buffer_type@@@std@@PEAX@std@@@std@@@?$_Tree_node@U?$pair@$$CBU?$pair@HV?$array@M$0BA@@std@@@std@@Uggml_backend_buffer_type@@@std@@PEAX@std@@SAXAEAV?$allocator@U?$_Tree_node@U?$pair@$$CBU?$pair@HV?$array@M$0BA@@std@@@std@@Uggml_backend_buffer_type@@@std@@PEAX@std@@@1@PEAU01@@Z
	??$_Freenode@V?$allocator@U?$_Tree_node@U?$pair@$$CBU?$pair@HV?$array@M$0BA@@std@@@std@@Uggml_backend_buffer_type@@@std@@PEAX@std@@@std@@@?$_Tree_node@U?$pair@$$CBU?$pair@HV?$array@M$0BA@@std@@@std@@Uggml_backend_buffer_type@@@std@@PEAX@std@@SAXAEAV?$allocator@U?$_Tree_node@U?$pair@$$CBU?$pair@HV?$array@M$0BA@@std@@@std@@Uggml_backend_buffer_type@@@std@@PEAX@std@@@1@PEAU01@@Z
	??$_Get_size_of_n@$00@std@@YA_K_K@Z
	??$_Get_size_of_n@$07@std@@YA_K_K@Z
	??$_Get_size_of_n@$0BA@@std@@YA_K_K@Z
	??$_Get_size_of_n@$0DI@@std@@YA_K_K@Z
	??$_Get_size_of_n@$0KI@@std@@YA_K_K@Z
	??$_Get_size_of_n@$0OA@@std@@YA_K_K@Z
	??$_Get_unwrapped@AEAPEAD@std@@YA?A_TAEAPEAD@Z
	??$_Get_unwrapped@AEAPEBM@std@@YA?A_TAEAPEBM@Z
	??$_Get_unwrapped@AEAV?$_Vector_iterator@V?$_Vector_val@U?$_Simple_types@PEAX@std@@@std@@@std@@@std@@YA?A_TAEAV?$_Vector_iterator@V?$_Vector_val@U?$_Simple_types@PEAX@std@@@std@@@0@@Z
	??$_Get_unwrapped@AEBQEAPEAPEAD@std@@YA?A_TAEBQEAPEAPEAD@Z
	??$_Get_unwrapped@AEBQEAPEAUCUgraphNode_st@@@std@@YA?A_TAEBQEAPEAUCUgraphNode_st@@@Z
	??$_Get_unwrapped@AEBQEAPEAUggml_backend_device@@@std@@YA?A_TAEBQEAPEAUggml_backend_device@@@Z
	??$_Get_unwrapped@AEBQEAPEAUggml_tensor_extra_gpu@@@std@@YA?A_TAEBQEAPEAUggml_tensor_extra_gpu@@@Z
	??$_Get_unwrapped@AEBQEAPEAX@std@@YA?A_TAEBQEAPEAX@Z
	??$_Get_unwrapped@AEBQEAUcudaKernelNodeParams@@@std@@YA?A_TAEBQEAUcudaKernelNodeParams@@@Z
	??$_Get_unwrapped@AEBQEAUggml_backend_feature@@@std@@YA?A_TAEBQEAUggml_backend_feature@@@Z
	??$_Get_unwrapped@AEBQEAUggml_graph_node_properties@@@std@@YA?A_TAEBQEAUggml_graph_node_properties@@@Z
	??$_Get_unwrapped@AEBQEBM@std@@YA?A_TAEBQEBM@Z
	??$_Get_unwrapped@AEBV?$_Vector_iterator@V?$_Vector_val@U?$_Simple_types@PEAX@std@@@std@@@std@@@std@@YA?A_TAEBV?$_Vector_iterator@V?$_Vector_val@U?$_Simple_types@PEAX@std@@@std@@@0@@Z
	??$_Integral_to_string@DH@std@@YA?AV?$basic_string@DU?$char_traits@D@std@@V?$allocator@D@2@@0@H@Z
	??$_Kfn@$$CBU?$pair@HV?$array@M$0BA@@std@@@std@@Uggml_backend_buffer_type@@@?$_Tmap_traits@U?$pair@HV?$array@M$0BA@@std@@@std@@Uggml_backend_buffer_type@@U?$less@U?$pair@HV?$array@M$0BA@@std@@@std@@@2@V?$allocator@U?$pair@$$CBU?$pair@HV?$array@M$0BA@@std@@@std@@Uggml_backend_buffer_type@@@std@@@2@$0A@@std@@SAAEBU?$pair@HV?$array@M$0BA@@std@@@1@AEBU?$pair@$$CBU?$pair@HV?$array@M$0BA@@std@@@std@@Uggml_backend_buffer_type@@@1@@Z
	??$_Lower_bound_duplicate@U?$pair@HV?$array@M$0BA@@std@@@std@@@?$_Tree@V?$_Tmap_traits@U?$pair@HV?$array@M$0BA@@std@@@std@@Uggml_backend_buffer_type@@U?$less@U?$pair@HV?$array@M$0BA@@std@@@std@@@2@V?$allocator@U?$pair@$$CBU?$pair@HV?$array@M$0BA@@std@@@std@@Uggml_backend_buffer_type@@@std@@@2@$0A@@std@@@std@@IEBA_NQEAU?$_Tree_node@U?$pair@$$CBU?$pair@HV?$array@M$0BA@@std@@@std@@Uggml_backend_buffer_type@@@std@@PEAX@1@AEBU?$pair@HV?$array@M$0BA@@std@@@1@@Z
	??$_Max_limit@_J@std@@YA_JXZ
	??$_Pocma@V?$allocator@D@std@@@std@@YAXAEAV?$allocator@D@0@0@Z
	??$_Reallocate_for@V<lambda_66f57f934f28d61049862f64df852ff0>@@PEBD@?$basic_string@DU?$char_traits@D@std@@V?$allocator@D@2@@std@@AEAAAEAV01@_KV<lambda_66f57f934f28d61049862f64df852ff0>@@PEBD@Z
	??$_Reallocate_grow_by@V<lambda_65e615be2a453ca0576c979606f46740>@@PEBD_K@?$basic_string@DU?$char_traits@D@std@@V?$allocator@D@2@@std@@AEAAAEAV01@_KV<lambda_65e615be2a453ca0576c979606f46740>@@PEBD_K@Z
	??$_Reallocate_grow_by@V<lambda_f3a66ab6a0570788f31503db83886f49>@@_KPEBD_K@?$basic_string@DU?$char_traits@D@std@@V?$allocator@D@2@@std@@AEAAAEAV01@_KV<lambda_f3a66ab6a0570788f31503db83886f49>@@_KPEBD2@Z
	??$_Refancy_maybe_null@PEAPEAX$0A@@std@@YAPEAPEAXPEAPEAX@Z
	??$_Resize@U_Value_init_tag@std@@@?$vector@PEAUCUgraphNode_st@@V?$allocator@PEAUCUgraphNode_st@@@std@@@std@@AEAAX_KAEBU_Value_init_tag@1@@Z
	??$_Resize@U_Value_init_tag@std@@@?$vector@UcudaKernelNodeParams@@V?$allocator@UcudaKernelNodeParams@@@std@@@std@@AEAAX_KAEBU_Value_init_tag@1@@Z
	??$_Resize@U_Value_init_tag@std@@@?$vector@Uggml_graph_node_properties@@V?$allocator@Uggml_graph_node_properties@@@std@@@std@@AEAAX_KAEBU_Value_init_tag@1@@Z
	??$_Resize_reallocate@U_Value_init_tag@std@@@?$vector@PEAUCUgraphNode_st@@V?$allocator@PEAUCUgraphNode_st@@@std@@@std@@AEAAX_KAEBU_Value_init_tag@1@@Z
	??$_Resize_reallocate@U_Value_init_tag@std@@@?$vector@UcudaKernelNodeParams@@V?$allocator@UcudaKernelNodeParams@@@std@@@std@@AEAAX_KAEBU_Value_init_tag@1@@Z
	??$_Resize_reallocate@U_Value_init_tag@std@@@?$vector@Uggml_graph_node_properties@@V?$allocator@Uggml_graph_node_properties@@@std@@@std@@AEAAX_KAEBU_Value_init_tag@1@@Z
	??$_Seek_wrapped@V?$_Vector_iterator@V?$_Vector_val@U?$_Simple_types@PEAX@std@@@std@@@std@@PEAPEAX@std@@YAXAEAV?$_Vector_iterator@V?$_Vector_val@U?$_Simple_types@PEAX@std@@@std@@@0@$$QEAPEAPEAX@Z
	??$_To_address@PEAD@std@@YA?A_PAEBQEAD@Z
	??$_To_address@PEAPEAPEAD@std@@YA?A_PAEBQEAPEAPEAD@Z
	??$_To_address@PEAPEAUCUgraphNode_st@@@std@@YA?A_PAEBQEAPEAUCUgraphNode_st@@@Z
	??$_To_address@PEAPEAUggml_backend_device@@@std@@YA?A_PAEBQEAPEAUggml_backend_device@@@Z
	??$_To_address@PEAPEAUggml_tensor_extra_gpu@@@std@@YA?A_PAEBQEAPEAUggml_tensor_extra_gpu@@@Z
	??$_To_address@PEAPEAX@std@@YA?A_PAEBQEAPEAX@Z
	??$_To_address@PEAUcudaKernelNodeParams@@@std@@YA?A_PAEBQEAUcudaKernelNodeParams@@@Z
	??$_To_address@PEAUggml_backend_feature@@@std@@YA?A_PAEBQEAUggml_backend_feature@@@Z
	??$_To_address@PEAUggml_graph_node_properties@@@std@@YA?A_PAEBQEAUggml_graph_node_properties@@@Z
	??$_UIntegral_to_buff@DI@std@@YAPEADPEADI@Z
	??$_Unfancy@D@std@@YAPEADPEAD@Z
	??$_Unfancy@PEAPEAD@std@@YAPEAPEAPEADPEAPEAPEAD@Z
	??$_Unfancy@PEAUCUgraphNode_st@@@std@@YAPEAPEAUCUgraphNode_st@@PEAPEAU1@@Z
	??$_Unfancy@PEAUggml_backend_device@@@std@@YAPEAPEAUggml_backend_device@@PEAPEAU1@@Z
	??$_Unfancy@PEAUggml_tensor_extra_gpu@@@std@@YAPEAPEAUggml_tensor_extra_gpu@@PEAPEAU1@@Z
	??$_Unfancy@PEAX@std@@YAPEAPEAXPEAPEAX@Z
	??$_Unfancy@UcudaKernelNodeParams@@@std@@YAPEAUcudaKernelNodeParams@@PEAU1@@Z
	??$_Unfancy@Uggml_backend_feature@@@std@@YAPEAUggml_backend_feature@@PEAU1@@Z
	??$_Unfancy@Uggml_graph_node_properties@@@std@@YAPEAUggml_graph_node_properties@@PEAU1@@Z
	??$_Unfancy_maybe_null@D@std@@YAPEADPEAD@Z
	??$_Unfancy_maybe_null@PEAUCUgraphNode_st@@@std@@YAPEAPEAUCUgraphNode_st@@PEAPEAU1@@Z
	??$_Unfancy_maybe_null@PEAUggml_tensor_extra_gpu@@@std@@YAPEAPEAUggml_tensor_extra_gpu@@PEAPEAU1@@Z
	??$_Unfancy_maybe_null@PEAX@std@@YAPEAPEAXPEAPEAX@Z
	??$_Unfancy_maybe_null@Uggml_backend_feature@@@std@@YAPEAUggml_backend_feature@@PEAU1@@Z
	??$_Uninitialized_move@PEAPEAPEADV?$allocator@PEAPEAD@std@@@std@@YAPEAPEAPEADQEAPEAPEAD0PEAPEAPEADAEAV?$allocator@PEAPEAD@0@@Z
	??$_Uninitialized_move@PEAPEAUCUgraphNode_st@@V?$allocator@PEAUCUgraphNode_st@@@std@@@std@@YAPEAPEAUCUgraphNode_st@@QEAPEAU1@0PEAPEAU1@AEAV?$allocator@PEAUCUgraphNode_st@@@0@@Z
	??$_Uninitialized_move@PEAPEAUggml_backend_device@@V?$allocator@PEAUggml_backend_device@@@std@@@std@@YAPEAPEAUggml_backend_device@@QEAPEAU1@0PEAPEAU1@AEAV?$allocator@PEAUggml_backend_device@@@0@@Z
	??$_Uninitialized_move@PEAPEAUggml_tensor_extra_gpu@@V?$allocator@PEAUggml_tensor_extra_gpu@@@std@@@std@@YAPEAPEAUggml_tensor_extra_gpu@@QEAPEAU1@0PEAPEAU1@AEAV?$allocator@PEAUggml_tensor_extra_gpu@@@0@@Z
	??$_Uninitialized_move@PEAPEAXV?$allocator@PEAX@std@@@std@@YAPEAPEAXQEAPEAX0PEAPEAXAEAV?$allocator@PEAX@0@@Z
	??$_Uninitialized_move@PEAUcudaKernelNodeParams@@V?$allocator@UcudaKernelNodeParams@@@std@@@std@@YAPEAUcudaKernelNodeParams@@QEAU1@0PEAU1@AEAV?$allocator@UcudaKernelNodeParams@@@0@@Z
	??$_Uninitialized_move@PEAUggml_backend_feature@@V?$allocator@Uggml_backend_feature@@@std@@@std@@YAPEAUggml_backend_feature@@QEAU1@0PEAU1@AEAV?$allocator@Uggml_backend_feature@@@0@@Z
	??$_Uninitialized_move@PEAUggml_graph_node_properties@@V?$allocator@Uggml_graph_node_properties@@@std@@@std@@YAPEAUggml_graph_node_properties@@QEAU1@0PEAU1@AEAV?$allocator@Uggml_graph_node_properties@@@0@@Z
	??$_Uninitialized_value_construct_n@V?$allocator@D@std@@@std@@YAPEADPEAD_KAEAV?$allocator@D@0@@Z
	??$_Uninitialized_value_construct_n@V?$allocator@PEAUCUgraphNode_st@@@std@@@std@@YAPEAPEAUCUgraphNode_st@@PEAPEAU1@_KAEAV?$allocator@PEAUCUgraphNode_st@@@0@@Z
	??$_Uninitialized_value_construct_n@V?$allocator@UcudaKernelNodeParams@@@std@@@std@@YAPEAUcudaKernelNodeParams@@PEAU1@_KAEAV?$allocator@UcudaKernelNodeParams@@@0@@Z
	??$_Uninitialized_value_construct_n@V?$allocator@Uggml_graph_node_properties@@@std@@@std@@YAPEAUggml_graph_node_properties@@PEAU1@_KAEAV?$allocator@Uggml_graph_node_properties@@@0@@Z
	??$_Zero_range@PEAD@std@@YAPEADQEAD0@Z
	??$_Zero_range@PEAPEAUCUgraphNode_st@@@std@@YAPEAPEAUCUgraphNode_st@@QEAPEAU1@0@Z
	??$__construct@AEBVevent_attributes@v1@nvtx3@@@?$__optional_storage_base@V?$scoped_range_in@UNVTXCCCLDomain@detail@CUB_200500_890_NS@cub@@@v1@nvtx3@@@__4@std@cuda@@QEAAXAEBVevent_attributes@v1@nvtx3@@@Z
	??$addressof@$$CBV?$_Tree_val@U?$_Tree_simple_types@U?$pair@$$CBU?$pair@HV?$array@M$0BA@@std@@@std@@Uggml_backend_buffer_type@@@std@@@std@@@std@@@std@@YAPEBV?$_Tree_val@U?$_Tree_simple_types@U?$pair@$$CBU?$pair@HV?$array@M$0BA@@std@@@std@@Uggml_backend_buffer_type@@@std@@@std@@@0@AEBV10@@Z
	??$addressof@$$CBW4DeviceEntryStatus@PerDeviceAttributeCache@CUB_200500_890_NS@cub@@@std@@YAPEBW4DeviceEntryStatus@PerDeviceAttributeCache@CUB_200500_890_NS@cub@@AEBW41234@@Z
	??$addressof@PEAD@std@@YAPEAPEADAEAPEAD@Z
	??$addressof@PEAPEAD@std@@YAPEAPEAPEADAEAPEAPEAD@Z
	??$addressof@PEAU?$_Tree_node@U?$pair@$$CBU?$pair@HV?$array@M$0BA@@std@@@std@@Uggml_backend_buffer_type@@@std@@PEAX@std@@@std@@YAPEAPEAU?$_Tree_node@U?$pair@$$CBU?$pair@HV?$array@M$0BA@@std@@@std@@Uggml_backend_buffer_type@@@std@@PEAX@0@AEAPEAU10@@Z
	??$addressof@PEAUggml_backend_device@@@std@@YAPEAPEAUggml_backend_device@@AEAPEAU1@@Z
	??$addressof@PEAUggml_tensor_extra_gpu@@@std@@YAPEAPEAUggml_tensor_extra_gpu@@AEAPEAU1@@Z
	??$addressof@PEAX@std@@YAPEAPEAXAEAPEAX@Z
	??$addressof@U?$pair@$$CBU?$pair@HV?$array@M$0BA@@std@@@std@@Uggml_backend_buffer_type@@@std@@@std@@YAPEAU?$pair@$$CBU?$pair@HV?$array@M$0BA@@std@@@std@@Uggml_backend_buffer_type@@@0@AEAU10@@Z
	??$addressof@Uggml_backend_feature@@@std@@YAPEAUggml_backend_feature@@AEAU1@@Z
	??$addressof@V?$_String_val@U?$_Simple_types@D@std@@@std@@@std@@YAPEAV?$_String_val@U?$_Simple_types@D@std@@@0@AEAV10@@Z
	??$addressof@V?$_Tree_val@U?$_Tree_simple_types@U?$pair@$$CBU?$pair@HV?$array@M$0BA@@std@@@std@@Uggml_backend_buffer_type@@@std@@@std@@@std@@@std@@YAPEAV?$_Tree_val@U?$_Tree_simple_types@U?$pair@$$CBU?$pair@HV?$array@M$0BA@@std@@@std@@Uggml_backend_buffer_type@@@std@@@std@@@0@AEAV10@@Z
	??$addressof@V?$_Vector_val@U?$_Simple_types@PEAX@std@@@std@@@std@@YAPEAV?$_Vector_val@U?$_Simple_types@PEAX@std@@@0@AEAV10@@Z
	??$addressof@V?$basic_string@DU?$char_traits@D@std@@V?$allocator@D@2@@std@@@std@@YAPEAV?$basic_string@DU?$char_traits@D@std@@V?$allocator@D@2@@0@AEAV10@@Z
	??$addressof@V?$scoped_range_in@UNVTXCCCLDomain@detail@CUB_200500_890_NS@cub@@@v1@nvtx3@@@__4@std@cuda@@YAPEAV?$scoped_range_in@UNVTXCCCLDomain@detail@CUB_200500_890_NS@cub@@@v1@nvtx3@@AEAV345@@Z
	??$addressof@W4DeviceEntryStatus@PerDeviceAttributeCache@CUB_200500_890_NS@cub@@@std@@YAPEAW4DeviceEntryStatus@PerDeviceAttributeCache@CUB_200500_890_NS@cub@@AEAW41234@@Z
	??$construct@D$$V@?$_Default_allocator_traits@V?$allocator@D@std@@@std@@SAXAEAV?$allocator@D@1@QEAD@Z
	??$construct@PEAPEADPEAPEAD@?$_Default_allocator_traits@V?$allocator@PEAPEAD@std@@@std@@SAXAEAV?$allocator@PEAPEAD@1@QEAPEAPEAD$$QEAPEAPEAD@Z
	??$construct@PEAUCUgraphNode_st@@$$V@?$_Default_allocator_traits@V?$allocator@PEAUCUgraphNode_st@@@std@@@std@@SAXAEAV?$allocator@PEAUCUgraphNode_st@@@1@QEAPEAUCUgraphNode_st@@@Z
	??$construct@PEAUCUgraphNode_st@@PEAU1@@?$_Default_allocator_traits@V?$allocator@PEAUCUgraphNode_st@@@std@@@std@@SAXAEAV?$allocator@PEAUCUgraphNode_st@@@1@QEAPEAUCUgraphNode_st@@$$QEAPEAU3@@Z
	??$construct@PEAUggml_backend_device@@AEBQEAU1@@?$_Default_allocator_traits@V?$allocator@PEAUggml_backend_device@@@std@@@std@@SAXAEAV?$allocator@PEAUggml_backend_device@@@1@QEAPEAUggml_backend_device@@AEBQEAU3@@Z
	??$construct@PEAUggml_backend_device@@PEAU1@@?$_Default_allocator_traits@V?$allocator@PEAUggml_backend_device@@@std@@@std@@SAXAEAV?$allocator@PEAUggml_backend_device@@@1@QEAPEAUggml_backend_device@@$$QEAPEAU3@@Z
	??$construct@PEAUggml_tensor_extra_gpu@@AEBQEAU1@@?$_Default_allocator_traits@V?$allocator@PEAUggml_tensor_extra_gpu@@@std@@@std@@SAXAEAV?$allocator@PEAUggml_tensor_extra_gpu@@@1@QEAPEAUggml_tensor_extra_gpu@@AEBQEAU3@@Z
	??$construct@PEAUggml_tensor_extra_gpu@@PEAU1@@?$_Default_allocator_traits@V?$allocator@PEAUggml_tensor_extra_gpu@@@std@@@std@@SAXAEAV?$allocator@PEAUggml_tensor_extra_gpu@@@1@QEAPEAUggml_tensor_extra_gpu@@$$QEAPEAU3@@Z
	??$construct@PEAXAEBQEAX@?$_Default_allocator_traits@V?$allocator@PEAX@std@@@std@@SAXAEAV?$allocator@PEAX@1@QEAPEAXAEBQEAX@Z
	??$construct@PEAXPEAX@?$_Default_allocator_traits@V?$allocator@PEAX@std@@@std@@SAXAEAV?$allocator@PEAX@1@QEAPEAX$$QEAPEAX@Z
	??$construct@U?$pair@$$CBU?$pair@HV?$array@M$0BA@@std@@@std@@Uggml_backend_buffer_type@@@std@@U?$pair@HV?$array@M$0BA@@std@@@2@AEAUggml_backend_buffer_type@@@?$_Default_allocator_traits@V?$allocator@U?$_Tree_node@U?$pair@$$CBU?$pair@HV?$array@M$0BA@@std@@@std@@Uggml_backend_buffer_type@@@std@@PEAX@std@@@std@@@std@@SAXAEAV?$allocator@U?$_Tree_node@U?$pair@$$CBU?$pair@HV?$array@M$0BA@@std@@@std@@Uggml_backend_buffer_type@@@std@@PEAX@std@@@1@QEAU?$pair@$$CBU?$pair@HV?$array@M$0BA@@std@@@std@@Uggml_backend_buffer_type@@@1@$$QEAU?$pair@HV?$array@M$0BA@@std@@@1@AEAUggml_backend_buffer_type@@@Z
	??$construct@UcudaKernelNodeParams@@$$V@?$_Default_allocator_traits@V?$allocator@UcudaKernelNodeParams@@@std@@@std@@SAXAEAV?$allocator@UcudaKernelNodeParams@@@1@QEAUcudaKernelNodeParams@@@Z
	??$construct@UcudaKernelNodeParams@@U1@@?$_Default_allocator_traits@V?$allocator@UcudaKernelNodeParams@@@std@@@std@@SAXAEAV?$allocator@UcudaKernelNodeParams@@@1@QEAUcudaKernelNodeParams@@$$QEAU3@@Z
	??$construct@Uggml_backend_feature@@U1@@?$_Default_allocator_traits@V?$allocator@Uggml_backend_feature@@@std@@@std@@SAXAEAV?$allocator@Uggml_backend_feature@@@1@QEAUggml_backend_feature@@$$QEAU3@@Z
	??$construct@Uggml_graph_node_properties@@$$V@?$_Default_allocator_traits@V?$allocator@Uggml_graph_node_properties@@@std@@@std@@SAXAEAV?$allocator@Uggml_graph_node_properties@@@1@QEAUggml_graph_node_properties@@@Z
	??$construct@Uggml_graph_node_properties@@U1@@?$_Default_allocator_traits@V?$allocator@Uggml_graph_node_properties@@@std@@@std@@SAXAEAV?$allocator@Uggml_graph_node_properties@@@1@QEAUggml_graph_node_properties@@$$QEAU3@@Z
	??$count@V?$_Vector_iterator@V?$_Vector_val@U?$_Simple_types@PEAX@std@@@std@@@std@@PEAX@std@@YA_JV?$_Vector_iterator@V?$_Vector_val@U?$_Simple_types@PEAX@std@@@std@@@0@0AEBQEAX@Z
	??$cudaFuncGetAttributes@X@@YA?AW4cudaError@@PEAUcudaFuncAttributes@@PEAX@Z
	??$cudaOccupancyMaxActiveBlocksPerMultiprocessor@P6AXPEBMPEAM_KU?$GridEvenShare@_K@CUB_200500_890_NS@cub@@U?$plus@X@__4@std@cuda@@U__identity@567@@Z@@YA?AW4cudaError@@PEAHP6AXPEBMPEAM_KU?$GridEvenShare@_K@CUB_200500_890_NS@cub@@U?$plus@X@__4@std@cuda@@U__identity@567@@ZH3@Z
	??$destroy@U?$pair@$$CBU?$pair@HV?$array@M$0BA@@std@@@std@@Uggml_backend_buffer_type@@@std@@@?$_Default_allocator_traits@V?$allocator@U?$_Tree_node@U?$pair@$$CBU?$pair@HV?$array@M$0BA@@std@@@std@@Uggml_backend_buffer_type@@@std@@PEAX@std@@@std@@@std@@SAXAEAV?$allocator@U?$_Tree_node@U?$pair@$$CBU?$pair@HV?$array@M$0BA@@std@@@std@@Uggml_backend_buffer_type@@@std@@PEAX@std@@@1@QEAU?$pair@$$CBU?$pair@HV?$array@M$0BA@@std@@@std@@Uggml_backend_buffer_type@@@1@@Z
	??$doit@P6AXPEAM0HU?$plus@X@__4@std@cuda@@MU__identity@234@@ZPEAMPEAMHU1234@MU5234@@triple_chevron@launcher@cuda_cub@THRUST_200500_890_NS@thrust@@QEBA?AW4cudaError@@P6AXPEAM0HU?$plus@X@__4@std@cuda@@MU__identity@789@@ZAEBQEAM4AEBHAEBU6789@AEBMAEBU__identity@789@@Z
	??$doit@P6AXPEBMPEAM_KU?$GridEvenShare@_K@CUB_200500_890_NS@cub@@U?$plus@X@__4@std@cuda@@U__identity@567@@ZPEBMPEAM_KU123@U4567@U8567@@triple_chevron@launcher@cuda_cub@THRUST_200500_890_NS@thrust@@QEBA?AW4cudaError@@P6AXPEBMPEAM_KU?$GridEvenShare@_K@CUB_200500_890_NS@cub@@U?$plus@X@__4@std@cuda@@U__identity@__4@std@cuda@@@ZAEBQEBMAEBQEAMAEB_KAEBU678@AEBU9__4@std@cuda@@AEBU__identity@__4@std@cuda@@@Z
	??$doit@P6AXPEBMPEAM_KU?$plus@X@__4@std@cuda@@MU__identity@234@@ZPEBMPEAM_KU1234@MU5234@@triple_chevron@launcher@cuda_cub@THRUST_200500_890_NS@thrust@@QEBA?AW4cudaError@@P6AXPEBMPEAM_KU?$plus@X@__4@std@cuda@@MU__identity@789@@ZAEBQEBMAEBQEAMAEB_KAEBU6789@AEBMAEBU__identity@789@@Z
	??$doit_host@P6AXPEAM0HU?$plus@X@__4@std@cuda@@MU__identity@234@@ZPEAMPEAMHU1234@MU5234@@triple_chevron@launcher@cuda_cub@THRUST_200500_890_NS@thrust@@QEBA?AW4cudaError@@P6AXPEAM0HU?$plus@X@__4@std@cuda@@MU__identity@789@@ZAEBQEAM4AEBHAEBU6789@AEBMAEBU__identity@789@@Z
	??$doit_host@P6AXPEBMPEAM_KU?$GridEvenShare@_K@CUB_200500_890_NS@cub@@U?$plus@X@__4@std@cuda@@U__identity@567@@ZPEBMPEAM_KU123@U4567@U8567@@triple_chevron@launcher@cuda_cub@THRUST_200500_890_NS@thrust@@QEBA?AW4cudaError@@P6AXPEBMPEAM_KU?$GridEvenShare@_K@CUB_200500_890_NS@cub@@U?$plus@X@__4@std@cuda@@U__identity@__4@std@cuda@@@ZAEBQEBMAEBQEAMAEB_KAEBU678@AEBU9__4@std@cuda@@AEBU__identity@__4@std@cuda@@@Z
	??$doit_host@P6AXPEBMPEAM_KU?$plus@X@__4@std@cuda@@MU__identity@234@@ZPEBMPEAM_KU1234@MU5234@@triple_chevron@launcher@cuda_cub@THRUST_200500_890_NS@thrust@@QEBA?AW4cudaError@@P6AXPEBMPEAM_KU?$plus@X@__4@std@cuda@@MU__identity@789@@ZAEBQEBMAEBQEAMAEB_KAEBU6789@AEBMAEBU__identity@789@@Z
	??$emplace@AEBVevent_attributes@v1@nvtx3@@$0A@@?$optional@V?$scoped_range_in@UNVTXCCCLDomain@detail@CUB_200500_890_NS@cub@@@v1@nvtx3@@@__4@std@cuda@@QEAAAEAV?$scoped_range_in@UNVTXCCCLDomain@detail@CUB_200500_890_NS@cub@@@v1@nvtx3@@AEBVevent_attributes@56@@Z
	??$emplace@U?$pair@HV?$array@M$0BA@@std@@@std@@AEAUggml_backend_buffer_type@@@?$_Tree@V?$_Tmap_traits@U?$pair@HV?$array@M$0BA@@std@@@std@@Uggml_backend_buffer_type@@U?$less@U?$pair@HV?$array@M$0BA@@std@@@std@@@2@V?$allocator@U?$pair@$$CBU?$pair@HV?$array@M$0BA@@std@@@std@@Uggml_backend_buffer_type@@@std@@@2@$0A@@std@@@std@@QEAA?AU?$pair@V?$_Tree_iterator@V?$_Tree_val@U?$_Tree_simple_types@U?$pair@$$CBU?$pair@HV?$array@M$0BA@@std@@@std@@Uggml_backend_buffer_type@@@std@@@std@@@std@@@std@@_N@1@$$QEAU?$pair@HV?$array@M$0BA@@std@@@1@AEAUggml_backend_buffer_type@@@Z
	??$end@D$0BF@@std@@YAPEADAEAY0BF@D@Z
	??$exchange@PEAU?$_Tree_node@U?$pair@$$CBU?$pair@HV?$array@M$0BA@@std@@@std@@Uggml_backend_buffer_type@@@std@@PEAX@std@@$$T@std@@YAPEAU?$_Tree_node@U?$pair@$$CBU?$pair@HV?$array@M$0BA@@std@@@std@@Uggml_backend_buffer_type@@@std@@PEAX@0@AEAPEAU10@$$QEA$$T@Z
	??$exchange@PEAU?$_Tree_node@U?$pair@$$CBU?$pair@HV?$array@M$0BA@@std@@@std@@Uggml_backend_buffer_type@@@std@@PEAX@std@@AEAPEAU12@@std@@YAPEAU?$_Tree_node@U?$pair@$$CBU?$pair@HV?$array@M$0BA@@std@@@std@@Uggml_backend_buffer_type@@@std@@PEAX@0@AEAPEAU10@0@Z
	??$exchange@PEAUggml_backend_feature@@$$T@std@@YAPEAUggml_backend_feature@@AEAPEAU1@$$QEA$$T@Z
	??$exchange@PEAUggml_cuda_graph@@AEAPEAU1@@std@@YAPEAUggml_cuda_graph@@AEAPEAU1@0@Z
	??$exchange@PEAUggml_cuda_pool@@$$T@std@@YAPEAUggml_cuda_pool@@AEAPEAU1@$$QEA$$T@Z
	??$exchange@PEAUggml_cuda_pool@@AEAPEAU1@@std@@YAPEAUggml_cuda_pool@@AEAPEAU1@0@Z
	??$find@V?$_Vector_iterator@V?$_Vector_val@U?$_Simple_types@PEAX@std@@@std@@@std@@PEAX@std@@YA?AV?$_Vector_iterator@V?$_Vector_val@U?$_Simple_types@PEAX@std@@@std@@@0@V10@V10@AEBQEAX@Z
	??$forward@AEAH@std@@YAAEAHAEAH@Z
	??$forward@AEAPEAD@std@@YAAEAPEADAEAPEAD@Z
	??$forward@AEAPEAU?$_Tree_node@U?$pair@$$CBU?$pair@HV?$array@M$0BA@@std@@@std@@Uggml_backend_buffer_type@@@std@@PEAX@std@@@std@@YAAEAPEAU?$_Tree_node@U?$pair@$$CBU?$pair@HV?$array@M$0BA@@std@@@std@@Uggml_backend_buffer_type@@@std@@PEAX@0@AEAPEAU10@@Z
	??$forward@AEAPEAUggml_cuda_pool@@@std@@YAAEAPEAUggml_cuda_pool@@AEAPEAU1@@Z
	??$forward@AEAUggml_backend_buffer_type@@@std@@YAAEAUggml_backend_buffer_type@@AEAU1@@Z
	??$forward@AEAV?$array@M$0BA@@std@@@std@@YAAEAV?$array@M$0BA@@0@AEAV10@@Z
	??$forward@AEBQEAD@std@@YAAEBQEADAEBQEAD@Z
	??$forward@AEBQEAU?$_Tree_node@U?$pair@$$CBU?$pair@HV?$array@M$0BA@@std@@@std@@Uggml_backend_buffer_type@@@std@@PEAX@std@@@std@@YAAEBQEAU?$_Tree_node@U?$pair@$$CBU?$pair@HV?$array@M$0BA@@std@@@std@@Uggml_backend_buffer_type@@@std@@PEAX@0@AEBQEAU10@@Z
	??$forward@AEBQEAUggml_backend_device@@@std@@YAAEBQEAUggml_backend_device@@AEBQEAU1@@Z
	??$forward@AEBQEAUggml_tensor_extra_gpu@@@std@@YAAEBQEAUggml_tensor_extra_gpu@@AEBQEAU1@@Z
	??$forward@AEBQEAX@std@@YAAEBQEAXAEBQEAX@Z
	??$forward@AEBU?$less@U?$pair@HV?$array@M$0BA@@std@@@std@@@std@@@std@@YAAEBU?$less@U?$pair@HV?$array@M$0BA@@std@@@std@@@0@AEBU10@@Z
	??$forward@AEBV?$allocator@D@std@@@std@@YAAEBV?$allocator@D@0@AEBV10@@Z
	??$forward@AEBVevent_attributes@v1@nvtx3@@@__4@std@cuda@@YAAEBVevent_attributes@v1@nvtx3@@AEBV345@@Z
	??$forward@AEB_N@std@@YAAEB_NAEB_N@Z
	??$forward@PEAPEAD@std@@YA$$QEAPEAPEADAEAPEAPEAD@Z
	??$forward@PEAPEAX@std@@YA$$QEAPEAPEAXAEAPEAPEAX@Z
	??$forward@PEAU?$_Tree_node@U?$pair@$$CBU?$pair@HV?$array@M$0BA@@std@@@std@@Uggml_backend_buffer_type@@@std@@PEAX@std@@@std@@YA$$QEAPEAU?$_Tree_node@U?$pair@$$CBU?$pair@HV?$array@M$0BA@@std@@@std@@Uggml_backend_buffer_type@@@std@@PEAX@0@AEAPEAU10@@Z
	??$forward@PEAUCUgraphNode_st@@@std@@YA$$QEAPEAUCUgraphNode_st@@AEAPEAU1@@Z
	??$forward@PEAUggml_backend_device@@@std@@YA$$QEAPEAUggml_backend_device@@AEAPEAU1@@Z
	??$forward@PEAUggml_backend_feature@@@std@@YA$$QEAPEAUggml_backend_feature@@AEAPEAU1@@Z
	??$forward@PEAUggml_cuda_pool@@@std@@YA$$QEAPEAUggml_cuda_pool@@AEAPEAU1@@Z
	??$forward@PEAUggml_tensor_extra_gpu@@@std@@YA$$QEAPEAUggml_tensor_extra_gpu@@AEAPEAU1@@Z
	??$forward@PEAX@std@@YA$$QEAPEAXAEAPEAX@Z
	??$forward@U?$default_delete@Uggml_cuda_pool@@@std@@@std@@YA$$QEAU?$default_delete@Uggml_cuda_pool@@@0@AEAU10@@Z
	??$forward@U?$pair@HV?$array@M$0BA@@std@@@std@@@std@@YA$$QEAU?$pair@HV?$array@M$0BA@@std@@@0@AEAU10@@Z
	??$forward@U_Zero_then_variadic_args_t@std@@@std@@YA$$QEAU_Zero_then_variadic_args_t@0@AEAU10@@Z
	??$forward@UcudaKernelNodeParams@@@std@@YA$$QEAUcudaKernelNodeParams@@AEAU1@@Z
	??$forward@Uggml_backend_feature@@@std@@YA$$QEAUggml_backend_feature@@AEAU1@@Z
	??$forward@Uggml_graph_node_properties@@@std@@YA$$QEAUggml_graph_node_properties@@AEAU1@@Z
	??$forward@V<lambda_b4cbd73692cf29fbda2a019b404e4e88>@@@__4@std@cuda@@YA$$QEAV<lambda_b4cbd73692cf29fbda2a019b404e4e88>@@AEAV3@@Z
	??$forward@V?$_Tree_iterator@V?$_Tree_val@U?$_Tree_simple_types@U?$pair@$$CBU?$pair@HV?$array@M$0BA@@std@@@std@@Uggml_backend_buffer_type@@@std@@@std@@@std@@@std@@@std@@YA$$QEAV?$_Tree_iterator@V?$_Tree_val@U?$_Tree_simple_types@U?$pair@$$CBU?$pair@HV?$array@M$0BA@@std@@@std@@Uggml_backend_buffer_type@@@std@@@std@@@std@@@0@AEAV10@@Z
	??$forward@V?$allocator@D@std@@@std@@YA$$QEAV?$allocator@D@0@AEAV10@@Z
	??$forward@V?$allocator@Uggml_backend_feature@@@std@@@std@@YA$$QEAV?$allocator@Uggml_backend_feature@@@0@AEAV10@@Z
	??$forward@_N@std@@YA$$QEA_NAEA_N@Z
	??$get@UNVTXCCCLDomain@detail@CUB_200500_890_NS@cub@@$0A@@domain@v1@nvtx3@@SAAEBV012@XZ
	??$ggml_cuda_flash_attn_ext_vec_f16_case@$0BAA@$00$00@@YAXAEAUggml_backend_cuda_context@@PEAUggml_tensor@@@Z
	??$ggml_cuda_flash_attn_ext_vec_f16_case@$0EA@$00$00@@YAXAEAUggml_backend_cuda_context@@PEAUggml_tensor@@@Z
	??$ggml_cuda_flash_attn_ext_vec_f16_case@$0IA@$00$00@@YAXAEAUggml_backend_cuda_context@@PEAUggml_tensor@@@Z
	??$ggml_cuda_flash_attn_ext_vec_f16_case@$0IA@$01$01@@YAXAEAUggml_backend_cuda_context@@PEAUggml_tensor@@@Z
	??$ggml_cuda_flash_attn_ext_vec_f16_case@$0IA@$07$07@@YAXAEAUggml_backend_cuda_context@@PEAUggml_tensor@@@Z
	??$ggml_cuda_flash_attn_ext_vec_f16_case_impl@$0BAA@$00$03$00$00$00@@YAXAEAUggml_backend_cuda_context@@PEAUggml_tensor@@@Z
	??$ggml_cuda_flash_attn_ext_vec_f16_case_impl@$0BAA@$00$03$00$00$0A@@@YAXAEAUggml_backend_cuda_context@@PEAUggml_tensor@@@Z
	??$ggml_cuda_flash_attn_ext_vec_f16_case_impl@$0BAA@$01$03$00$00$00@@YAXAEAUggml_backend_cuda_context@@PEAUggml_tensor@@@Z
	??$ggml_cuda_flash_attn_ext_vec_f16_case_impl@$0BAA@$01$03$00$00$0A@@@YAXAEAUggml_backend_cuda_context@@PEAUggml_tensor@@@Z
	??$ggml_cuda_flash_attn_ext_vec_f16_case_impl@$0BAA@$03$03$00$00$00@@YAXAEAUggml_backend_cuda_context@@PEAUggml_tensor@@@Z
	??$ggml_cuda_flash_attn_ext_vec_f16_case_impl@$0BAA@$03$03$00$00$0A@@@YAXAEAUggml_backend_cuda_context@@PEAUggml_tensor@@@Z
	??$ggml_cuda_flash_attn_ext_vec_f16_case_impl@$0BAA@$07$00$00$00$00@@YAXAEAUggml_backend_cuda_context@@PEAUggml_tensor@@@Z
	??$ggml_cuda_flash_attn_ext_vec_f16_case_impl@$0BAA@$07$00$00$00$0A@@@YAXAEAUggml_backend_cuda_context@@PEAUggml_tensor@@@Z
	??$ggml_cuda_flash_attn_ext_vec_f16_case_impl@$0BAA@$07$03$00$00$00@@YAXAEAUggml_backend_cuda_context@@PEAUggml_tensor@@@Z
	??$ggml_cuda_flash_attn_ext_vec_f16_case_impl@$0BAA@$07$03$00$00$0A@@@YAXAEAUggml_backend_cuda_context@@PEAUggml_tensor@@@Z
	??$ggml_cuda_flash_attn_ext_vec_f16_case_impl@$0EA@$00$03$00$00$00@@YAXAEAUggml_backend_cuda_context@@PEAUggml_tensor@@@Z
	??$ggml_cuda_flash_attn_ext_vec_f16_case_impl@$0EA@$00$03$00$00$0A@@@YAXAEAUggml_backend_cuda_context@@PEAUggml_tensor@@@Z
	??$ggml_cuda_flash_attn_ext_vec_f16_case_impl@$0EA@$01$03$00$00$00@@YAXAEAUggml_backend_cuda_context@@PEAUggml_tensor@@@Z
	??$ggml_cuda_flash_attn_ext_vec_f16_case_impl@$0EA@$01$03$00$00$0A@@@YAXAEAUggml_backend_cuda_context@@PEAUggml_tensor@@@Z
	??$ggml_cuda_flash_attn_ext_vec_f16_case_impl@$0EA@$03$03$00$00$00@@YAXAEAUggml_backend_cuda_context@@PEAUggml_tensor@@@Z
	??$ggml_cuda_flash_attn_ext_vec_f16_case_impl@$0EA@$03$03$00$00$0A@@@YAXAEAUggml_backend_cuda_context@@PEAUggml_tensor@@@Z
	??$ggml_cuda_flash_attn_ext_vec_f16_case_impl@$0EA@$07$00$00$00$00@@YAXAEAUggml_backend_cuda_context@@PEAUggml_tensor@@@Z
	??$ggml_cuda_flash_attn_ext_vec_f16_case_impl@$0EA@$07$00$00$00$0A@@@YAXAEAUggml_backend_cuda_context@@PEAUggml_tensor@@@Z
	??$ggml_cuda_flash_attn_ext_vec_f16_case_impl@$0EA@$07$03$00$00$00@@YAXAEAUggml_backend_cuda_context@@PEAUggml_tensor@@@Z
	??$ggml_cuda_flash_attn_ext_vec_f16_case_impl@$0EA@$07$03$00$00$0A@@@YAXAEAUggml_backend_cuda_context@@PEAUggml_tensor@@@Z
	??$ggml_cuda_flash_attn_ext_vec_f16_case_impl@$0IA@$00$03$00$00$00@@YAXAEAUggml_backend_cuda_context@@PEAUggml_tensor@@@Z
	??$ggml_cuda_flash_attn_ext_vec_f16_case_impl@$0IA@$00$03$00$00$0A@@@YAXAEAUggml_backend_cuda_context@@PEAUggml_tensor@@@Z
	??$ggml_cuda_flash_attn_ext_vec_f16_case_impl@$0IA@$00$03$01$01$00@@YAXAEAUggml_backend_cuda_context@@PEAUggml_tensor@@@Z
	??$ggml_cuda_flash_attn_ext_vec_f16_case_impl@$0IA@$00$03$01$01$0A@@@YAXAEAUggml_backend_cuda_context@@PEAUggml_tensor@@@Z
	??$ggml_cuda_flash_attn_ext_vec_f16_case_impl@$0IA@$00$03$07$07$00@@YAXAEAUggml_backend_cuda_context@@PEAUggml_tensor@@@Z
	??$ggml_cuda_flash_attn_ext_vec_f16_case_impl@$0IA@$00$03$07$07$0A@@@YAXAEAUggml_backend_cuda_context@@PEAUggml_tensor@@@Z
	??$ggml_cuda_flash_attn_ext_vec_f16_case_impl@$0IA@$01$03$00$00$00@@YAXAEAUggml_backend_cuda_context@@PEAUggml_tensor@@@Z
	??$ggml_cuda_flash_attn_ext_vec_f16_case_impl@$0IA@$01$03$00$00$0A@@@YAXAEAUggml_backend_cuda_context@@PEAUggml_tensor@@@Z
	??$ggml_cuda_flash_attn_ext_vec_f16_case_impl@$0IA@$01$03$01$01$00@@YAXAEAUggml_backend_cuda_context@@PEAUggml_tensor@@@Z
	??$ggml_cuda_flash_attn_ext_vec_f16_case_impl@$0IA@$01$03$01$01$0A@@@YAXAEAUggml_backend_cuda_context@@PEAUggml_tensor@@@Z
	??$ggml_cuda_flash_attn_ext_vec_f16_case_impl@$0IA@$01$03$07$07$00@@YAXAEAUggml_backend_cuda_context@@PEAUggml_tensor@@@Z
	??$ggml_cuda_flash_attn_ext_vec_f16_case_impl@$0IA@$01$03$07$07$0A@@@YAXAEAUggml_backend_cuda_context@@PEAUggml_tensor@@@Z
	??$ggml_cuda_flash_attn_ext_vec_f16_case_impl@$0IA@$03$03$00$00$00@@YAXAEAUggml_backend_cuda_context@@PEAUggml_tensor@@@Z
	??$ggml_cuda_flash_attn_ext_vec_f16_case_impl@$0IA@$03$03$00$00$0A@@@YAXAEAUggml_backend_cuda_context@@PEAUggml_tensor@@@Z
	??$ggml_cuda_flash_attn_ext_vec_f16_case_impl@$0IA@$03$03$01$01$00@@YAXAEAUggml_backend_cuda_context@@PEAUggml_tensor@@@Z
	??$ggml_cuda_flash_attn_ext_vec_f16_case_impl@$0IA@$03$03$01$01$0A@@@YAXAEAUggml_backend_cuda_context@@PEAUggml_tensor@@@Z
	??$ggml_cuda_flash_attn_ext_vec_f16_case_impl@$0IA@$03$03$07$07$00@@YAXAEAUggml_backend_cuda_context@@PEAUggml_tensor@@@Z
	??$ggml_cuda_flash_attn_ext_vec_f16_case_impl@$0IA@$03$03$07$07$0A@@@YAXAEAUggml_backend_cuda_context@@PEAUggml_tensor@@@Z
	??$ggml_cuda_flash_attn_ext_vec_f16_case_impl@$0IA@$07$00$00$00$00@@YAXAEAUggml_backend_cuda_context@@PEAUggml_tensor@@@Z
	??$ggml_cuda_flash_attn_ext_vec_f16_case_impl@$0IA@$07$00$00$00$0A@@@YAXAEAUggml_backend_cuda_context@@PEAUggml_tensor@@@Z
	??$ggml_cuda_flash_attn_ext_vec_f16_case_impl@$0IA@$07$00$01$01$00@@YAXAEAUggml_backend_cuda_context@@PEAUggml_tensor@@@Z
	??$ggml_cuda_flash_attn_ext_vec_f16_case_impl@$0IA@$07$00$01$01$0A@@@YAXAEAUggml_backend_cuda_context@@PEAUggml_tensor@@@Z
	??$ggml_cuda_flash_attn_ext_vec_f16_case_impl@$0IA@$07$00$07$07$00@@YAXAEAUggml_backend_cuda_context@@PEAUggml_tensor@@@Z
	??$ggml_cuda_flash_attn_ext_vec_f16_case_impl@$0IA@$07$00$07$07$0A@@@YAXAEAUggml_backend_cuda_context@@PEAUggml_tensor@@@Z
	??$ggml_cuda_flash_attn_ext_vec_f16_case_impl@$0IA@$07$03$00$00$00@@YAXAEAUggml_backend_cuda_context@@PEAUggml_tensor@@@Z
	??$ggml_cuda_flash_attn_ext_vec_f16_case_impl@$0IA@$07$03$00$00$0A@@@YAXAEAUggml_backend_cuda_context@@PEAUggml_tensor@@@Z
	??$ggml_cuda_flash_attn_ext_vec_f16_case_impl@$0IA@$07$03$01$01$00@@YAXAEAUggml_backend_cuda_context@@PEAUggml_tensor@@@Z
	??$ggml_cuda_flash_attn_ext_vec_f16_case_impl@$0IA@$07$03$01$01$0A@@@YAXAEAUggml_backend_cuda_context@@PEAUggml_tensor@@@Z
	??$ggml_cuda_flash_attn_ext_vec_f16_case_impl@$0IA@$07$03$07$07$00@@YAXAEAUggml_backend_cuda_context@@PEAUggml_tensor@@@Z
	??$ggml_cuda_flash_attn_ext_vec_f16_case_impl@$0IA@$07$03$07$07$0A@@@YAXAEAUggml_backend_cuda_context@@PEAUggml_tensor@@@Z
	??$ggml_cuda_flash_attn_ext_vec_f32_case@$0BAA@$00$00@@YAXAEAUggml_backend_cuda_context@@PEAUggml_tensor@@@Z
	??$ggml_cuda_flash_attn_ext_vec_f32_case@$0EA@$00$00@@YAXAEAUggml_backend_cuda_context@@PEAUggml_tensor@@@Z
	??$ggml_cuda_flash_attn_ext_vec_f32_case@$0IA@$00$00@@YAXAEAUggml_backend_cuda_context@@PEAUggml_tensor@@@Z
	??$ggml_cuda_flash_attn_ext_vec_f32_case@$0IA@$01$01@@YAXAEAUggml_backend_cuda_context@@PEAUggml_tensor@@@Z
	??$ggml_cuda_flash_attn_ext_vec_f32_case@$0IA@$07$07@@YAXAEAUggml_backend_cuda_context@@PEAUggml_tensor@@@Z
	??$ggml_cuda_flash_attn_ext_vec_f32_case_impl@$0BAA@$00$03$00$00$00@@YAXAEAUggml_backend_cuda_context@@PEAUggml_tensor@@@Z
	??$ggml_cuda_flash_attn_ext_vec_f32_case_impl@$0BAA@$00$03$00$00$0A@@@YAXAEAUggml_backend_cuda_context@@PEAUggml_tensor@@@Z
	??$ggml_cuda_flash_attn_ext_vec_f32_case_impl@$0BAA@$01$03$00$00$00@@YAXAEAUggml_backend_cuda_context@@PEAUggml_tensor@@@Z
	??$ggml_cuda_flash_attn_ext_vec_f32_case_impl@$0BAA@$01$03$00$00$0A@@@YAXAEAUggml_backend_cuda_context@@PEAUggml_tensor@@@Z
	??$ggml_cuda_flash_attn_ext_vec_f32_case_impl@$0BAA@$03$03$00$00$00@@YAXAEAUggml_backend_cuda_context@@PEAUggml_tensor@@@Z
	??$ggml_cuda_flash_attn_ext_vec_f32_case_impl@$0BAA@$03$03$00$00$0A@@@YAXAEAUggml_backend_cuda_context@@PEAUggml_tensor@@@Z
	??$ggml_cuda_flash_attn_ext_vec_f32_case_impl@$0BAA@$07$00$00$00$00@@YAXAEAUggml_backend_cuda_context@@PEAUggml_tensor@@@Z
	??$ggml_cuda_flash_attn_ext_vec_f32_case_impl@$0BAA@$07$00$00$00$0A@@@YAXAEAUggml_backend_cuda_context@@PEAUggml_tensor@@@Z
	??$ggml_cuda_flash_attn_ext_vec_f32_case_impl@$0BAA@$07$03$00$00$00@@YAXAEAUggml_backend_cuda_context@@PEAUggml_tensor@@@Z
	??$ggml_cuda_flash_attn_ext_vec_f32_case_impl@$0BAA@$07$03$00$00$0A@@@YAXAEAUggml_backend_cuda_context@@PEAUggml_tensor@@@Z
	??$ggml_cuda_flash_attn_ext_vec_f32_case_impl@$0EA@$00$03$00$00$00@@YAXAEAUggml_backend_cuda_context@@PEAUggml_tensor@@@Z
	??$ggml_cuda_flash_attn_ext_vec_f32_case_impl@$0EA@$00$03$00$00$0A@@@YAXAEAUggml_backend_cuda_context@@PEAUggml_tensor@@@Z
	??$ggml_cuda_flash_attn_ext_vec_f32_case_impl@$0EA@$01$03$00$00$00@@YAXAEAUggml_backend_cuda_context@@PEAUggml_tensor@@@Z
	??$ggml_cuda_flash_attn_ext_vec_f32_case_impl@$0EA@$01$03$00$00$0A@@@YAXAEAUggml_backend_cuda_context@@PEAUggml_tensor@@@Z
	??$ggml_cuda_flash_attn_ext_vec_f32_case_impl@$0EA@$03$03$00$00$00@@YAXAEAUggml_backend_cuda_context@@PEAUggml_tensor@@@Z
	??$ggml_cuda_flash_attn_ext_vec_f32_case_impl@$0EA@$03$03$00$00$0A@@@YAXAEAUggml_backend_cuda_context@@PEAUggml_tensor@@@Z
	??$ggml_cuda_flash_attn_ext_vec_f32_case_impl@$0EA@$07$00$00$00$00@@YAXAEAUggml_backend_cuda_context@@PEAUggml_tensor@@@Z
	??$ggml_cuda_flash_attn_ext_vec_f32_case_impl@$0EA@$07$00$00$00$0A@@@YAXAEAUggml_backend_cuda_context@@PEAUggml_tensor@@@Z
	??$ggml_cuda_flash_attn_ext_vec_f32_case_impl@$0EA@$07$03$00$00$00@@YAXAEAUggml_backend_cuda_context@@PEAUggml_tensor@@@Z
	??$ggml_cuda_flash_attn_ext_vec_f32_case_impl@$0EA@$07$03$00$00$0A@@@YAXAEAUggml_backend_cuda_context@@PEAUggml_tensor@@@Z
	??$ggml_cuda_flash_attn_ext_vec_f32_case_impl@$0IA@$00$03$00$00$00@@YAXAEAUggml_backend_cuda_context@@PEAUggml_tensor@@@Z
	??$ggml_cuda_flash_attn_ext_vec_f32_case_impl@$0IA@$00$03$00$00$0A@@@YAXAEAUggml_backend_cuda_context@@PEAUggml_tensor@@@Z
	??$ggml_cuda_flash_attn_ext_vec_f32_case_impl@$0IA@$00$03$01$01$00@@YAXAEAUggml_backend_cuda_context@@PEAUggml_tensor@@@Z
	??$ggml_cuda_flash_attn_ext_vec_f32_case_impl@$0IA@$00$03$01$01$0A@@@YAXAEAUggml_backend_cuda_context@@PEAUggml_tensor@@@Z
	??$ggml_cuda_flash_attn_ext_vec_f32_case_impl@$0IA@$00$03$07$07$00@@YAXAEAUggml_backend_cuda_context@@PEAUggml_tensor@@@Z
	??$ggml_cuda_flash_attn_ext_vec_f32_case_impl@$0IA@$00$03$07$07$0A@@@YAXAEAUggml_backend_cuda_context@@PEAUggml_tensor@@@Z
	??$ggml_cuda_flash_attn_ext_vec_f32_case_impl@$0IA@$01$03$00$00$00@@YAXAEAUggml_backend_cuda_context@@PEAUggml_tensor@@@Z
	??$ggml_cuda_flash_attn_ext_vec_f32_case_impl@$0IA@$01$03$00$00$0A@@@YAXAEAUggml_backend_cuda_context@@PEAUggml_tensor@@@Z
	??$ggml_cuda_flash_attn_ext_vec_f32_case_impl@$0IA@$01$03$01$01$00@@YAXAEAUggml_backend_cuda_context@@PEAUggml_tensor@@@Z
	??$ggml_cuda_flash_attn_ext_vec_f32_case_impl@$0IA@$01$03$01$01$0A@@@YAXAEAUggml_backend_cuda_context@@PEAUggml_tensor@@@Z
	??$ggml_cuda_flash_attn_ext_vec_f32_case_impl@$0IA@$01$03$07$07$00@@YAXAEAUggml_backend_cuda_context@@PEAUggml_tensor@@@Z
	??$ggml_cuda_flash_attn_ext_vec_f32_case_impl@$0IA@$01$03$07$07$0A@@@YAXAEAUggml_backend_cuda_context@@PEAUggml_tensor@@@Z
	??$ggml_cuda_flash_attn_ext_vec_f32_case_impl@$0IA@$03$03$00$00$00@@YAXAEAUggml_backend_cuda_context@@PEAUggml_tensor@@@Z
	??$ggml_cuda_flash_attn_ext_vec_f32_case_impl@$0IA@$03$03$00$00$0A@@@YAXAEAUggml_backend_cuda_context@@PEAUggml_tensor@@@Z
	??$ggml_cuda_flash_attn_ext_vec_f32_case_impl@$0IA@$03$03$01$01$00@@YAXAEAUggml_backend_cuda_context@@PEAUggml_tensor@@@Z
	??$ggml_cuda_flash_attn_ext_vec_f32_case_impl@$0IA@$03$03$01$01$0A@@@YAXAEAUggml_backend_cuda_context@@PEAUggml_tensor@@@Z
	??$ggml_cuda_flash_attn_ext_vec_f32_case_impl@$0IA@$03$03$07$07$00@@YAXAEAUggml_backend_cuda_context@@PEAUggml_tensor@@@Z
	??$ggml_cuda_flash_attn_ext_vec_f32_case_impl@$0IA@$03$03$07$07$0A@@@YAXAEAUggml_backend_cuda_context@@PEAUggml_tensor@@@Z
	??$ggml_cuda_flash_attn_ext_vec_f32_case_impl@$0IA@$07$00$00$00$00@@YAXAEAUggml_backend_cuda_context@@PEAUggml_tensor@@@Z
	??$ggml_cuda_flash_attn_ext_vec_f32_case_impl@$0IA@$07$00$00$00$0A@@@YAXAEAUggml_backend_cuda_context@@PEAUggml_tensor@@@Z
	??$ggml_cuda_flash_attn_ext_vec_f32_case_impl@$0IA@$07$00$01$01$00@@YAXAEAUggml_backend_cuda_context@@PEAUggml_tensor@@@Z
	??$ggml_cuda_flash_attn_ext_vec_f32_case_impl@$0IA@$07$00$01$01$0A@@@YAXAEAUggml_backend_cuda_context@@PEAUggml_tensor@@@Z
	??$ggml_cuda_flash_attn_ext_vec_f32_case_impl@$0IA@$07$00$07$07$00@@YAXAEAUggml_backend_cuda_context@@PEAUggml_tensor@@@Z
	??$ggml_cuda_flash_attn_ext_vec_f32_case_impl@$0IA@$07$00$07$07$0A@@@YAXAEAUggml_backend_cuda_context@@PEAUggml_tensor@@@Z
	??$ggml_cuda_flash_attn_ext_vec_f32_case_impl@$0IA@$07$03$00$00$00@@YAXAEAUggml_backend_cuda_context@@PEAUggml_tensor@@@Z
	??$ggml_cuda_flash_attn_ext_vec_f32_case_impl@$0IA@$07$03$00$00$0A@@@YAXAEAUggml_backend_cuda_context@@PEAUggml_tensor@@@Z
	??$ggml_cuda_flash_attn_ext_vec_f32_case_impl@$0IA@$07$03$01$01$00@@YAXAEAUggml_backend_cuda_context@@PEAUggml_tensor@@@Z
	??$ggml_cuda_flash_attn_ext_vec_f32_case_impl@$0IA@$07$03$01$01$0A@@@YAXAEAUggml_backend_cuda_context@@PEAUggml_tensor@@@Z
	??$ggml_cuda_flash_attn_ext_vec_f32_case_impl@$0IA@$07$03$07$07$00@@YAXAEAUggml_backend_cuda_context@@PEAUggml_tensor@@@Z
	??$ggml_cuda_flash_attn_ext_vec_f32_case_impl@$0IA@$07$03$07$07$0A@@@YAXAEAUggml_backend_cuda_context@@PEAUggml_tensor@@@Z
	??$ggml_cuda_flash_attn_ext_wmma_f16_case@$0BAA@$07U__half@@@@YAXAEAUggml_backend_cuda_context@@PEAUggml_tensor@@@Z
	??$ggml_cuda_flash_attn_ext_wmma_f16_case@$0BAA@$0BA@M@@YAXAEAUggml_backend_cuda_context@@PEAUggml_tensor@@@Z
	??$ggml_cuda_flash_attn_ext_wmma_f16_case@$0BAA@$0BA@U__half@@@@YAXAEAUggml_backend_cuda_context@@PEAUggml_tensor@@@Z
	??$ggml_cuda_flash_attn_ext_wmma_f16_case@$0BAA@$0CA@U__half@@@@YAXAEAUggml_backend_cuda_context@@PEAUggml_tensor@@@Z
	??$ggml_cuda_flash_attn_ext_wmma_f16_case@$0EA@$07U__half@@@@YAXAEAUggml_backend_cuda_context@@PEAUggml_tensor@@@Z
	??$ggml_cuda_flash_attn_ext_wmma_f16_case@$0EA@$0BA@M@@YAXAEAUggml_backend_cuda_context@@PEAUggml_tensor@@@Z
	??$ggml_cuda_flash_attn_ext_wmma_f16_case@$0EA@$0BA@U__half@@@@YAXAEAUggml_backend_cuda_context@@PEAUggml_tensor@@@Z
	??$ggml_cuda_flash_attn_ext_wmma_f16_case@$0EA@$0CA@M@@YAXAEAUggml_backend_cuda_context@@PEAUggml_tensor@@@Z
	??$ggml_cuda_flash_attn_ext_wmma_f16_case@$0EA@$0CA@U__half@@@@YAXAEAUggml_backend_cuda_context@@PEAUggml_tensor@@@Z
	??$ggml_cuda_flash_attn_ext_wmma_f16_case@$0FA@$0BA@M@@YAXAEAUggml_backend_cuda_context@@PEAUggml_tensor@@@Z
	??$ggml_cuda_flash_attn_ext_wmma_f16_case@$0FA@$0BA@U__half@@@@YAXAEAUggml_backend_cuda_context@@PEAUggml_tensor@@@Z
	??$ggml_cuda_flash_attn_ext_wmma_f16_case@$0FA@$0CA@M@@YAXAEAUggml_backend_cuda_context@@PEAUggml_tensor@@@Z
	??$ggml_cuda_flash_attn_ext_wmma_f16_case@$0FA@$0CA@U__half@@@@YAXAEAUggml_backend_cuda_context@@PEAUggml_tensor@@@Z
	??$ggml_cuda_flash_attn_ext_wmma_f16_case@$0GA@$07U__half@@@@YAXAEAUggml_backend_cuda_context@@PEAUggml_tensor@@@Z
	??$ggml_cuda_flash_attn_ext_wmma_f16_case@$0GA@$0BA@M@@YAXAEAUggml_backend_cuda_context@@PEAUggml_tensor@@@Z
	??$ggml_cuda_flash_attn_ext_wmma_f16_case@$0GA@$0BA@U__half@@@@YAXAEAUggml_backend_cuda_context@@PEAUggml_tensor@@@Z
	??$ggml_cuda_flash_attn_ext_wmma_f16_case@$0GA@$0CA@M@@YAXAEAUggml_backend_cuda_context@@PEAUggml_tensor@@@Z
	??$ggml_cuda_flash_attn_ext_wmma_f16_case@$0GA@$0CA@U__half@@@@YAXAEAUggml_backend_cuda_context@@PEAUggml_tensor@@@Z
	??$ggml_cuda_flash_attn_ext_wmma_f16_case@$0HA@$0BA@M@@YAXAEAUggml_backend_cuda_context@@PEAUggml_tensor@@@Z
	??$ggml_cuda_flash_attn_ext_wmma_f16_case@$0HA@$0BA@U__half@@@@YAXAEAUggml_backend_cuda_context@@PEAUggml_tensor@@@Z
	??$ggml_cuda_flash_attn_ext_wmma_f16_case@$0HA@$0CA@M@@YAXAEAUggml_backend_cuda_context@@PEAUggml_tensor@@@Z
	??$ggml_cuda_flash_attn_ext_wmma_f16_case@$0HA@$0CA@U__half@@@@YAXAEAUggml_backend_cuda_context@@PEAUggml_tensor@@@Z
	??$ggml_cuda_flash_attn_ext_wmma_f16_case@$0IA@$07U__half@@@@YAXAEAUggml_backend_cuda_context@@PEAUggml_tensor@@@Z
	??$ggml_cuda_flash_attn_ext_wmma_f16_case@$0IA@$0BA@M@@YAXAEAUggml_backend_cuda_context@@PEAUggml_tensor@@@Z
	??$ggml_cuda_flash_attn_ext_wmma_f16_case@$0IA@$0BA@U__half@@@@YAXAEAUggml_backend_cuda_context@@PEAUggml_tensor@@@Z
	??$ggml_cuda_flash_attn_ext_wmma_f16_case@$0IA@$0CA@M@@YAXAEAUggml_backend_cuda_context@@PEAUggml_tensor@@@Z
	??$ggml_cuda_flash_attn_ext_wmma_f16_case@$0IA@$0CA@U__half@@@@YAXAEAUggml_backend_cuda_context@@PEAUggml_tensor@@@Z
	??$launch_fattn@$0BAA@$00@@YAXAEAUggml_backend_cuda_context@@PEAUggml_tensor@@P6AXPEIBD222PEIAMPEIAUfloat2@@MMMMIMHHHHHHHHHHHHHHHHHHHHHHH@ZHH_N6@Z
	??$launch_fattn@$0BAA@$01@@YAXAEAUggml_backend_cuda_context@@PEAUggml_tensor@@P6AXPEIBD222PEIAMPEIAUfloat2@@MMMMIMHHHHHHHHHHHHHHHHHHHHHHH@ZHH_N6@Z
	??$launch_fattn@$0BAA@$03@@YAXAEAUggml_backend_cuda_context@@PEAUggml_tensor@@P6AXPEIBD222PEIAMPEIAUfloat2@@MMMMIMHHHHHHHHHHHHHHHHHHHHHHH@ZHH_N6@Z
	??$launch_fattn@$0EA@$00@@YAXAEAUggml_backend_cuda_context@@PEAUggml_tensor@@P6AXPEIBD222PEIAMPEIAUfloat2@@MMMMIMHHHHHHHHHHHHHHHHHHHHHHH@ZHH_N6@Z
	??$launch_fattn@$0EA@$01@@YAXAEAUggml_backend_cuda_context@@PEAUggml_tensor@@P6AXPEIBD222PEIAMPEIAUfloat2@@MMMMIMHHHHHHHHHHHHHHHHHHHHHHH@ZHH_N6@Z
	??$launch_fattn@$0EA@$03@@YAXAEAUggml_backend_cuda_context@@PEAUggml_tensor@@P6AXPEIBD222PEIAMPEIAUfloat2@@MMMMIMHHHHHHHHHHHHHHHHHHHHHHH@ZHH_N6@Z
	??$launch_fattn@$0FA@$00@@YAXAEAUggml_backend_cuda_context@@PEAUggml_tensor@@P6AXPEIBD222PEIAMPEIAUfloat2@@MMMMIMHHHHHHHHHHHHHHHHHHHHHHH@ZHH_N6@Z
	??$launch_fattn@$0FA@$01@@YAXAEAUggml_backend_cuda_context@@PEAUggml_tensor@@P6AXPEIBD222PEIAMPEIAUfloat2@@MMMMIMHHHHHHHHHHHHHHHHHHHHHHH@ZHH_N6@Z
	??$launch_fattn@$0FA@$03@@YAXAEAUggml_backend_cuda_context@@PEAUggml_tensor@@P6AXPEIBD222PEIAMPEIAUfloat2@@MMMMIMHHHHHHHHHHHHHHHHHHHHHHH@ZHH_N6@Z
	??$launch_fattn@$0GA@$00@@YAXAEAUggml_backend_cuda_context@@PEAUggml_tensor@@P6AXPEIBD222PEIAMPEIAUfloat2@@MMMMIMHHHHHHHHHHHHHHHHHHHHHHH@ZHH_N6@Z
	??$launch_fattn@$0GA@$01@@YAXAEAUggml_backend_cuda_context@@PEAUggml_tensor@@P6AXPEIBD222PEIAMPEIAUfloat2@@MMMMIMHHHHHHHHHHHHHHHHHHHHHHH@ZHH_N6@Z
	??$launch_fattn@$0GA@$03@@YAXAEAUggml_backend_cuda_context@@PEAUggml_tensor@@P6AXPEIBD222PEIAMPEIAUfloat2@@MMMMIMHHHHHHHHHHHHHHHHHHHHHHH@ZHH_N6@Z
	??$launch_fattn@$0HA@$00@@YAXAEAUggml_backend_cuda_context@@PEAUggml_tensor@@P6AXPEIBD222PEIAMPEIAUfloat2@@MMMMIMHHHHHHHHHHHHHHHHHHHHHHH@ZHH_N6@Z
	??$launch_fattn@$0HA@$01@@YAXAEAUggml_backend_cuda_context@@PEAUggml_tensor@@P6AXPEIBD222PEIAMPEIAUfloat2@@MMMMIMHHHHHHHHHHHHHHHHHHHHHHH@ZHH_N6@Z
	??$launch_fattn@$0HA@$03@@YAXAEAUggml_backend_cuda_context@@PEAUggml_tensor@@P6AXPEIBD222PEIAMPEIAUfloat2@@MMMMIMHHHHHHHHHHHHHHHHHHHHHHH@ZHH_N6@Z
	??$launch_fattn@$0IA@$00@@YAXAEAUggml_backend_cuda_context@@PEAUggml_tensor@@P6AXPEIBD222PEIAMPEIAUfloat2@@MMMMIMHHHHHHHHHHHHHHHHHHHHHHH@ZHH_N6@Z
	??$launch_fattn@$0IA@$01@@YAXAEAUggml_backend_cuda_context@@PEAUggml_tensor@@P6AXPEIBD222PEIAMPEIAUfloat2@@MMMMIMHHHHHHHHHHHHHHHHHHHHHHH@ZHH_N6@Z
	??$launch_fattn@$0IA@$03@@YAXAEAUggml_backend_cuda_context@@PEAUggml_tensor@@P6AXPEIBD222PEIAMPEIAUfloat2@@MMMMIMHHHHHHHHHHHHHHHHHHHHHHH@ZHH_N6@Z
	??$launch_fattn_tile_f16_64_128@$0BA@$03$00@@YAXAEAUggml_backend_cuda_context@@PEAUggml_tensor@@@Z
	??$launch_fattn_tile_f16_64_128@$0BA@$03$0A@@@YAXAEAUggml_backend_cuda_context@@PEAUggml_tensor@@@Z
	??$launch_fattn_tile_f16_64_128@$0CA@$00$00@@YAXAEAUggml_backend_cuda_context@@PEAUggml_tensor@@@Z
	??$launch_fattn_tile_f16_64_128@$0CA@$00$0A@@@YAXAEAUggml_backend_cuda_context@@PEAUggml_tensor@@@Z
	??$launch_fattn_tile_f16_64_128@$0CA@$03$00@@YAXAEAUggml_backend_cuda_context@@PEAUggml_tensor@@@Z
	??$launch_fattn_tile_f16_64_128@$0CA@$03$0A@@@YAXAEAUggml_backend_cuda_context@@PEAUggml_tensor@@@Z
	??$launch_fattn_tile_f32_64_128@$0BA@$03$00@@YAXAEAUggml_backend_cuda_context@@PEAUggml_tensor@@@Z
	??$launch_fattn_tile_f32_64_128@$0BA@$03$0A@@@YAXAEAUggml_backend_cuda_context@@PEAUggml_tensor@@@Z
	??$launch_fattn_tile_f32_64_128@$0CA@$00$00@@YAXAEAUggml_backend_cuda_context@@PEAUggml_tensor@@@Z
	??$launch_fattn_tile_f32_64_128@$0CA@$00$0A@@@YAXAEAUggml_backend_cuda_context@@PEAUggml_tensor@@@Z
	??$launch_fattn_tile_f32_64_128@$0CA@$03$00@@YAXAEAUggml_backend_cuda_context@@PEAUggml_tensor@@@Z
	??$launch_fattn_tile_f32_64_128@$0CA@$03$0A@@@YAXAEAUggml_backend_cuda_context@@PEAUggml_tensor@@@Z
	??$lexicographical_compare@PEBMPEBM@std@@YA_NQEBM000@Z
	??$lexicographical_compare@PEBMPEBMU?$less@X@std@@@std@@YA_NQEBM000U?$less@X@0@@Z
	??$make_pair@AEAHAEAV?$array@M$0BA@@std@@@std@@YA?AU?$pair@HV?$array@M$0BA@@std@@@0@AEAHAEAV?$array@M$0BA@@0@@Z
	??$max@_J@std@@YAAEB_JAEB_J0@Z
	??$max@_K@std@@YAAEB_KAEB_K0@Z
	??$min@I@std@@YAAEBIAEBI0@Z
	??$min@_J@std@@YAAEB_JAEB_J0@Z
	??$min@_K@std@@YAAEB_KAEB_K0@Z
	??$move@AEAPEAPEAD@std@@YA$$QEAPEAPEADAEAPEAPEAD@Z
	??$move@AEAPEAUCUgraphNode_st@@@std@@YA$$QEAPEAUCUgraphNode_st@@AEAPEAU1@@Z
	??$move@AEAPEAUggml_backend_device@@@std@@YA$$QEAPEAUggml_backend_device@@AEAPEAU1@@Z
	??$move@AEAPEAUggml_tensor_extra_gpu@@@std@@YA$$QEAPEAUggml_tensor_extra_gpu@@AEAPEAU1@@Z
	??$move@AEAPEAX@std@@YA$$QEAPEAXAEAPEAX@Z
	??$move@AEAUcudaKernelNodeParams@@@std@@YA$$QEAUcudaKernelNodeParams@@AEAU1@@Z
	??$move@AEAUggml_backend_feature@@@std@@YA$$QEAUggml_backend_feature@@AEAU1@@Z
	??$move@AEAUggml_graph_node_properties@@@std@@YA$$QEAUggml_graph_node_properties@@AEAU1@@Z
	??$move@AEAV?$allocator@D@std@@@std@@YA$$QEAV?$allocator@D@0@AEAV10@@Z
	??$move@AEAV?$allocator@Uggml_backend_feature@@@std@@@std@@YA$$QEAV?$allocator@Uggml_backend_feature@@@0@AEAV10@@Z
	??$move@AEAV?$basic_string@DU?$char_traits@D@std@@V?$allocator@D@2@@std@@@std@@YA$$QEAV?$basic_string@DU?$char_traits@D@std@@V?$allocator@D@2@@0@AEAV10@@Z
	??$mul_mat_q_case@$01@@YAXAEAUggml_backend_cuda_context@@AEBUmmq_args@@PEAUCUstream_st@@@Z
	??$mul_mat_q_case@$02@@YAXAEAUggml_backend_cuda_context@@AEBUmmq_args@@PEAUCUstream_st@@@Z
	??$mul_mat_q_case@$05@@YAXAEAUggml_backend_cuda_context@@AEBUmmq_args@@PEAUCUstream_st@@@Z
	??$mul_mat_q_case@$06@@YAXAEAUggml_backend_cuda_context@@AEBUmmq_args@@PEAUCUstream_st@@@Z
	??$mul_mat_q_case@$07@@YAXAEAUggml_backend_cuda_context@@AEBUmmq_args@@PEAUCUstream_st@@@Z
	??$mul_mat_q_case@$09@@YAXAEAUggml_backend_cuda_context@@AEBUmmq_args@@PEAUCUstream_st@@@Z
	??$mul_mat_q_case@$0BA@@@YAXAEAUggml_backend_cuda_context@@AEBUmmq_args@@PEAUCUstream_st@@@Z
	??$mul_mat_q_case@$0BB@@@YAXAEAUggml_backend_cuda_context@@AEBUmmq_args@@PEAUCUstream_st@@@Z
	??$mul_mat_q_case@$0BC@@@YAXAEAUggml_backend_cuda_context@@AEBUmmq_args@@PEAUCUstream_st@@@Z
	??$mul_mat_q_case@$0BD@@@YAXAEAUggml_backend_cuda_context@@AEBUmmq_args@@PEAUCUstream_st@@@Z
	??$mul_mat_q_case@$0BE@@@YAXAEAUggml_backend_cuda_context@@AEBUmmq_args@@PEAUCUstream_st@@@Z
	??$mul_mat_q_case@$0BF@@@YAXAEAUggml_backend_cuda_context@@AEBUmmq_args@@PEAUCUstream_st@@@Z
	??$mul_mat_q_case@$0BG@@@YAXAEAUggml_backend_cuda_context@@AEBUmmq_args@@PEAUCUstream_st@@@Z
	??$mul_mat_q_case@$0BH@@@YAXAEAUggml_backend_cuda_context@@AEBUmmq_args@@PEAUCUstream_st@@@Z
	??$mul_mat_q_case@$0L@@@YAXAEAUggml_backend_cuda_context@@AEBUmmq_args@@PEAUCUstream_st@@@Z
	??$mul_mat_q_case@$0M@@@YAXAEAUggml_backend_cuda_context@@AEBUmmq_args@@PEAUCUstream_st@@@Z
	??$mul_mat_q_case@$0N@@@YAXAEAUggml_backend_cuda_context@@AEBUmmq_args@@PEAUCUstream_st@@@Z
	??$mul_mat_q_case@$0O@@@YAXAEAUggml_backend_cuda_context@@AEBUmmq_args@@PEAUCUstream_st@@@Z
	??0<lambda_b4cbd73692cf29fbda2a019b404e4e88>@@QEAA@AEBH@Z
	??0?$DispatchReduce@PEBMPEAM_KU?$plus@X@__4@std@cuda@@MMU?$DeviceReducePolicy@M_KU?$plus@X@__4@std@cuda@@@CUB_200500_890_NS@cub@@U__identity@234@@CUB_200500_890_NS@cub@@QEAA@PEAXAEA_KPEBMPEAM_KU?$plus@X@__4@std@cuda@@MPEAUCUstream_st@@HU__identity@456@@Z
	??0?$GridEvenShare@_K@CUB_200500_890_NS@cub@@QEAA@XZ
	??0?$ValueCache@H$1?DeviceCountUncached@CUB_200500_890_NS@cub@@YAHXZ@CUB_200500_890_NS@cub@@QEAA@XZ
	??0?$_Alloc_construct_ptr@V?$allocator@U?$_Tree_node@U?$pair@$$CBU?$pair@HV?$array@M$0BA@@std@@@std@@Uggml_backend_buffer_type@@@std@@PEAX@std@@@std@@@std@@QEAA@AEAV?$allocator@U?$_Tree_node@U?$pair@$$CBU?$pair@HV?$array@M$0BA@@std@@@std@@Uggml_backend_buffer_type@@@std@@PEAX@std@@@1@@Z
	??0?$_String_val@U?$_Simple_types@D@std@@@std@@QEAA@XZ
	??0?$_Tree@V?$_Tmap_traits@U?$pair@HV?$array@M$0BA@@std@@@std@@Uggml_backend_buffer_type@@U?$less@U?$pair@HV?$array@M$0BA@@std@@@std@@@2@V?$allocator@U?$pair@$$CBU?$pair@HV?$array@M$0BA@@std@@@std@@Uggml_backend_buffer_type@@@std@@@2@$0A@@std@@@std@@QEAA@AEBU?$less@U?$pair@HV?$array@M$0BA@@std@@@std@@@1@@Z
	??0?$_Tree_const_iterator@V?$_Tree_val@U?$_Tree_simple_types@U?$pair@$$CBU?$pair@HV?$array@M$0BA@@std@@@std@@Uggml_backend_buffer_type@@@std@@@std@@@std@@@std@@QEAA@PEAU?$_Tree_node@U?$pair@$$CBU?$pair@HV?$array@M$0BA@@std@@@std@@Uggml_backend_buffer_type@@@std@@PEAX@1@PEBV?$_Tree_val@U?$_Tree_simple_types@U?$pair@$$CBU?$pair@HV?$array@M$0BA@@std@@@std@@Uggml_backend_buffer_type@@@std@@@std@@@1@@Z
	??0?$_Tree_iterator@V?$_Tree_val@U?$_Tree_simple_types@U?$pair@$$CBU?$pair@HV?$array@M$0BA@@std@@@std@@Uggml_backend_buffer_type@@@std@@@std@@@std@@@std@@QEAA@PEAU?$_Tree_node@U?$pair@$$CBU?$pair@HV?$array@M$0BA@@std@@@std@@Uggml_backend_buffer_type@@@std@@PEAX@1@PEBV?$_Tree_val@U?$_Tree_simple_types@U?$pair@$$CBU?$pair@HV?$array@M$0BA@@std@@@std@@Uggml_backend_buffer_type@@@std@@@std@@@1@@Z
	??0?$_Tree_temp_node_alloc@V?$allocator@U?$_Tree_node@U?$pair@$$CBU?$pair@HV?$array@M$0BA@@std@@@std@@Uggml_backend_buffer_type@@@std@@PEAX@std@@@std@@@std@@QEAA@AEAV?$allocator@U?$_Tree_node@U?$pair@$$CBU?$pair@HV?$array@M$0BA@@std@@@std@@Uggml_backend_buffer_type@@@std@@PEAX@std@@@1@@Z
	??0?$_Tree_unchecked_const_iterator@V?$_Tree_val@U?$_Tree_simple_types@U?$pair@$$CBU?$pair@HV?$array@M$0BA@@std@@@std@@Uggml_backend_buffer_type@@@std@@@std@@@std@@U_Iterator_base0@2@@std@@QEAA@PEAU?$_Tree_node@U?$pair@$$CBU?$pair@HV?$array@M$0BA@@std@@@std@@Uggml_backend_buffer_type@@@std@@PEAX@1@PEBV?$_Tree_val@U?$_Tree_simple_types@U?$pair@$$CBU?$pair@HV?$array@M$0BA@@std@@@std@@Uggml_backend_buffer_type@@@std@@@std@@@1@@Z
	??0?$_Tree_val@U?$_Tree_simple_types@U?$pair@$$CBU?$pair@HV?$array@M$0BA@@std@@@std@@Uggml_backend_buffer_type@@@std@@@std@@@std@@QEAA@XZ
	??0?$_Uninitialized_backout_al@V?$allocator@D@std@@@std@@QEAA@PEADAEAV?$allocator@D@1@@Z
	??0?$_Uninitialized_backout_al@V?$allocator@PEAPEAD@std@@@std@@QEAA@PEAPEAPEADAEAV?$allocator@PEAPEAD@1@@Z
	??0?$_Uninitialized_backout_al@V?$allocator@PEAUCUgraphNode_st@@@std@@@std@@QEAA@PEAPEAUCUgraphNode_st@@AEAV?$allocator@PEAUCUgraphNode_st@@@1@@Z
	??0?$_Uninitialized_backout_al@V?$allocator@PEAUggml_backend_device@@@std@@@std@@QEAA@PEAPEAUggml_backend_device@@AEAV?$allocator@PEAUggml_backend_device@@@1@@Z
	??0?$_Uninitialized_backout_al@V?$allocator@PEAUggml_tensor_extra_gpu@@@std@@@std@@QEAA@PEAPEAUggml_tensor_extra_gpu@@AEAV?$allocator@PEAUggml_tensor_extra_gpu@@@1@@Z
	??0?$_Uninitialized_backout_al@V?$allocator@PEAX@std@@@std@@QEAA@PEAPEAXAEAV?$allocator@PEAX@1@@Z
	??0?$_Uninitialized_backout_al@V?$allocator@UcudaKernelNodeParams@@@std@@@std@@QEAA@PEAUcudaKernelNodeParams@@AEAV?$allocator@UcudaKernelNodeParams@@@1@@Z
	??0?$_Uninitialized_backout_al@V?$allocator@Uggml_backend_feature@@@std@@@std@@QEAA@PEAUggml_backend_feature@@AEAV?$allocator@Uggml_backend_feature@@@1@@Z
	??0?$_Uninitialized_backout_al@V?$allocator@Uggml_graph_node_properties@@@std@@@std@@QEAA@PEAUggml_graph_node_properties@@AEAV?$allocator@Uggml_graph_node_properties@@@1@@Z
	??0?$_Vector_const_iterator@V?$_Vector_val@U?$_Simple_types@PEAX@std@@@std@@@std@@QEAA@PEAPEAXPEBU_Container_base0@1@@Z
	??0?$_Vector_iterator@V?$_Vector_val@U?$_Simple_types@PEAX@std@@@std@@@std@@QEAA@PEAPEAXPEBU_Container_base0@1@@Z
	??0?$_Vector_val@U?$_Simple_types@D@std@@@std@@QEAA@XZ
	??0?$_Vector_val@U?$_Simple_types@PEAPEAD@std@@@std@@QEAA@XZ
	??0?$_Vector_val@U?$_Simple_types@PEAUCUgraphNode_st@@@std@@@std@@QEAA@XZ
	??0?$_Vector_val@U?$_Simple_types@PEAUggml_backend_device@@@std@@@std@@QEAA@XZ
	??0?$_Vector_val@U?$_Simple_types@PEAUggml_tensor_extra_gpu@@@std@@@std@@QEAA@XZ
	??0?$_Vector_val@U?$_Simple_types@PEAX@std@@@std@@QEAA@XZ
	??0?$_Vector_val@U?$_Simple_types@UcudaKernelNodeParams@@@std@@@std@@QEAA@XZ
	??0?$_Vector_val@U?$_Simple_types@Uggml_backend_feature@@@std@@@std@@QEAA@PEAUggml_backend_feature@@00@Z
	??0?$_Vector_val@U?$_Simple_types@Uggml_backend_feature@@@std@@@std@@QEAA@XZ
	??0?$_Vector_val@U?$_Simple_types@Uggml_graph_node_properties@@@std@@@std@@QEAA@XZ
	??0?$__optional_copy_assign_base@V?$scoped_range_in@UNVTXCCCLDomain@detail@CUB_200500_890_NS@cub@@@v1@nvtx3@@$01@__4@std@cuda@@QEAA@XZ
	??0?$__optional_copy_base@V?$scoped_range_in@UNVTXCCCLDomain@detail@CUB_200500_890_NS@cub@@@v1@nvtx3@@$01@__4@std@cuda@@QEAA@XZ
	??0?$__optional_destruct_base@V?$scoped_range_in@UNVTXCCCLDomain@detail@CUB_200500_890_NS@cub@@@v1@nvtx3@@$0A@@__4@std@cuda@@QEAA@XZ
	??0?$__optional_move_assign_base@V?$scoped_range_in@UNVTXCCCLDomain@detail@CUB_200500_890_NS@cub@@@v1@nvtx3@@$01@__4@std@cuda@@QEAA@XZ
	??0?$__optional_move_base@V?$scoped_range_in@UNVTXCCCLDomain@detail@CUB_200500_890_NS@cub@@@v1@nvtx3@@$01@__4@std@cuda@@QEAA@XZ
	??0?$__optional_storage_base@V?$scoped_range_in@UNVTXCCCLDomain@detail@CUB_200500_890_NS@cub@@@v1@nvtx3@@@__4@std@cuda@@QEAA@XZ
	??0?$allocator@D@std@@QEAA@XZ
	??0?$allocator@PEAPEAD@std@@QEAA@XZ
	??0?$allocator@PEAUCUgraphNode_st@@@std@@QEAA@XZ
	??0?$allocator@PEAUggml_backend_device@@@std@@QEAA@XZ
	??0?$allocator@PEAUggml_tensor_extra_gpu@@@std@@QEAA@XZ
	??0?$allocator@PEAX@std@@QEAA@XZ
	??0?$allocator@U?$_Tree_node@U?$pair@$$CBU?$pair@HV?$array@M$0BA@@std@@@std@@Uggml_backend_buffer_type@@@std@@PEAX@std@@@std@@QEAA@XZ
	??0?$allocator@UcudaKernelNodeParams@@@std@@QEAA@XZ
	??0?$allocator@Uggml_backend_feature@@@std@@QEAA@XZ
	??0?$allocator@Uggml_graph_node_properties@@@std@@QEAA@XZ
	??0?$array@UDeviceEntry@PerDeviceAttributeCache@CUB_200500_890_NS@cub@@$0IA@@std@@QEAA@XZ
	??0?$atomic@W4DeviceEntryStatus@PerDeviceAttributeCache@CUB_200500_890_NS@cub@@@std@@QEAA@XZ
	??0?$basic_string@DU?$char_traits@D@std@@V?$allocator@D@2@@std@@QEAA@$$QEAV01@@Z
	??0?$basic_string@DU?$char_traits@D@std@@V?$allocator@D@2@@std@@QEAA@XZ
	??0?$ggml_cuda_pool_alloc@D@@QEAA@AEAUggml_cuda_pool@@_K@Z
	??0?$ggml_cuda_pool_alloc@D@@QEAA@XZ
	??0?$ggml_cuda_pool_alloc@E@@QEAA@AEAUggml_cuda_pool@@_K@Z
	??0?$ggml_cuda_pool_alloc@H@@QEAA@AEAUggml_cuda_pool@@_K@Z
	??0?$ggml_cuda_pool_alloc@M@@QEAA@AEAUggml_cuda_pool@@@Z
	??0?$ggml_cuda_pool_alloc@M@@QEAA@AEAUggml_cuda_pool@@_K@Z
	??0?$ggml_cuda_pool_alloc@M@@QEAA@XZ
	??0?$ggml_cuda_pool_alloc@PEAX@@QEAA@AEAUggml_cuda_pool@@_K@Z
	??0?$ggml_cuda_pool_alloc@PEBX@@QEAA@AEAUggml_cuda_pool@@_K@Z
	??0?$ggml_cuda_pool_alloc@U__half@@@@QEAA@AEAUggml_cuda_pool@@@Z
	??0?$ggml_cuda_pool_alloc@U__half@@@@QEAA@AEAUggml_cuda_pool@@_K@Z
	??0?$ggml_cuda_pool_alloc@Ufloat2@@@@QEAA@AEAUggml_cuda_pool@@@Z
	??0?$ggml_cuda_pool_alloc@Ummid_row_mapping@@@@QEAA@AEAUggml_cuda_pool@@_K@Z
	??0?$lock_guard@Vmutex@std@@@std@@QEAA@AEAVmutex@1@@Z
	??0?$map@U?$pair@HV?$array@M$0BA@@std@@@std@@Uggml_backend_buffer_type@@U?$less@U?$pair@HV?$array@M$0BA@@std@@@std@@@2@V?$allocator@U?$pair@$$CBU?$pair@HV?$array@M$0BA@@std@@@std@@Uggml_backend_buffer_type@@@std@@@2@@std@@QEAA@XZ
	??0?$optional@V?$scoped_range_in@UNVTXCCCLDomain@detail@CUB_200500_890_NS@cub@@@v1@nvtx3@@@__4@std@cuda@@QEAA@XZ
	??0?$registered_string_in@UNVTXCCCLDomain@detail@CUB_200500_890_NS@cub@@@v1@nvtx3@@QEAA@PEBD@Z
	??0?$scoped_range_in@UNVTXCCCLDomain@detail@CUB_200500_890_NS@cub@@@v1@nvtx3@@QEAA@AEBVevent_attributes@12@@Z
	??0?$vector@DV?$allocator@D@std@@@std@@QEAA@_KAEBV?$allocator@D@1@@Z
	??0?$vector@PEAPEADV?$allocator@PEAPEAD@std@@@std@@QEAA@XZ
	??0?$vector@PEAUCUgraphNode_st@@V?$allocator@PEAUCUgraphNode_st@@@std@@@std@@QEAA@XZ
	??0?$vector@PEAUggml_backend_device@@V?$allocator@PEAUggml_backend_device@@@std@@@std@@QEAA@XZ
	??0?$vector@PEAUggml_tensor_extra_gpu@@V?$allocator@PEAUggml_tensor_extra_gpu@@@std@@@std@@QEAA@XZ
	??0?$vector@PEAXV?$allocator@PEAX@std@@@std@@QEAA@XZ
	??0?$vector@UcudaKernelNodeParams@@V?$allocator@UcudaKernelNodeParams@@@std@@@std@@QEAA@XZ
	??0?$vector@Uggml_backend_feature@@V?$allocator@Uggml_backend_feature@@@std@@@std@@QEAA@$$QEAV01@@Z
	??0?$vector@Uggml_backend_feature@@V?$allocator@Uggml_backend_feature@@@std@@@std@@QEAA@XZ
	??0?$vector@Uggml_graph_node_properties@@V?$allocator@Uggml_graph_node_properties@@@std@@@std@@QEAA@XZ
	??0DeviceEntry@PerDeviceAttributeCache@CUB_200500_890_NS@cub@@QEAA@XZ
	??0KernelConfig@CUB_200500_890_NS@cub@@QEAA@XZ
	??0PerDeviceAttributeCache@CUB_200500_890_NS@cub@@QEAA@XZ
	??0SwitchDevice@CUB_200500_890_NS@cub@@QEAA@H@Z
	??0_Bxty@?$_String_val@U?$_Simple_types@D@std@@@std@@QEAA@XZ
	??0_Fake_proxy_ptr_impl@std@@QEAA@AEBU_Fake_allocator@1@AEBU_Container_base0@1@@Z
	??0__half@@QEAA@M@Z
	??0bad_alloc@std@@AEAA@QEBD@Z
	??0bad_alloc@std@@QEAA@AEBV01@@Z
	??0bad_array_new_length@std@@QEAA@AEBV01@@Z
	??0bad_array_new_length@std@@QEAA@XZ
	??0cudaKernelNodeParams@@QEAA@XZ
	??0dim3@@QEAA@III@Z
	??0domain@v1@nvtx3@@AEAA@PEBD@Z
	??0event_attributes@v1@nvtx3@@QEAA@XZ
	??0exception@std@@QEAA@AEBV01@@Z
	??0exception@std@@QEAA@QEBDH@Z
	??0ggml_backend_cuda_buffer_context@@QEAA@HPEAX@Z
	??0ggml_backend_cuda_context@@QEAA@H@Z
	??0ggml_backend_cuda_device_context@@QEAA@XZ
	??0ggml_backend_cuda_reg_context@@QEAA@XZ
	??0ggml_backend_cuda_split_buffer_context@@QEAA@XZ
	??0ggml_cuda_buffer@ggml_cuda_pool_leg@@QEAA@XZ
	??0ggml_cuda_graph@@QEAA@XZ
	??0ggml_cuda_pool@@QEAA@XZ
	??0ggml_cuda_pool_leg@@QEAA@H@Z
	??0ggml_cuda_pool_vmm@@QEAA@H@Z
	??0triple_chevron@launcher@cuda_cub@THRUST_200500_890_NS@thrust@@QEAA@Udim3@@0_KPEAUCUstream_st@@@Z
	??1?$_Alloc_construct_ptr@V?$allocator@U?$_Tree_node@U?$pair@$$CBU?$pair@HV?$array@M$0BA@@std@@@std@@Uggml_backend_buffer_type@@@std@@PEAX@std@@@std@@@std@@QEAA@XZ
	??1?$_Compressed_pair@V?$allocator@D@std@@V?$_String_val@U?$_Simple_types@D@std@@@2@$00@std@@QEAA@XZ
	??1?$_String_val@U?$_Simple_types@D@std@@@std@@QEAA@XZ
	??1?$_Tidy_guard@V?$vector@DV?$allocator@D@std@@@std@@@std@@QEAA@XZ
	??1?$_Tree@V?$_Tmap_traits@U?$pair@HV?$array@M$0BA@@std@@@std@@Uggml_backend_buffer_type@@U?$less@U?$pair@HV?$array@M$0BA@@std@@@std@@@2@V?$allocator@U?$pair@$$CBU?$pair@HV?$array@M$0BA@@std@@@std@@Uggml_backend_buffer_type@@@std@@@2@$0A@@std@@@std@@QEAA@XZ
	??1?$_Tree_temp_node@V?$allocator@U?$_Tree_node@U?$pair@$$CBU?$pair@HV?$array@M$0BA@@std@@@std@@Uggml_backend_buffer_type@@@std@@PEAX@std@@@std@@@std@@QEAA@XZ
	??1?$_Tree_temp_node_alloc@V?$allocator@U?$_Tree_node@U?$pair@$$CBU?$pair@HV?$array@M$0BA@@std@@@std@@Uggml_backend_buffer_type@@@std@@PEAX@std@@@std@@@std@@QEAA@XZ
	??1?$_Uninitialized_backout_al@V?$allocator@D@std@@@std@@QEAA@XZ
	??1?$_Uninitialized_backout_al@V?$allocator@PEAPEAD@std@@@std@@QEAA@XZ
	??1?$_Uninitialized_backout_al@V?$allocator@PEAUCUgraphNode_st@@@std@@@std@@QEAA@XZ
	??1?$_Uninitialized_backout_al@V?$allocator@PEAUggml_backend_device@@@std@@@std@@QEAA@XZ
	??1?$_Uninitialized_backout_al@V?$allocator@PEAUggml_tensor_extra_gpu@@@std@@@std@@QEAA@XZ
	??1?$_Uninitialized_backout_al@V?$allocator@PEAX@std@@@std@@QEAA@XZ
	??1?$_Uninitialized_backout_al@V?$allocator@UcudaKernelNodeParams@@@std@@@std@@QEAA@XZ
	??1?$_Uninitialized_backout_al@V?$allocator@Uggml_backend_feature@@@std@@@std@@QEAA@XZ
	??1?$_Uninitialized_backout_al@V?$allocator@Uggml_graph_node_properties@@@std@@@std@@QEAA@XZ
	??1?$__optional_copy_assign_base@V?$scoped_range_in@UNVTXCCCLDomain@detail@CUB_200500_890_NS@cub@@@v1@nvtx3@@$01@__4@std@cuda@@QEAA@XZ
	??1?$__optional_copy_base@V?$scoped_range_in@UNVTXCCCLDomain@detail@CUB_200500_890_NS@cub@@@v1@nvtx3@@$01@__4@std@cuda@@QEAA@XZ
	??1?$__optional_destruct_base@V?$scoped_range_in@UNVTXCCCLDomain@detail@CUB_200500_890_NS@cub@@@v1@nvtx3@@$0A@@__4@std@cuda@@QEAA@XZ
	??1?$__optional_move_assign_base@V?$scoped_range_in@UNVTXCCCLDomain@detail@CUB_200500_890_NS@cub@@@v1@nvtx3@@$01@__4@std@cuda@@QEAA@XZ
	??1?$__optional_move_base@V?$scoped_range_in@UNVTXCCCLDomain@detail@CUB_200500_890_NS@cub@@@v1@nvtx3@@$01@__4@std@cuda@@QEAA@XZ
	??1?$__optional_storage_base@V?$scoped_range_in@UNVTXCCCLDomain@detail@CUB_200500_890_NS@cub@@@v1@nvtx3@@@__4@std@cuda@@QEAA@XZ
	??1?$basic_string@DU?$char_traits@D@std@@V?$allocator@D@2@@std@@QEAA@XZ
	??1?$ggml_cuda_pool_alloc@D@@QEAA@XZ
	??1?$ggml_cuda_pool_alloc@E@@QEAA@XZ
	??1?$ggml_cuda_pool_alloc@H@@QEAA@XZ
	??1?$ggml_cuda_pool_alloc@M@@QEAA@XZ
	??1?$ggml_cuda_pool_alloc@PEAX@@QEAA@XZ
	??1?$ggml_cuda_pool_alloc@PEBX@@QEAA@XZ
	??1?$ggml_cuda_pool_alloc@U__half@@@@QEAA@XZ
	??1?$ggml_cuda_pool_alloc@Ufloat2@@@@QEAA@XZ
	??1?$ggml_cuda_pool_alloc@Ummid_row_mapping@@@@QEAA@XZ
	??1?$lock_guard@Vmutex@std@@@std@@QEAA@XZ
	??1?$map@U?$pair@HV?$array@M$0BA@@std@@@std@@Uggml_backend_buffer_type@@U?$less@U?$pair@HV?$array@M$0BA@@std@@@std@@@2@V?$allocator@U?$pair@$$CBU?$pair@HV?$array@M$0BA@@std@@@std@@Uggml_backend_buffer_type@@@std@@@2@@std@@QEAA@XZ
	??1?$optional@V?$scoped_range_in@UNVTXCCCLDomain@detail@CUB_200500_890_NS@cub@@@v1@nvtx3@@@__4@std@cuda@@QEAA@XZ
	??1?$scoped_range_in@UNVTXCCCLDomain@detail@CUB_200500_890_NS@cub@@@v1@nvtx3@@QEAA@XZ
	??1?$unique_ptr@Uggml_cuda_graph@@U?$default_delete@Uggml_cuda_graph@@@std@@@std@@QEAA@XZ
	??1?$unique_ptr@Uggml_cuda_pool@@U?$default_delete@Uggml_cuda_pool@@@std@@@std@@QEAA@XZ
	??1?$vector@DV?$allocator@D@std@@@std@@QEAA@XZ
	??1?$vector@PEAPEADV?$allocator@PEAPEAD@std@@@std@@QEAA@XZ
	??1?$vector@PEAUCUgraphNode_st@@V?$allocator@PEAUCUgraphNode_st@@@std@@@std@@QEAA@XZ
	??1?$vector@PEAUggml_backend_device@@V?$allocator@PEAUggml_backend_device@@@std@@@std@@QEAA@XZ
	??1?$vector@PEAUggml_tensor_extra_gpu@@V?$allocator@PEAUggml_tensor_extra_gpu@@@std@@@std@@QEAA@XZ
	??1?$vector@PEAXV?$allocator@PEAX@std@@@std@@QEAA@XZ
	??1?$vector@UcudaKernelNodeParams@@V?$allocator@UcudaKernelNodeParams@@@std@@@std@@QEAA@XZ
	??1?$vector@Uggml_backend_feature@@V?$allocator@Uggml_backend_feature@@@std@@@std@@QEAA@XZ
	??1?$vector@Uggml_graph_node_properties@@V?$allocator@Uggml_graph_node_properties@@@std@@@std@@QEAA@XZ
	??1SwitchDevice@CUB_200500_890_NS@cub@@QEAA@XZ
	??1_Bxty@?$_String_val@U?$_Simple_types@D@std@@@std@@QEAA@XZ
	??1bad_alloc@std@@UEAA@XZ
	??1bad_array_new_length@std@@UEAA@XZ
	??1exception@std@@UEAA@XZ
	??1ggml_backend_cuda_buffer_context@@QEAA@XZ
	??1ggml_backend_cuda_context@@QEAA@XZ
	??1ggml_backend_cuda_split_buffer_context@@QEAA@XZ
	??1ggml_cuda_graph@@QEAA@XZ
	??1ggml_cuda_pool@@UEAA@XZ
	??1ggml_cuda_pool_leg@@UEAA@XZ
	??1ggml_cuda_pool_vmm@@UEAA@XZ
	??2@YAPEAX_KPEAX@Z
	??4?$basic_string@DU?$char_traits@D@std@@V?$allocator@D@2@@std@@QEAAAEAV01@$$QEAV01@@Z
	??4?$basic_string@DU?$char_traits@D@std@@V?$allocator@D@2@@std@@QEAAAEAV01@QEBD@Z
	??4__half@@QEAAAEAU0@AEBU__half_raw@@@Z
	??8?$_Tree_const_iterator@V?$_Tree_val@U?$_Tree_simple_types@U?$pair@$$CBU?$pair@HV?$array@M$0BA@@std@@@std@@Uggml_backend_buffer_type@@@std@@@std@@@std@@@std@@QEBA_NAEBV01@@Z
	??8?$_Vector_const_iterator@V?$_Vector_val@U?$_Simple_types@PEAX@std@@@std@@@std@@QEBA_NAEBV01@@Z
	??9?$_Tree_const_iterator@V?$_Tree_val@U?$_Tree_simple_types@U?$pair@$$CBU?$pair@HV?$array@M$0BA@@std@@@std@@Uggml_backend_buffer_type@@@std@@@std@@@std@@@std@@QEBA_NAEBV01@@Z
	??A?$array@M$0BA@@std@@QEAAAEAM_K@Z
	??A?$array@M$0BA@@std@@QEBAAEBM_K@Z
	??A?$array@UDeviceEntry@PerDeviceAttributeCache@CUB_200500_890_NS@cub@@$0IA@@std@@QEAAAEAUDeviceEntry@PerDeviceAttributeCache@CUB_200500_890_NS@cub@@_K@Z
	??A?$vector@PEAUCUgraphNode_st@@V?$allocator@PEAUCUgraphNode_st@@@std@@@std@@QEAAAEAPEAUCUgraphNode_st@@_K@Z
	??A?$vector@PEAUggml_backend_device@@V?$allocator@PEAUggml_backend_device@@@std@@@std@@QEAAAEAPEAUggml_backend_device@@_K@Z
	??A?$vector@UcudaKernelNodeParams@@V?$allocator@UcudaKernelNodeParams@@@std@@@std@@QEAAAEAUcudaKernelNodeParams@@_K@Z
	??A?$vector@Uggml_graph_node_properties@@V?$allocator@Uggml_graph_node_properties@@@std@@@std@@QEAAAEAUggml_graph_node_properties@@_K@Z
	??B?$unique_ptr@Uggml_cuda_graph@@U?$default_delete@Uggml_cuda_graph@@@std@@@std@@QEBA_NXZ
	??B?$unique_ptr@Uggml_cuda_pool@@U?$default_delete@Uggml_cuda_pool@@@std@@@std@@QEBA_NXZ
	??Bdomain@v1@nvtx3@@QEBAPEAUnvtxDomainRegistration_st@@XZ
	??C?$_Tree_iterator@V?$_Tree_val@U?$_Tree_simple_types@U?$pair@$$CBU?$pair@HV?$array@M$0BA@@std@@@std@@Uggml_backend_buffer_type@@@std@@@std@@@std@@@std@@QEBAPEAU?$pair@$$CBU?$pair@HV?$array@M$0BA@@std@@@std@@Uggml_backend_buffer_type@@@1@XZ
	??C?$unique_ptr@Uggml_cuda_graph@@U?$default_delete@Uggml_cuda_graph@@@std@@@std@@QEBAPEAUggml_cuda_graph@@XZ
	??D?$_Tree_const_iterator@V?$_Tree_val@U?$_Tree_simple_types@U?$pair@$$CBU?$pair@HV?$array@M$0BA@@std@@@std@@Uggml_backend_buffer_type@@@std@@@std@@@std@@@std@@QEBAAEBU?$pair@$$CBU?$pair@HV?$array@M$0BA@@std@@@std@@Uggml_backend_buffer_type@@@1@XZ
	??D?$_Tree_iterator@V?$_Tree_val@U?$_Tree_simple_types@U?$pair@$$CBU?$pair@HV?$array@M$0BA@@std@@@std@@Uggml_backend_buffer_type@@@std@@@std@@@std@@@std@@QEBAAEAU?$pair@$$CBU?$pair@HV?$array@M$0BA@@std@@@std@@Uggml_backend_buffer_type@@@1@XZ
	??D?$unique_ptr@Uggml_cuda_pool@@U?$default_delete@Uggml_cuda_pool@@@std@@@std@@QEBAAEAUggml_cuda_pool@@XZ
	??R<lambda_65e615be2a453ca0576c979606f46740>@@QEBA@QEADQEBD_K12@Z
	??R<lambda_66f57f934f28d61049862f64df852ff0>@@QEBA@QEAD_KQEBD@Z
	??R<lambda_b4cbd73692cf29fbda2a019b404e4e88>@@QEBA@AEAH@Z
	??R<lambda_f3a66ab6a0570788f31503db83886f49>@@QEBA@QEADQEBD_K212@Z
	??R?$default_delete@Uggml_cuda_graph@@@std@@QEBAXPEAUggml_cuda_graph@@@Z
	??R?$default_delete@Uggml_cuda_pool@@@std@@QEBAXPEAUggml_cuda_pool@@@Z
	??R?$less@U?$pair@HV?$array@M$0BA@@std@@@std@@@std@@QEBA_NAEBU?$pair@HV?$array@M$0BA@@std@@@1@0@Z
	??_7bad_alloc@std@@6B@
	??_7bad_array_new_length@std@@6B@
	??_7exception@std@@6B@
	??_7ggml_cuda_pool@@6B@
	??_7ggml_cuda_pool_leg@@6B@
	??_7ggml_cuda_pool_vmm@@6B@
	??_H@YAXPEAX_K1P6APEAX0@Z@Z
	?CurrentDevice@CUB_200500_890_NS@cub@@YAHXZ
	?Debug@CUB_200500_890_NS@cub@@YA?AW4cudaError@@W43@PEBDH@Z
	?DebugSyncStream@detail@CUB_200500_890_NS@cub@@YA?AW4cudaError@@PEAUCUstream_st@@@Z
	?DeviceCount@CUB_200500_890_NS@cub@@YAHXZ
	?DeviceCountCachedValue@CUB_200500_890_NS@cub@@YAHXZ
	?DeviceCountUncached@CUB_200500_890_NS@cub@@YAHXZ
	?Dispatch@?$DispatchReduce@PEBMPEAM_KU?$plus@X@__4@std@cuda@@MMU?$DeviceReducePolicy@M_KU?$plus@X@__4@std@cuda@@@CUB_200500_890_NS@cub@@U__identity@234@@CUB_200500_890_NS@cub@@SA?AW4cudaError@@PEAXAEA_KPEBMPEAM_KU?$plus@X@__4@std@cuda@@MPEAUCUstream_st@@U__identity@678@@Z
	?DispatchInit@?$GridEvenShare@_K@CUB_200500_890_NS@cub@@QEAAX_KHH@Z
	?PtxVersion@CUB_200500_890_NS@cub@@YA?AW4cudaError@@AEAH@Z
	?PtxVersionUncached@CUB_200500_890_NS@cub@@YA?AW4cudaError@@AEAH@Z
	?PtxVersionUncached@CUB_200500_890_NS@cub@@YA?AW4cudaError@@AEAHH@Z
	?_Activate_SSO_buffer@?$_String_val@U?$_Simple_types@D@std@@@std@@QEAAXXZ
	?_Adjust_manually_vector_aligned@std@@YAXAEAPEAXAEA_K@Z
	?_Adopt@_Iterator_base0@std@@QEAAXPEBX@Z
	?_Alloc_proxy@_Container_base0@std@@QEAAXAEBU_Fake_allocator@2@@Z
	?_Alloc_sentinel_and_proxy@?$_Tree@V?$_Tmap_traits@U?$pair@HV?$array@M$0BA@@std@@@std@@Uggml_backend_buffer_type@@U?$less@U?$pair@HV?$array@M$0BA@@std@@@std@@@2@V?$allocator@U?$pair@$$CBU?$pair@HV?$array@M$0BA@@std@@@std@@Uggml_backend_buffer_type@@@std@@@2@$0A@@std@@@std@@IEAAXXZ
	?_Allocate@?$_Alloc_construct_ptr@V?$allocator@U?$_Tree_node@U?$pair@$$CBU?$pair@HV?$array@M$0BA@@std@@@std@@Uggml_backend_buffer_type@@@std@@PEAX@std@@@std@@@std@@QEAAXXZ
	?_Allocate@_Default_allocate_traits@std@@SAPEAX_K@Z
	?_Buy_nonzero@?$vector@DV?$allocator@D@std@@@std@@AEAAX_K@Z
	?_Buy_raw@?$vector@DV?$allocator@D@std@@@std@@AEAAX_K@Z
	?_Calculate_growth@?$basic_string@DU?$char_traits@D@std@@V?$allocator@D@2@@std@@AEBA_K_K@Z
	?_Calculate_growth@?$basic_string@DU?$char_traits@D@std@@V?$allocator@D@2@@std@@CA_K_K00@Z
	?_Calculate_growth@?$vector@PEAPEADV?$allocator@PEAPEAD@std@@@std@@AEBA_K_K@Z
	?_Calculate_growth@?$vector@PEAUCUgraphNode_st@@V?$allocator@PEAUCUgraphNode_st@@@std@@@std@@AEBA_K_K@Z
	?_Calculate_growth@?$vector@PEAUggml_backend_device@@V?$allocator@PEAUggml_backend_device@@@std@@@std@@AEBA_K_K@Z
	?_Calculate_growth@?$vector@PEAUggml_tensor_extra_gpu@@V?$allocator@PEAUggml_tensor_extra_gpu@@@std@@@std@@AEBA_K_K@Z
	?_Calculate_growth@?$vector@PEAXV?$allocator@PEAX@std@@@std@@AEBA_K_K@Z
	?_Calculate_growth@?$vector@UcudaKernelNodeParams@@V?$allocator@UcudaKernelNodeParams@@@std@@@std@@AEBA_K_K@Z
	?_Calculate_growth@?$vector@Uggml_backend_feature@@V?$allocator@Uggml_backend_feature@@@std@@@std@@AEBA_K_K@Z
	?_Calculate_growth@?$vector@Uggml_graph_node_properties@@V?$allocator@Uggml_graph_node_properties@@@std@@@std@@AEBA_K_K@Z
	?_Change_array@?$vector@PEAPEADV?$allocator@PEAPEAD@std@@@std@@AEAAXQEAPEAPEAD_K1@Z
	?_Change_array@?$vector@PEAUCUgraphNode_st@@V?$allocator@PEAUCUgraphNode_st@@@std@@@std@@AEAAXQEAPEAUCUgraphNode_st@@_K1@Z
	?_Change_array@?$vector@PEAUggml_backend_device@@V?$allocator@PEAUggml_backend_device@@@std@@@std@@AEAAXQEAPEAUggml_backend_device@@_K1@Z
	?_Change_array@?$vector@PEAUggml_tensor_extra_gpu@@V?$allocator@PEAUggml_tensor_extra_gpu@@@std@@@std@@AEAAXQEAPEAUggml_tensor_extra_gpu@@_K1@Z
	?_Change_array@?$vector@PEAXV?$allocator@PEAX@std@@@std@@AEAAXQEAPEAX_K1@Z
	?_Change_array@?$vector@UcudaKernelNodeParams@@V?$allocator@UcudaKernelNodeParams@@@std@@@std@@AEAAXQEAUcudaKernelNodeParams@@_K1@Z
	?_Change_array@?$vector@Uggml_backend_feature@@V?$allocator@Uggml_backend_feature@@@std@@@std@@AEAAXQEAUggml_backend_feature@@_K1@Z
	?_Change_array@?$vector@Uggml_graph_node_properties@@V?$allocator@Uggml_graph_node_properties@@@std@@@std@@AEAAXQEAUggml_graph_node_properties@@_K1@Z
	?_Check_grow_by_1@?$_Tree@V?$_Tmap_traits@U?$pair@HV?$array@M$0BA@@std@@@std@@Uggml_backend_buffer_type@@U?$less@U?$pair@HV?$array@M$0BA@@std@@@std@@@2@V?$allocator@U?$pair@$$CBU?$pair@HV?$array@M$0BA@@std@@@std@@Uggml_backend_buffer_type@@@std@@@2@$0A@@std@@@std@@IEAAXXZ
	?_Check_load_memory_order@std@@YAXW4memory_order@1@@Z
	?_Check_offset@?$_String_val@U?$_Simple_types@D@std@@@std@@QEBAX_K@Z
	?_Combine_cas_memory_orders@std@@YA?AW4memory_order@1@W421@0@Z
	?_Compat@?$_Vector_const_iterator@V?$_Vector_val@U?$_Simple_types@PEAX@std@@@std@@@std@@QEBAXAEBV12@@Z
	?_Construct_empty@?$basic_string@DU?$char_traits@D@std@@V?$allocator@D@2@@std@@AEAAXXZ
	?_Deallocate_for_capacity@?$basic_string@DU?$char_traits@D@std@@V?$allocator@D@2@@std@@CAXAEAV?$allocator@D@2@QEAD_K@Z
	?_Extract@?$_In_place_key_extract_map@U?$pair@HV?$array@M$0BA@@std@@@std@@U12@Uggml_backend_buffer_type@@@std@@SAAEBU?$pair@HV?$array@M$0BA@@std@@@2@AEBU32@AEBUggml_backend_buffer_type@@@Z
	?_Get_first@?$_Compressed_pair@U?$default_delete@Uggml_cuda_graph@@@std@@PEAUggml_cuda_graph@@$00@std@@QEAAAEAU?$default_delete@Uggml_cuda_graph@@@2@XZ
	?_Get_first@?$_Compressed_pair@U?$default_delete@Uggml_cuda_pool@@@std@@PEAUggml_cuda_pool@@$00@std@@QEAAAEAU?$default_delete@Uggml_cuda_pool@@@2@XZ
	?_Get_first@?$_Compressed_pair@U?$less@U?$pair@HV?$array@M$0BA@@std@@@std@@@std@@V?$_Compressed_pair@V?$allocator@U?$_Tree_node@U?$pair@$$CBU?$pair@HV?$array@M$0BA@@std@@@std@@Uggml_backend_buffer_type@@@std@@PEAX@std@@@std@@V?$_Tree_val@U?$_Tree_simple_types@U?$pair@$$CBU?$pair@HV?$array@M$0BA@@std@@@std@@Uggml_backend_buffer_type@@@std@@@std@@@2@$00@2@$00@std@@QEBAAEBU?$less@U?$pair@HV?$array@M$0BA@@std@@@std@@@2@XZ
	?_Get_first@?$_Compressed_pair@V?$allocator@D@std@@V?$_String_val@U?$_Simple_types@D@std@@@2@$00@std@@QEAAAEAV?$allocator@D@2@XZ
	?_Get_first@?$_Compressed_pair@V?$allocator@D@std@@V?$_String_val@U?$_Simple_types@D@std@@@2@$00@std@@QEBAAEBV?$allocator@D@2@XZ
	?_Get_first@?$_Compressed_pair@V?$allocator@D@std@@V?$_Vector_val@U?$_Simple_types@D@std@@@2@$00@std@@QEAAAEAV?$allocator@D@2@XZ
	?_Get_first@?$_Compressed_pair@V?$allocator@D@std@@V?$_Vector_val@U?$_Simple_types@D@std@@@2@$00@std@@QEBAAEBV?$allocator@D@2@XZ
	?_Get_first@?$_Compressed_pair@V?$allocator@PEAPEAD@std@@V?$_Vector_val@U?$_Simple_types@PEAPEAD@std@@@2@$00@std@@QEAAAEAV?$allocator@PEAPEAD@2@XZ
	?_Get_first@?$_Compressed_pair@V?$allocator@PEAPEAD@std@@V?$_Vector_val@U?$_Simple_types@PEAPEAD@std@@@2@$00@std@@QEBAAEBV?$allocator@PEAPEAD@2@XZ
	?_Get_first@?$_Compressed_pair@V?$allocator@PEAUCUgraphNode_st@@@std@@V?$_Vector_val@U?$_Simple_types@PEAUCUgraphNode_st@@@std@@@2@$00@std@@QEAAAEAV?$allocator@PEAUCUgraphNode_st@@@2@XZ
	?_Get_first@?$_Compressed_pair@V?$allocator@PEAUCUgraphNode_st@@@std@@V?$_Vector_val@U?$_Simple_types@PEAUCUgraphNode_st@@@std@@@2@$00@std@@QEBAAEBV?$allocator@PEAUCUgraphNode_st@@@2@XZ
	?_Get_first@?$_Compressed_pair@V?$allocator@PEAUggml_backend_device@@@std@@V?$_Vector_val@U?$_Simple_types@PEAUggml_backend_device@@@std@@@2@$00@std@@QEAAAEAV?$allocator@PEAUggml_backend_device@@@2@XZ
	?_Get_first@?$_Compressed_pair@V?$allocator@PEAUggml_backend_device@@@std@@V?$_Vector_val@U?$_Simple_types@PEAUggml_backend_device@@@std@@@2@$00@std@@QEBAAEBV?$allocator@PEAUggml_backend_device@@@2@XZ
	?_Get_first@?$_Compressed_pair@V?$allocator@PEAUggml_tensor_extra_gpu@@@std@@V?$_Vector_val@U?$_Simple_types@PEAUggml_tensor_extra_gpu@@@std@@@2@$00@std@@QEAAAEAV?$allocator@PEAUggml_tensor_extra_gpu@@@2@XZ
	?_Get_first@?$_Compressed_pair@V?$allocator@PEAUggml_tensor_extra_gpu@@@std@@V?$_Vector_val@U?$_Simple_types@PEAUggml_tensor_extra_gpu@@@std@@@2@$00@std@@QEBAAEBV?$allocator@PEAUggml_tensor_extra_gpu@@@2@XZ
	?_Get_first@?$_Compressed_pair@V?$allocator@PEAX@std@@V?$_Vector_val@U?$_Simple_types@PEAX@std@@@2@$00@std@@QEAAAEAV?$allocator@PEAX@2@XZ
	?_Get_first@?$_Compressed_pair@V?$allocator@PEAX@std@@V?$_Vector_val@U?$_Simple_types@PEAX@std@@@2@$00@std@@QEBAAEBV?$allocator@PEAX@2@XZ
	?_Get_first@?$_Compressed_pair@V?$allocator@U?$_Tree_node@U?$pair@$$CBU?$pair@HV?$array@M$0BA@@std@@@std@@Uggml_backend_buffer_type@@@std@@PEAX@std@@@std@@V?$_Tree_val@U?$_Tree_simple_types@U?$pair@$$CBU?$pair@HV?$array@M$0BA@@std@@@std@@Uggml_backend_buffer_type@@@std@@@std@@@2@$00@std@@QEAAAEAV?$allocator@U?$_Tree_node@U?$pair@$$CBU?$pair@HV?$array@M$0BA@@std@@@std@@Uggml_backend_buffer_type@@@std@@PEAX@std@@@2@XZ
	?_Get_first@?$_Compressed_pair@V?$allocator@U?$_Tree_node@U?$pair@$$CBU?$pair@HV?$array@M$0BA@@std@@@std@@Uggml_backend_buffer_type@@@std@@PEAX@std@@@std@@V?$_Tree_val@U?$_Tree_simple_types@U?$pair@$$CBU?$pair@HV?$array@M$0BA@@std@@@std@@Uggml_backend_buffer_type@@@std@@@std@@@2@$00@std@@QEBAAEBV?$allocator@U?$_Tree_node@U?$pair@$$CBU?$pair@HV?$array@M$0BA@@std@@@std@@Uggml_backend_buffer_type@@@std@@PEAX@std@@@2@XZ
	?_Get_first@?$_Compressed_pair@V?$allocator@UcudaKernelNodeParams@@@std@@V?$_Vector_val@U?$_Simple_types@UcudaKernelNodeParams@@@std@@@2@$00@std@@QEAAAEAV?$allocator@UcudaKernelNodeParams@@@2@XZ
	?_Get_first@?$_Compressed_pair@V?$allocator@UcudaKernelNodeParams@@@std@@V?$_Vector_val@U?$_Simple_types@UcudaKernelNodeParams@@@std@@@2@$00@std@@QEBAAEBV?$allocator@UcudaKernelNodeParams@@@2@XZ
	?_Get_first@?$_Compressed_pair@V?$allocator@Uggml_backend_feature@@@std@@V?$_Vector_val@U?$_Simple_types@Uggml_backend_feature@@@std@@@2@$00@std@@QEAAAEAV?$allocator@Uggml_backend_feature@@@2@XZ
	?_Get_first@?$_Compressed_pair@V?$allocator@Uggml_backend_feature@@@std@@V?$_Vector_val@U?$_Simple_types@Uggml_backend_feature@@@std@@@2@$00@std@@QEBAAEBV?$allocator@Uggml_backend_feature@@@2@XZ
	?_Get_first@?$_Compressed_pair@V?$allocator@Uggml_graph_node_properties@@@std@@V?$_Vector_val@U?$_Simple_types@Uggml_graph_node_properties@@@std@@@2@$00@std@@QEAAAEAV?$allocator@Uggml_graph_node_properties@@@2@XZ
	?_Get_first@?$_Compressed_pair@V?$allocator@Uggml_graph_node_properties@@@std@@V?$_Vector_val@U?$_Simple_types@Uggml_graph_node_properties@@@std@@@2@$00@std@@QEBAAEBV?$allocator@Uggml_graph_node_properties@@@2@XZ
	?_Get_scary@?$_Tree@V?$_Tmap_traits@U?$pair@HV?$array@M$0BA@@std@@@std@@Uggml_backend_buffer_type@@U?$less@U?$pair@HV?$array@M$0BA@@std@@@std@@@2@V?$allocator@U?$pair@$$CBU?$pair@HV?$array@M$0BA@@std@@@std@@Uggml_backend_buffer_type@@@std@@@2@$0A@@std@@@std@@IEAAPEAV?$_Tree_val@U?$_Tree_simple_types@U?$pair@$$CBU?$pair@HV?$array@M$0BA@@std@@@std@@Uggml_backend_buffer_type@@@std@@@std@@@2@XZ
	?_Get_scary@?$_Tree@V?$_Tmap_traits@U?$pair@HV?$array@M$0BA@@std@@@std@@Uggml_backend_buffer_type@@U?$less@U?$pair@HV?$array@M$0BA@@std@@@std@@@2@V?$allocator@U?$pair@$$CBU?$pair@HV?$array@M$0BA@@std@@@std@@Uggml_backend_buffer_type@@@std@@@2@$0A@@std@@@std@@IEBAPEBV?$_Tree_val@U?$_Tree_simple_types@U?$pair@$$CBU?$pair@HV?$array@M$0BA@@std@@@std@@Uggml_backend_buffer_type@@@std@@@std@@@2@XZ
	?_Getal@?$_Tree@V?$_Tmap_traits@U?$pair@HV?$array@M$0BA@@std@@@std@@Uggml_backend_buffer_type@@U?$less@U?$pair@HV?$array@M$0BA@@std@@@std@@@2@V?$allocator@U?$pair@$$CBU?$pair@HV?$array@M$0BA@@std@@@std@@Uggml_backend_buffer_type@@@std@@@2@$0A@@std@@@std@@IEAAAEAV?$allocator@U?$_Tree_node@U?$pair@$$CBU?$pair@HV?$array@M$0BA@@std@@@std@@Uggml_backend_buffer_type@@@std@@PEAX@std@@@2@XZ
	?_Getal@?$_Tree@V?$_Tmap_traits@U?$pair@HV?$array@M$0BA@@std@@@std@@Uggml_backend_buffer_type@@U?$less@U?$pair@HV?$array@M$0BA@@std@@@std@@@2@V?$allocator@U?$pair@$$CBU?$pair@HV?$array@M$0BA@@std@@@std@@Uggml_backend_buffer_type@@@std@@@2@$0A@@std@@@std@@IEBAAEBV?$allocator@U?$_Tree_node@U?$pair@$$CBU?$pair@HV?$array@M$0BA@@std@@@std@@Uggml_backend_buffer_type@@@std@@PEAX@std@@@2@XZ
	?_Getal@?$basic_string@DU?$char_traits@D@std@@V?$allocator@D@2@@std@@AEAAAEAV?$allocator@D@2@XZ
	?_Getal@?$basic_string@DU?$char_traits@D@std@@V?$allocator@D@2@@std@@AEBAAEBV?$allocator@D@2@XZ
	?_Getal@?$vector@DV?$allocator@D@std@@@std@@AEAAAEAV?$allocator@D@2@XZ
	?_Getal@?$vector@DV?$allocator@D@std@@@std@@AEBAAEBV?$allocator@D@2@XZ
	?_Getal@?$vector@PEAPEADV?$allocator@PEAPEAD@std@@@std@@AEAAAEAV?$allocator@PEAPEAD@2@XZ
	?_Getal@?$vector@PEAPEADV?$allocator@PEAPEAD@std@@@std@@AEBAAEBV?$allocator@PEAPEAD@2@XZ
	?_Getal@?$vector@PEAUCUgraphNode_st@@V?$allocator@PEAUCUgraphNode_st@@@std@@@std@@AEAAAEAV?$allocator@PEAUCUgraphNode_st@@@2@XZ
	?_Getal@?$vector@PEAUCUgraphNode_st@@V?$allocator@PEAUCUgraphNode_st@@@std@@@std@@AEBAAEBV?$allocator@PEAUCUgraphNode_st@@@2@XZ
	?_Getal@?$vector@PEAUggml_backend_device@@V?$allocator@PEAUggml_backend_device@@@std@@@std@@AEAAAEAV?$allocator@PEAUggml_backend_device@@@2@XZ
	?_Getal@?$vector@PEAUggml_backend_device@@V?$allocator@PEAUggml_backend_device@@@std@@@std@@AEBAAEBV?$allocator@PEAUggml_backend_device@@@2@XZ
	?_Getal@?$vector@PEAUggml_tensor_extra_gpu@@V?$allocator@PEAUggml_tensor_extra_gpu@@@std@@@std@@AEAAAEAV?$allocator@PEAUggml_tensor_extra_gpu@@@2@XZ
	?_Getal@?$vector@PEAUggml_tensor_extra_gpu@@V?$allocator@PEAUggml_tensor_extra_gpu@@@std@@@std@@AEBAAEBV?$allocator@PEAUggml_tensor_extra_gpu@@@2@XZ
	?_Getal@?$vector@PEAXV?$allocator@PEAX@std@@@std@@AEAAAEAV?$allocator@PEAX@2@XZ
	?_Getal@?$vector@PEAXV?$allocator@PEAX@std@@@std@@AEBAAEBV?$allocator@PEAX@2@XZ
	?_Getal@?$vector@UcudaKernelNodeParams@@V?$allocator@UcudaKernelNodeParams@@@std@@@std@@AEAAAEAV?$allocator@UcudaKernelNodeParams@@@2@XZ
	?_Getal@?$vector@UcudaKernelNodeParams@@V?$allocator@UcudaKernelNodeParams@@@std@@@std@@AEBAAEBV?$allocator@UcudaKernelNodeParams@@@2@XZ
	?_Getal@?$vector@Uggml_backend_feature@@V?$allocator@Uggml_backend_feature@@@std@@@std@@AEAAAEAV?$allocator@Uggml_backend_feature@@@2@XZ
	?_Getal@?$vector@Uggml_backend_feature@@V?$allocator@Uggml_backend_feature@@@std@@@std@@AEBAAEBV?$allocator@Uggml_backend_feature@@@2@XZ
	?_Getal@?$vector@Uggml_graph_node_properties@@V?$allocator@Uggml_graph_node_properties@@@std@@@std@@AEAAAEAV?$allocator@Uggml_graph_node_properties@@@2@XZ
	?_Getal@?$vector@Uggml_graph_node_properties@@V?$allocator@Uggml_graph_node_properties@@@std@@@std@@AEBAAEBV?$allocator@Uggml_graph_node_properties@@@2@XZ
	?_Getcomp@?$_Tree@V?$_Tmap_traits@U?$pair@HV?$array@M$0BA@@std@@@std@@Uggml_backend_buffer_type@@U?$less@U?$pair@HV?$array@M$0BA@@std@@@std@@@2@V?$allocator@U?$pair@$$CBU?$pair@HV?$array@M$0BA@@std@@@std@@Uggml_backend_buffer_type@@@std@@@2@$0A@@std@@@std@@IEBAAEBU?$less@U?$pair@HV?$array@M$0BA@@std@@@std@@@2@XZ
	?_Insert_node@?$_Tree_val@U?$_Tree_simple_types@U?$pair@$$CBU?$pair@HV?$array@M$0BA@@std@@@std@@Uggml_backend_buffer_type@@@std@@@std@@@std@@QEAAPEAU?$_Tree_node@U?$pair@$$CBU?$pair@HV?$array@M$0BA@@std@@@std@@Uggml_backend_buffer_type@@@std@@PEAX@2@U?$_Tree_id@PEAU?$_Tree_node@U?$pair@$$CBU?$pair@HV?$array@M$0BA@@std@@@std@@Uggml_backend_buffer_type@@@std@@PEAX@std@@@2@QEAU32@@Z
	?_Large_mode_engaged@?$_String_val@U?$_Simple_types@D@std@@@std@@QEBA_NXZ
	?_Lrotate@?$_Tree_val@U?$_Tree_simple_types@U?$pair@$$CBU?$pair@HV?$array@M$0BA@@std@@@std@@Uggml_backend_buffer_type@@@std@@@std@@@std@@QEAAXPEAU?$_Tree_node@U?$pair@$$CBU?$pair@HV?$array@M$0BA@@std@@@std@@Uggml_backend_buffer_type@@@std@@PEAX@2@@Z
	?_Mymtx@_Mutex_base@std@@AEAAPEAU_Mtx_internal_imp_t@@XZ
	?_Myptr@?$_String_val@U?$_Simple_types@D@std@@@std@@QEAAPEADXZ
	?_Myptr@?$_String_val@U?$_Simple_types@D@std@@@std@@QEBAPEBDXZ
	?_Orphan_all@_Container_base0@std@@QEAAXXZ
	?_Orphan_range@?$vector@PEAPEADV?$allocator@PEAPEAD@std@@@std@@AEBAXPEAPEAPEAD0@Z
	?_Orphan_range@?$vector@PEAUCUgraphNode_st@@V?$allocator@PEAUCUgraphNode_st@@@std@@@std@@AEBAXPEAPEAUCUgraphNode_st@@0@Z
	?_Orphan_range@?$vector@PEAUggml_backend_device@@V?$allocator@PEAUggml_backend_device@@@std@@@std@@AEBAXPEAPEAUggml_backend_device@@0@Z
	?_Orphan_range@?$vector@PEAUggml_tensor_extra_gpu@@V?$allocator@PEAUggml_tensor_extra_gpu@@@std@@@std@@AEBAXPEAPEAUggml_tensor_extra_gpu@@0@Z
	?_Orphan_range@?$vector@PEAXV?$allocator@PEAX@std@@@std@@AEBAXPEAPEAX0@Z
	?_Orphan_range@?$vector@UcudaKernelNodeParams@@V?$allocator@UcudaKernelNodeParams@@@std@@@std@@AEBAXPEAUcudaKernelNodeParams@@0@Z
	?_Orphan_range@?$vector@Uggml_backend_feature@@V?$allocator@Uggml_backend_feature@@@std@@@std@@AEBAXPEAUggml_backend_feature@@0@Z
	?_Orphan_range@?$vector@Uggml_graph_node_properties@@V?$allocator@Uggml_graph_node_properties@@@std@@@std@@AEBAXPEAUggml_graph_node_properties@@0@Z
	?_Release@?$_Alloc_construct_ptr@V?$allocator@U?$_Tree_node@U?$pair@$$CBU?$pair@HV?$array@M$0BA@@std@@@std@@Uggml_backend_buffer_type@@@std@@PEAX@std@@@std@@@std@@QEAAPEAU?$_Tree_node@U?$pair@$$CBU?$pair@HV?$array@M$0BA@@std@@@std@@Uggml_backend_buffer_type@@@std@@PEAX@2@XZ
	?_Release@?$_Uninitialized_backout_al@V?$allocator@D@std@@@std@@QEAAPEADXZ
	?_Release@?$_Uninitialized_backout_al@V?$allocator@PEAPEAD@std@@@std@@QEAAPEAPEAPEADXZ
	?_Release@?$_Uninitialized_backout_al@V?$allocator@PEAUCUgraphNode_st@@@std@@@std@@QEAAPEAPEAUCUgraphNode_st@@XZ
	?_Release@?$_Uninitialized_backout_al@V?$allocator@PEAUggml_backend_device@@@std@@@std@@QEAAPEAPEAUggml_backend_device@@XZ
	?_Release@?$_Uninitialized_backout_al@V?$allocator@PEAUggml_tensor_extra_gpu@@@std@@@std@@QEAAPEAPEAUggml_tensor_extra_gpu@@XZ
	?_Release@?$_Uninitialized_backout_al@V?$allocator@PEAX@std@@@std@@QEAAPEAPEAXXZ
	?_Release@?$_Uninitialized_backout_al@V?$allocator@UcudaKernelNodeParams@@@std@@@std@@QEAAPEAUcudaKernelNodeParams@@XZ
	?_Release@?$_Uninitialized_backout_al@V?$allocator@Uggml_backend_feature@@@std@@@std@@QEAAPEAUggml_backend_feature@@XZ
	?_Release@?$_Uninitialized_backout_al@V?$allocator@Uggml_graph_node_properties@@@std@@@std@@QEAAPEAUggml_graph_node_properties@@XZ
	?_Release@_Fake_proxy_ptr_impl@std@@QEAAXXZ
	?_Rrotate@?$_Tree_val@U?$_Tree_simple_types@U?$pair@$$CBU?$pair@HV?$array@M$0BA@@std@@@std@@Uggml_backend_buffer_type@@@std@@@std@@@std@@QEAAXPEAU?$_Tree_node@U?$pair@$$CBU?$pair@HV?$array@M$0BA@@std@@@std@@Uggml_backend_buffer_type@@@std@@PEAX@2@@Z
	?_Seek_to@?$_Vector_const_iterator@V?$_Vector_val@U?$_Simple_types@PEAX@std@@@std@@@std@@QEAAXPEBQEAX@Z
	?_Swap_proxy_and_iterators@?$basic_string@DU?$char_traits@D@std@@V?$allocator@D@2@@std@@AEAAXAEAV12@@Z
	?_Swap_proxy_and_iterators@_Container_base0@std@@QEAAXAEAU12@@Z
	?_Switch_to_buf@_Bxty@?$_String_val@U?$_Simple_types@D@std@@@std@@QEAAXXZ
	?_Take_contents@?$basic_string@DU?$char_traits@D@std@@V?$allocator@D@2@@std@@AEAAXAEAV12@@Z
	?_Throw_bad_array_new_length@std@@YAXXZ
	?_Throw_tree_length_error@std@@YAXXZ
	?_Tidy@?$vector@DV?$allocator@D@std@@@std@@AEAAXXZ
	?_Tidy@?$vector@PEAPEADV?$allocator@PEAPEAD@std@@@std@@AEAAXXZ
	?_Tidy@?$vector@PEAUCUgraphNode_st@@V?$allocator@PEAUCUgraphNode_st@@@std@@@std@@AEAAXXZ
	?_Tidy@?$vector@PEAUggml_backend_device@@V?$allocator@PEAUggml_backend_device@@@std@@@std@@AEAAXXZ
	?_Tidy@?$vector@PEAUggml_tensor_extra_gpu@@V?$allocator@PEAUggml_tensor_extra_gpu@@@std@@@std@@AEAAXXZ
	?_Tidy@?$vector@PEAXV?$allocator@PEAX@std@@@std@@AEAAXXZ
	?_Tidy@?$vector@UcudaKernelNodeParams@@V?$allocator@UcudaKernelNodeParams@@@std@@@std@@AEAAXXZ
	?_Tidy@?$vector@Uggml_backend_feature@@V?$allocator@Uggml_backend_feature@@@std@@@std@@AEAAXXZ
	?_Tidy@?$vector@Uggml_graph_node_properties@@V?$allocator@Uggml_graph_node_properties@@@std@@@std@@AEAAXXZ
	?_Tidy_deallocate@?$basic_string@DU?$char_traits@D@std@@V?$allocator@D@2@@std@@AEAAXXZ
	?_Unchecked_begin@?$vector@PEAUggml_tensor_extra_gpu@@V?$allocator@PEAUggml_tensor_extra_gpu@@@std@@@std@@QEAAPEAPEAUggml_tensor_extra_gpu@@XZ
	?_Unchecked_end@?$vector@PEAUggml_tensor_extra_gpu@@V?$allocator@PEAUggml_tensor_extra_gpu@@@std@@@std@@QEAAPEAPEAUggml_tensor_extra_gpu@@XZ
	?_Unwrapped@?$_Vector_iterator@V?$_Vector_val@U?$_Simple_types@PEAX@std@@@std@@@std@@QEBAPEAPEAXXZ
	?_Verify_ownership_levels@_Mutex_base@std@@IEAA_NXZ
	?_Xlen_string@std@@YAXXZ
	?_Xlength@?$vector@DV?$allocator@D@std@@@std@@CAXXZ
	?_Xlength@?$vector@PEAPEADV?$allocator@PEAPEAD@std@@@std@@CAXXZ
	?_Xlength@?$vector@PEAUCUgraphNode_st@@V?$allocator@PEAUCUgraphNode_st@@@std@@@std@@CAXXZ
	?_Xlength@?$vector@PEAUggml_backend_device@@V?$allocator@PEAUggml_backend_device@@@std@@@std@@CAXXZ
	?_Xlength@?$vector@PEAUggml_tensor_extra_gpu@@V?$allocator@PEAUggml_tensor_extra_gpu@@@std@@@std@@CAXXZ
	?_Xlength@?$vector@PEAXV?$allocator@PEAX@std@@@std@@CAXXZ
	?_Xlength@?$vector@UcudaKernelNodeParams@@V?$allocator@UcudaKernelNodeParams@@@std@@@std@@CAXXZ
	?_Xlength@?$vector@Uggml_backend_feature@@V?$allocator@Uggml_backend_feature@@@std@@@std@@CAXXZ
	?_Xlength@?$vector@Uggml_graph_node_properties@@V?$allocator@Uggml_graph_node_properties@@@std@@@std@@CAXXZ
	?_Xran@?$_String_val@U?$_Simple_types@D@std@@@std@@SAXXZ
	?_Xrange@?$vector@PEAPEADV?$allocator@PEAPEAD@std@@@std@@CAXXZ
	?__get@?$__optional_storage_base@V?$scoped_range_in@UNVTXCCCLDomain@detail@CUB_200500_890_NS@cub@@@v1@nvtx3@@@__4@std@cuda@@QEGAAAEAV?$scoped_range_in@UNVTXCCCLDomain@detail@CUB_200500_890_NS@cub@@@v1@nvtx3@@XZ
	?abs@@YAJJ@Z
	?abs@@YAMM@Z
	?abs@@YANN@Z
	?abs@@YA_J_J@Z
	?acos@@YAMM@Z
	?acosh@@YAMM@Z
	?alloc@?$ggml_cuda_pool_alloc@D@@QEAAPEADAEAUggml_cuda_pool@@_K@Z
	?alloc@?$ggml_cuda_pool_alloc@D@@QEAAPEAD_K@Z
	?alloc@?$ggml_cuda_pool_alloc@E@@QEAAPEAE_K@Z
	?alloc@?$ggml_cuda_pool_alloc@H@@QEAAPEAH_K@Z
	?alloc@?$ggml_cuda_pool_alloc@M@@QEAAPEAMAEAUggml_cuda_pool@@_K@Z
	?alloc@?$ggml_cuda_pool_alloc@M@@QEAAPEAM_K@Z
	?alloc@?$ggml_cuda_pool_alloc@PEAX@@QEAAPEAPEAX_K@Z
	?alloc@?$ggml_cuda_pool_alloc@PEBX@@QEAAPEAPEBX_K@Z
	?alloc@?$ggml_cuda_pool_alloc@U__half@@@@QEAAPEAU__half@@_K@Z
	?alloc@?$ggml_cuda_pool_alloc@Ufloat2@@@@QEAAPEAUfloat2@@_K@Z
	?alloc@?$ggml_cuda_pool_alloc@Ummid_row_mapping@@@@QEAAPEAUmmid_row_mapping@@_K@Z
	?alloc@ggml_cuda_pool_leg@@UEAAPEAX_KPEA_K@Z
	?alloc@ggml_cuda_pool_vmm@@UEAAPEAX_KPEA_K@Z
	?allocate@?$allocator@D@std@@QEAAPEAD_K@Z
	?allocate@?$allocator@PEAPEAD@std@@QEAAPEAPEAPEAD_K@Z
	?allocate@?$allocator@PEAUCUgraphNode_st@@@std@@QEAAPEAPEAUCUgraphNode_st@@_K@Z
	?allocate@?$allocator@PEAUggml_backend_device@@@std@@QEAAPEAPEAUggml_backend_device@@_K@Z
	?allocate@?$allocator@PEAUggml_tensor_extra_gpu@@@std@@QEAAPEAPEAUggml_tensor_extra_gpu@@_K@Z
	?allocate@?$allocator@PEAX@std@@QEAAPEAPEAX_K@Z
	?allocate@?$allocator@U?$_Tree_node@U?$pair@$$CBU?$pair@HV?$array@M$0BA@@std@@@std@@Uggml_backend_buffer_type@@@std@@PEAX@std@@@std@@QEAAPEAU?$_Tree_node@U?$pair@$$CBU?$pair@HV?$array@M$0BA@@std@@@std@@Uggml_backend_buffer_type@@@std@@PEAX@2@_K@Z
	?allocate@?$allocator@UcudaKernelNodeParams@@@std@@QEAAPEAUcudaKernelNodeParams@@_K@Z
	?allocate@?$allocator@Uggml_backend_feature@@@std@@QEAAPEAUggml_backend_feature@@_K@Z
	?allocate@?$allocator@Uggml_graph_node_properties@@@std@@QEAAPEAUggml_graph_node_properties@@_K@Z
	?append@?$basic_string@DU?$char_traits@D@std@@V?$allocator@D@2@@std@@QEAAAEAV12@QEBD@Z
	?append@?$basic_string@DU?$char_traits@D@std@@V?$allocator@D@2@@std@@QEAAAEAV12@QEBD_K@Z
	?asin@@YAMM@Z
	?asinh@@YAMM@Z
	?assign@?$_Narrow_char_traits@DH@std@@SAXAEADAEBD@Z
	?assign@?$basic_string@DU?$char_traits@D@std@@V?$allocator@D@2@@std@@QEAAAEAV12@QEBD@Z
	?assign@?$basic_string@DU?$char_traits@D@std@@V?$allocator@D@2@@std@@QEAAAEAV12@QEBD_K@Z
	?at@?$vector@PEAPEADV?$allocator@PEAPEAD@std@@@std@@QEAAAEAPEAPEAD_K@Z
	?atan2@@YAMMM@Z
	?atan@@YAMM@Z
	?atanh@@YAMM@Z
	?begin@?$vector@PEAXV?$allocator@PEAX@std@@@std@@QEAA?AV?$_Vector_iterator@V?$_Vector_val@U?$_Simple_types@PEAX@std@@@std@@@2@XZ
	?c_str@?$basic_string@DU?$char_traits@D@std@@V?$allocator@D@2@@std@@QEBAPEBDXZ
	?capacity@?$vector@PEAPEADV?$allocator@PEAPEAD@std@@@std@@QEBA_KXZ
	?capacity@?$vector@PEAUCUgraphNode_st@@V?$allocator@PEAUCUgraphNode_st@@@std@@@std@@QEBA_KXZ
	?capacity@?$vector@PEAUggml_backend_device@@V?$allocator@PEAUggml_backend_device@@@std@@@std@@QEBA_KXZ
	?capacity@?$vector@PEAUggml_tensor_extra_gpu@@V?$allocator@PEAUggml_tensor_extra_gpu@@@std@@@std@@QEBA_KXZ
	?capacity@?$vector@PEAXV?$allocator@PEAX@std@@@std@@QEBA_KXZ
	?capacity@?$vector@UcudaKernelNodeParams@@V?$allocator@UcudaKernelNodeParams@@@std@@@std@@QEBA_KXZ
	?capacity@?$vector@Uggml_backend_feature@@V?$allocator@Uggml_backend_feature@@@std@@@std@@QEBA_KXZ
	?capacity@?$vector@Uggml_graph_node_properties@@V?$allocator@Uggml_graph_node_properties@@@std@@@std@@QEBA_KXZ
	?cbrt@@YAMM@Z
	?ceil@@YAMM@Z
	?clear@?$vector@PEAPEADV?$allocator@PEAPEAD@std@@@std@@QEAAXXZ
	?clear@?$vector@PEAUCUgraphNode_st@@V?$allocator@PEAUCUgraphNode_st@@@std@@@std@@QEAAXXZ
	?clear@?$vector@UcudaKernelNodeParams@@V?$allocator@UcudaKernelNodeParams@@@std@@@std@@QEAAXXZ
	?compare_exchange_strong@?$_Atomic_storage@W4DeviceEntryStatus@PerDeviceAttributeCache@CUB_200500_890_NS@cub@@$03@std@@QEAA_NAEAW4DeviceEntryStatus@PerDeviceAttributeCache@CUB_200500_890_NS@cub@@W43456@W4memory_order@2@@Z
	?compare_exchange_strong@?$atomic@W4DeviceEntryStatus@PerDeviceAttributeCache@CUB_200500_890_NS@cub@@@std@@QEAA_NAEAW4DeviceEntryStatus@PerDeviceAttributeCache@CUB_200500_890_NS@cub@@W43456@W4memory_order@2@2@Z
	?copy@?$_Char_traits@DH@std@@SAPEADQEADQEBD_K@Z
	?copysign@@YAMMM@Z
	?cos@@YAMM@Z
	?cosh@@YAMM@Z
	?cublas_handle@ggml_backend_cuda_context@@QEAAPEAUcublasContext@@H@Z
	?cublas_handle@ggml_backend_cuda_context@@QEAAPEAUcublasContext@@XZ
	?data@?$array@M$0BA@@std@@QEBAPEBMXZ
	?data@?$vector@DV?$allocator@D@std@@@std@@QEAAPEADXZ
	?data@?$vector@PEAUCUgraphNode_st@@V?$allocator@PEAUCUgraphNode_st@@@std@@@std@@QEAAPEAPEAUCUgraphNode_st@@XZ
	?data@?$vector@Uggml_backend_feature@@V?$allocator@Uggml_backend_feature@@@std@@@std@@QEAAPEAUggml_backend_feature@@XZ
	?deallocate@?$_Default_allocator_traits@V?$allocator@U?$_Tree_node@U?$pair@$$CBU?$pair@HV?$array@M$0BA@@std@@@std@@Uggml_backend_buffer_type@@@std@@PEAX@std@@@std@@@std@@SAXAEAV?$allocator@U?$_Tree_node@U?$pair@$$CBU?$pair@HV?$array@M$0BA@@std@@@std@@Uggml_backend_buffer_type@@@std@@PEAX@std@@@2@QEAU?$_Tree_node@U?$pair@$$CBU?$pair@HV?$array@M$0BA@@std@@@std@@Uggml_backend_buffer_type@@@std@@PEAX@2@_K@Z
	?deallocate@?$allocator@D@std@@QEAAXQEAD_K@Z
	?deallocate@?$allocator@PEAPEAD@std@@QEAAXQEAPEAPEAD_K@Z
	?deallocate@?$allocator@PEAUCUgraphNode_st@@@std@@QEAAXQEAPEAUCUgraphNode_st@@_K@Z
	?deallocate@?$allocator@PEAUggml_backend_device@@@std@@QEAAXQEAPEAUggml_backend_device@@_K@Z
	?deallocate@?$allocator@PEAUggml_tensor_extra_gpu@@@std@@QEAAXQEAPEAUggml_tensor_extra_gpu@@_K@Z
	?deallocate@?$allocator@PEAX@std@@QEAAXQEAPEAX_K@Z
	?deallocate@?$allocator@U?$_Tree_node@U?$pair@$$CBU?$pair@HV?$array@M$0BA@@std@@@std@@Uggml_backend_buffer_type@@@std@@PEAX@std@@@std@@QEAAXQEAU?$_Tree_node@U?$pair@$$CBU?$pair@HV?$array@M$0BA@@std@@@std@@Uggml_backend_buffer_type@@@std@@PEAX@2@_K@Z
	?deallocate@?$allocator@UcudaKernelNodeParams@@@std@@QEAAXQEAUcudaKernelNodeParams@@_K@Z
	?deallocate@?$allocator@Uggml_backend_feature@@@std@@QEAAXQEAUggml_backend_feature@@_K@Z
	?deallocate@?$allocator@Uggml_graph_node_properties@@@std@@QEAAXQEAUggml_graph_node_properties@@_K@Z
	?end@?$_Tree@V?$_Tmap_traits@U?$pair@HV?$array@M$0BA@@std@@@std@@Uggml_backend_buffer_type@@U?$less@U?$pair@HV?$array@M$0BA@@std@@@std@@@2@V?$allocator@U?$pair@$$CBU?$pair@HV?$array@M$0BA@@std@@@std@@Uggml_backend_buffer_type@@@std@@@2@$0A@@std@@@std@@QEAA?AV?$_Tree_iterator@V?$_Tree_val@U?$_Tree_simple_types@U?$pair@$$CBU?$pair@HV?$array@M$0BA@@std@@@std@@Uggml_backend_buffer_type@@@std@@@std@@@std@@@2@XZ
	?end@?$vector@PEAXV?$allocator@PEAX@std@@@std@@QEAA?AV?$_Vector_iterator@V?$_Vector_val@U?$_Simple_types@PEAX@std@@@std@@@2@XZ
	?erf@@YAMM@Z
	?erfc@@YAMM@Z
	?exp2@@YAMM@Z
	?exp@@YAMM@Z
	?expm1@@YAMM@Z
	?fabs@@YAMM@Z
	?fdim@@YAMMM@Z
	?find@?$_Tree@V?$_Tmap_traits@U?$pair@HV?$array@M$0BA@@std@@@std@@Uggml_backend_buffer_type@@U?$less@U?$pair@HV?$array@M$0BA@@std@@@std@@@2@V?$allocator@U?$pair@$$CBU?$pair@HV?$array@M$0BA@@std@@@std@@Uggml_backend_buffer_type@@@std@@@2@$0A@@std@@@std@@QEAA?AV?$_Tree_iterator@V?$_Tree_val@U?$_Tree_simple_types@U?$pair@$$CBU?$pair@HV?$array@M$0BA@@std@@@std@@Uggml_backend_buffer_type@@@std@@@std@@@std@@@2@AEBU?$pair@HV?$array@M$0BA@@std@@@2@@Z
	?floor@@YAMM@Z
	?fma@@YAMMMM@Z
	?fmax@@YAMMM@Z
	?fmin@@YAMMM@Z
	?fmod@@YAMMM@Z
	?free@ggml_cuda_pool_leg@@UEAAXPEAX_K@Z
	?free@ggml_cuda_pool_vmm@@UEAAXPEAX_K@Z
	?frexp@@YAMMPEAH@Z
	?get@?$ggml_cuda_pool_alloc@D@@QEAAPEADXZ
	?get@?$ggml_cuda_pool_alloc@H@@QEAAPEAHXZ
	?get@?$ggml_cuda_pool_alloc@M@@QEAAPEAMXZ
	?get@?$ggml_cuda_pool_alloc@PEAX@@QEAAPEAPEAXXZ
	?get@?$ggml_cuda_pool_alloc@PEBX@@QEAAPEAPEBXXZ
	?get@?$ggml_cuda_pool_alloc@U__half@@@@QEAAPEAU__half@@XZ
	?get@?$ggml_cuda_pool_alloc@Ummid_row_mapping@@@@QEAAPEAUmmid_row_mapping@@XZ
	?get@event_attributes@v1@nvtx3@@QEBAPEBUnvtxEventAttributes_v2@@XZ
	?get_deleter@?$unique_ptr@Uggml_cuda_pool@@U?$default_delete@Uggml_cuda_pool@@@std@@@std@@QEAAAEAU?$default_delete@Uggml_cuda_pool@@@2@XZ
	?get_handle@?$registered_string_in@UNVTXCCCLDomain@detail@CUB_200500_890_NS@cub@@@v1@nvtx3@@QEBAPEAUnvtxStringRegistration_st@@XZ
	?get_type@message@v1@nvtx3@@QEBA?AW4nvtxMessageType_t@@XZ
	?get_value@message@v1@nvtx3@@QEBA?ATnvtxMessageValue_t@@XZ
	?ggml_cuda_argmax@@YAXAEAUggml_backend_cuda_context@@PEAUggml_tensor@@@Z
	?ggml_cuda_count_equal@@YAXAEAUggml_backend_cuda_context@@PEAUggml_tensor@@@Z
	?ggml_cuda_cpy@@YAXAEAUggml_backend_cuda_context@@PEBUggml_tensor@@PEAU2@@Z
	?ggml_cuda_cpy_fn@@YAPEAXPEBUggml_tensor@@PEAU1@@Z
	?ggml_cuda_cross_entropy_loss@@YAXAEAUggml_backend_cuda_context@@PEAUggml_tensor@@@Z
	?ggml_cuda_cross_entropy_loss_back@@YAXAEAUggml_backend_cuda_context@@PEAUggml_tensor@@@Z
	?ggml_cuda_dup@@YAXAEAUggml_backend_cuda_context@@PEAUggml_tensor@@@Z
	?ggml_cuda_error@@YAXPEBD00H0@Z
	?ggml_cuda_flash_attn_ext@@YAXAEAUggml_backend_cuda_context@@PEAUggml_tensor@@@Z
	?ggml_cuda_flash_attn_ext_tile_f16@@YAXAEAUggml_backend_cuda_context@@PEAUggml_tensor@@@Z
	?ggml_cuda_flash_attn_ext_tile_f32@@YAXAEAUggml_backend_cuda_context@@PEAUggml_tensor@@@Z
	?ggml_cuda_get_device@@YAHXZ
	?ggml_cuda_info@@YAAEBUggml_cuda_device_info@@XZ
	?ggml_cuda_mul_mat_vec@@YAXAEAUggml_backend_cuda_context@@PEBUggml_tensor@@1PEAU2@@Z
	?ggml_cuda_op_acc@@YAXAEAUggml_backend_cuda_context@@PEAUggml_tensor@@@Z
	?ggml_cuda_op_add@@YAXAEAUggml_backend_cuda_context@@PEAUggml_tensor@@@Z
	?ggml_cuda_op_arange@@YAXAEAUggml_backend_cuda_context@@PEAUggml_tensor@@@Z
	?ggml_cuda_op_argsort@@YAXAEAUggml_backend_cuda_context@@PEAUggml_tensor@@@Z
	?ggml_cuda_op_clamp@@YAXAEAUggml_backend_cuda_context@@PEAUggml_tensor@@@Z
	?ggml_cuda_op_concat@@YAXAEAUggml_backend_cuda_context@@PEAUggml_tensor@@@Z
	?ggml_cuda_op_conv_transpose_1d@@YAXAEAUggml_backend_cuda_context@@PEAUggml_tensor@@@Z
	?ggml_cuda_op_cos@@YAXAEAUggml_backend_cuda_context@@PEAUggml_tensor@@@Z
	?ggml_cuda_op_diag_mask_inf@@YAXAEAUggml_backend_cuda_context@@PEAUggml_tensor@@@Z
	?ggml_cuda_op_div@@YAXAEAUggml_backend_cuda_context@@PEAUggml_tensor@@@Z
	?ggml_cuda_op_exp@@YAXAEAUggml_backend_cuda_context@@PEAUggml_tensor@@@Z
	?ggml_cuda_op_gelu@@YAXAEAUggml_backend_cuda_context@@PEAUggml_tensor@@@Z
	?ggml_cuda_op_gelu_quick@@YAXAEAUggml_backend_cuda_context@@PEAUggml_tensor@@@Z
	?ggml_cuda_op_get_rows@@YAXAEAUggml_backend_cuda_context@@PEAUggml_tensor@@@Z
	?ggml_cuda_op_group_norm@@YAXAEAUggml_backend_cuda_context@@PEAUggml_tensor@@@Z
	?ggml_cuda_op_hardsigmoid@@YAXAEAUggml_backend_cuda_context@@PEAUggml_tensor@@@Z
	?ggml_cuda_op_hardswish@@YAXAEAUggml_backend_cuda_context@@PEAUggml_tensor@@@Z
	?ggml_cuda_op_im2col@@YAXAEAUggml_backend_cuda_context@@PEAUggml_tensor@@@Z
	?ggml_cuda_op_leaky_relu@@YAXAEAUggml_backend_cuda_context@@PEAUggml_tensor@@@Z
	?ggml_cuda_op_mul@@YAXAEAUggml_backend_cuda_context@@PEAUggml_tensor@@@Z
	?ggml_cuda_op_mul_mat_q@@YAXAEAUggml_backend_cuda_context@@PEBUggml_tensor@@1PEAU2@PEBDPEBM3PEAM_J666PEAUCUstream_st@@@Z
	?ggml_cuda_op_mul_mat_vec@@YAXAEAUggml_backend_cuda_context@@PEBUggml_tensor@@1PEAU2@PEBDPEBM3PEAM_J666PEAUCUstream_st@@@Z
	?ggml_cuda_op_mul_mat_vec_q@@YAXAEAUggml_backend_cuda_context@@PEBUggml_tensor@@1PEAU2@PEBDPEBM3PEAM_J666PEAUCUstream_st@@@Z
	?ggml_cuda_op_neg@@YAXAEAUggml_backend_cuda_context@@PEAUggml_tensor@@@Z
	?ggml_cuda_op_norm@@YAXAEAUggml_backend_cuda_context@@PEAUggml_tensor@@@Z
	?ggml_cuda_op_pad@@YAXAEAUggml_backend_cuda_context@@PEAUggml_tensor@@@Z
	?ggml_cuda_op_pool2d@@YAXAEAUggml_backend_cuda_context@@PEAUggml_tensor@@@Z
	?ggml_cuda_op_relu@@YAXAEAUggml_backend_cuda_context@@PEAUggml_tensor@@@Z
	?ggml_cuda_op_repeat@@YAXAEAUggml_backend_cuda_context@@PEAUggml_tensor@@@Z
	?ggml_cuda_op_repeat_back@@YAXAEAUggml_backend_cuda_context@@PEAUggml_tensor@@@Z
	?ggml_cuda_op_rms_norm@@YAXAEAUggml_backend_cuda_context@@PEAUggml_tensor@@@Z
	?ggml_cuda_op_rope@@YAXAEAUggml_backend_cuda_context@@PEAUggml_tensor@@@Z
	?ggml_cuda_op_rwkv_wkv6@@YAXAEAUggml_backend_cuda_context@@PEAUggml_tensor@@@Z
	?ggml_cuda_op_scale@@YAXAEAUggml_backend_cuda_context@@PEAUggml_tensor@@@Z
	?ggml_cuda_op_sigmoid@@YAXAEAUggml_backend_cuda_context@@PEAUggml_tensor@@@Z
	?ggml_cuda_op_silu@@YAXAEAUggml_backend_cuda_context@@PEAUggml_tensor@@@Z
	?ggml_cuda_op_sin@@YAXAEAUggml_backend_cuda_context@@PEAUggml_tensor@@@Z
	?ggml_cuda_op_soft_max@@YAXAEAUggml_backend_cuda_context@@PEAUggml_tensor@@@Z
	?ggml_cuda_op_sqr@@YAXAEAUggml_backend_cuda_context@@PEAUggml_tensor@@@Z
	?ggml_cuda_op_sqrt@@YAXAEAUggml_backend_cuda_context@@PEAUggml_tensor@@@Z
	?ggml_cuda_op_step@@YAXAEAUggml_backend_cuda_context@@PEAUggml_tensor@@@Z
	?ggml_cuda_op_sub@@YAXAEAUggml_backend_cuda_context@@PEAUggml_tensor@@@Z
	?ggml_cuda_op_sum@@YAXAEAUggml_backend_cuda_context@@PEAUggml_tensor@@@Z
	?ggml_cuda_op_sum_rows@@YAXAEAUggml_backend_cuda_context@@PEAUggml_tensor@@@Z
	?ggml_cuda_op_tanh@@YAXAEAUggml_backend_cuda_context@@PEAUggml_tensor@@@Z
	?ggml_cuda_op_timestep_embedding@@YAXAEAUggml_backend_cuda_context@@PEAUggml_tensor@@@Z
	?ggml_cuda_op_upscale@@YAXAEAUggml_backend_cuda_context@@PEAUggml_tensor@@@Z
	?ggml_cuda_opt_step_adamw@@YAXAEAUggml_backend_cuda_context@@PEAUggml_tensor@@@Z
	?ggml_cuda_out_prod@@YAXAEAUggml_backend_cuda_context@@PEAUggml_tensor@@@Z
	?ggml_cuda_set_device@@YAXH@Z
	?ggml_cuda_should_use_mmq@@YA_NW4ggml_type@@H_J@Z
	?ggml_get_to_fp16_cuda@@YAP6AXPEIBXPEIAU__half@@_JPEAUCUstream_st@@@ZW4ggml_type@@@Z
	?ggml_get_to_fp32_cuda@@YAP6AXPEIBXPEIAM_JPEAUCUstream_st@@@ZW4ggml_type@@@Z
	?hypot@@YAMMM@Z
	?ilogb@@YAHM@Z
	?insert@?$basic_string@DU?$char_traits@D@std@@V?$allocator@D@2@@std@@QEAAAEAV12@_KQEBD0@Z
	?insert@?$basic_string@DU?$char_traits@D@std@@V?$allocator@D@2@@std@@QEAAAEAV12@_KQEBD@Z
	?ldexp@@YAMMH@Z
	?length@?$_Narrow_char_traits@DH@std@@SA_KQEBD@Z
	?lgamma@@YAMM@Z
	?llrint@@YA_JM@Z
	?llround@@YA_JM@Z
	?load@?$_Atomic_storage@W4DeviceEntryStatus@PerDeviceAttributeCache@CUB_200500_890_NS@cub@@$03@std@@QEBA?AW4DeviceEntryStatus@PerDeviceAttributeCache@CUB_200500_890_NS@cub@@W4memory_order@2@@Z
	?lock@_Mutex_base@std@@QEAAXXZ
	?log10@@YAMM@Z
	?log1p@@YAMM@Z
	?log2@@YAMM@Z
	?log@@YAMM@Z
	?logb@@YAMM@Z
	?lrint@@YAJM@Z
	?lround@@YAJM@Z
	?max_size@?$_Default_allocator_traits@V?$allocator@D@std@@@std@@SA_KAEBV?$allocator@D@2@@Z
	?max_size@?$_Default_allocator_traits@V?$allocator@PEAPEAD@std@@@std@@SA_KAEBV?$allocator@PEAPEAD@2@@Z
	?max_size@?$_Default_allocator_traits@V?$allocator@PEAUCUgraphNode_st@@@std@@@std@@SA_KAEBV?$allocator@PEAUCUgraphNode_st@@@2@@Z
	?max_size@?$_Default_allocator_traits@V?$allocator@PEAUggml_backend_device@@@std@@@std@@SA_KAEBV?$allocator@PEAUggml_backend_device@@@2@@Z
	?max_size@?$_Default_allocator_traits@V?$allocator@PEAUggml_tensor_extra_gpu@@@std@@@std@@SA_KAEBV?$allocator@PEAUggml_tensor_extra_gpu@@@2@@Z
	?max_size@?$_Default_allocator_traits@V?$allocator@PEAX@std@@@std@@SA_KAEBV?$allocator@PEAX@2@@Z
	?max_size@?$_Default_allocator_traits@V?$allocator@U?$_Tree_node@U?$pair@$$CBU?$pair@HV?$array@M$0BA@@std@@@std@@Uggml_backend_buffer_type@@@std@@PEAX@std@@@std@@@std@@SA_KAEBV?$allocator@U?$_Tree_node@U?$pair@$$CBU?$pair@HV?$array@M$0BA@@std@@@std@@Uggml_backend_buffer_type@@@std@@PEAX@std@@@2@@Z
	?max_size@?$_Default_allocator_traits@V?$allocator@UcudaKernelNodeParams@@@std@@@std@@SA_KAEBV?$allocator@UcudaKernelNodeParams@@@2@@Z
	?max_size@?$_Default_allocator_traits@V?$allocator@Uggml_backend_feature@@@std@@@std@@SA_KAEBV?$allocator@Uggml_backend_feature@@@2@@Z
	?max_size@?$_Default_allocator_traits@V?$allocator@Uggml_graph_node_properties@@@std@@@std@@SA_KAEBV?$allocator@Uggml_graph_node_properties@@@2@@Z
	?max_size@?$_Tree@V?$_Tmap_traits@U?$pair@HV?$array@M$0BA@@std@@@std@@Uggml_backend_buffer_type@@U?$less@U?$pair@HV?$array@M$0BA@@std@@@std@@@2@V?$allocator@U?$pair@$$CBU?$pair@HV?$array@M$0BA@@std@@@std@@Uggml_backend_buffer_type@@@std@@@2@$0A@@std@@@std@@QEBA_KXZ
	?max_size@?$basic_string@DU?$char_traits@D@std@@V?$allocator@D@2@@std@@QEBA_KXZ
	?max_size@?$vector@DV?$allocator@D@std@@@std@@QEBA_KXZ
	?max_size@?$vector@PEAPEADV?$allocator@PEAPEAD@std@@@std@@QEBA_KXZ
	?max_size@?$vector@PEAUCUgraphNode_st@@V?$allocator@PEAUCUgraphNode_st@@@std@@@std@@QEBA_KXZ
	?max_size@?$vector@PEAUggml_backend_device@@V?$allocator@PEAUggml_backend_device@@@std@@@std@@QEBA_KXZ
	?max_size@?$vector@PEAUggml_tensor_extra_gpu@@V?$allocator@PEAUggml_tensor_extra_gpu@@@std@@@std@@QEBA_KXZ
	?max_size@?$vector@PEAXV?$allocator@PEAX@std@@@std@@QEBA_KXZ
	?max_size@?$vector@UcudaKernelNodeParams@@V?$allocator@UcudaKernelNodeParams@@@std@@@std@@QEBA_KXZ
	?max_size@?$vector@Uggml_backend_feature@@V?$allocator@Uggml_backend_feature@@@std@@@std@@QEBA_KXZ
	?max_size@?$vector@Uggml_graph_node_properties@@V?$allocator@Uggml_graph_node_properties@@@std@@@std@@QEBA_KXZ
	?modf@@YAMMPEAM@Z
	?move@?$_Char_traits@DH@std@@SAPEADQEADQEBD_K@Z
	?nearbyint@@YAMM@Z
	?new_pool_for_device@ggml_backend_cuda_context@@SA?AV?$unique_ptr@Uggml_cuda_pool@@U?$default_delete@Uggml_cuda_pool@@@std@@@std@@H@Z
	?nextafter@@YAMMM@Z
	?pointer_to@?$pointer_traits@PEAU?$pair@$$CBU?$pair@HV?$array@M$0BA@@std@@@std@@Uggml_backend_buffer_type@@@std@@@std@@SAPEAU?$pair@$$CBU?$pair@HV?$array@M$0BA@@std@@@std@@Uggml_backend_buffer_type@@@2@AEAU32@@Z
	?pool@ggml_backend_cuda_context@@QEAAAEAUggml_cuda_pool@@H@Z
	?pool@ggml_backend_cuda_context@@QEAAAEAUggml_cuda_pool@@XZ
	?pow@@YAMMM@Z
	?push_back@?$vector@PEAPEADV?$allocator@PEAPEAD@std@@@std@@QEAAX$$QEAPEAPEAD@Z
	?push_back@?$vector@PEAUggml_backend_device@@V?$allocator@PEAUggml_backend_device@@@std@@@std@@QEAAXAEBQEAUggml_backend_device@@@Z
	?push_back@?$vector@PEAUggml_tensor_extra_gpu@@V?$allocator@PEAUggml_tensor_extra_gpu@@@std@@@std@@QEAAXAEBQEAUggml_tensor_extra_gpu@@@Z
	?push_back@?$vector@PEAXV?$allocator@PEAX@std@@@std@@QEAAXAEBQEAX@Z
	?push_back@?$vector@Uggml_backend_feature@@V?$allocator@Uggml_backend_feature@@@std@@@std@@QEAAX$$QEAUggml_backend_feature@@@Z
	?quantize_mmq_q8_1_cuda@@YAXPEBMPEAX_J222W4ggml_type@@PEAUCUstream_st@@@Z
	?quantize_row_q8_1_cuda@@YAXPEBMPEAX_J222W4ggml_type@@PEAUCUstream_st@@@Z
	?release@?$unique_ptr@Uggml_cuda_pool@@U?$default_delete@Uggml_cuda_pool@@@std@@@std@@QEAAPEAUggml_cuda_pool@@XZ
	?remainder@@YAMMM@Z
	?remquo@@YAMMMPEAH@Z
	?reset@?$__optional_destruct_base@V?$scoped_range_in@UNVTXCCCLDomain@detail@CUB_200500_890_NS@cub@@@v1@nvtx3@@$0A@@__4@std@cuda@@QEAAXXZ
	?reset@?$unique_ptr@Uggml_cuda_graph@@U?$default_delete@Uggml_cuda_graph@@@std@@@std@@QEAAXPEAUggml_cuda_graph@@@Z
	?reset@?$unique_ptr@Uggml_cuda_pool@@U?$default_delete@Uggml_cuda_pool@@@std@@@std@@QEAAXPEAUggml_cuda_pool@@@Z
	?resize@?$vector@PEAUCUgraphNode_st@@V?$allocator@PEAUCUgraphNode_st@@@std@@@std@@QEAAX_K@Z
	?resize@?$vector@UcudaKernelNodeParams@@V?$allocator@UcudaKernelNodeParams@@@std@@@std@@QEAAX_K@Z
	?resize@?$vector@Uggml_graph_node_properties@@V?$allocator@Uggml_graph_node_properties@@@std@@@std@@QEAAX_K@Z
	?rint@@YAMM@Z
	?round@@YAMM@Z
	?scalbln@@YAMMJ@Z
	?signbit@@YA_NM@Z
	?signbit@@YA_NN@Z
	?signbit@@YA_NO@Z
	?sin@@YAMM@Z
	?sinh@@YAMM@Z
	?size@?$vector@PEAUggml_backend_device@@V?$allocator@PEAUggml_backend_device@@@std@@@std@@QEBA_KXZ
	?size@?$vector@Uggml_graph_node_properties@@V?$allocator@Uggml_graph_node_properties@@@std@@@std@@QEBA_KXZ
	?sqrt@@YAMM@Z
	?store@?$_Atomic_storage@W4DeviceEntryStatus@PerDeviceAttributeCache@CUB_200500_890_NS@cub@@$03@std@@QEAAXW4DeviceEntryStatus@PerDeviceAttributeCache@CUB_200500_890_NS@cub@@@Z
	?store@?$_Atomic_storage@W4DeviceEntryStatus@PerDeviceAttributeCache@CUB_200500_890_NS@cub@@$03@std@@QEAAXW4DeviceEntryStatus@PerDeviceAttributeCache@CUB_200500_890_NS@cub@@W4memory_order@2@@Z
	?stream@ggml_backend_cuda_context@@QEAAPEAUCUstream_st@@HH@Z
	?stream@ggml_backend_cuda_context@@QEAAPEAUCUstream_st@@XZ
	?sum_f32_cuda@@YAXAEAUggml_cuda_pool@@PEBMPEAM_JPEAUCUstream_st@@@Z
	?sum_rows_f32_cuda@@YAXPEBMPEAMHHPEAUCUstream_st@@@Z
	?tan@@YAMM@Z
	?tanh@@YAMM@Z
	?tgamma@@YAMM@Z
	?to_string@std@@YA?AV?$basic_string@DU?$char_traits@D@std@@V?$allocator@D@2@@1@H@Z
	?trunc@@YAMM@Z
	?unlock@_Mutex_base@std@@QEAAXXZ
	?what@exception@std@@UEBAPEBDXZ
	_Check_memory_order
	__local_stdio_printf_options
	_vfprintf_l
	fabsf
	fprintf
	frexpf
	ggml_backend_cuda_buffer_type
	ggml_backend_cuda_get_device_count
	ggml_backend_cuda_get_device_description
	ggml_backend_cuda_get_device_memory
	ggml_backend_cuda_host_buffer_type
	ggml_backend_cuda_init
	ggml_backend_cuda_reg
	ggml_backend_cuda_register_host_buffer
	ggml_backend_cuda_split_buffer_type
	ggml_backend_cuda_unregister_host_buffer
	ggml_backend_is_cuda
	ldexpf
	nvtxDomainCreateA_impl_init_v3
	nvtxDomainCreateW_impl_init_v3
	nvtxDomainDestroy_impl_init_v3
	nvtxDomainMarkEx_impl_init_v3
	nvtxDomainNameCategoryA_impl_init_v3
	nvtxDomainNameCategoryW_impl_init_v3
	nvtxDomainRangeEnd_impl_init_v3
	nvtxDomainRangePop_impl_init_v3
	nvtxDomainRangePushEx_impl_init_v3
	nvtxDomainRangeStartEx_impl_init_v3
	nvtxDomainRegisterStringA_impl_init_v3
	nvtxDomainRegisterStringW_impl_init_v3
	nvtxDomainResourceCreate_impl_init_v3
	nvtxDomainResourceDestroy_impl_init_v3
	nvtxDomainSyncUserAcquireFailed_impl_init_v3
	nvtxDomainSyncUserAcquireStart_impl_init_v3
	nvtxDomainSyncUserAcquireSuccess_impl_init_v3
	nvtxDomainSyncUserCreate_impl_init_v3
	nvtxDomainSyncUserDestroy_impl_init_v3
	nvtxDomainSyncUserReleasing_impl_init_v3
	nvtxEtiGetModuleFunctionTable_v3
	nvtxEtiSetInjectionNvtxVersion_v3
	nvtxGetExportTable_v3
	nvtxInitOnce_v3
	nvtxInitializeInjectionLibrary_v3
	nvtxInitialize_impl_init_v3
	nvtxMarkA_impl_init_v3
	nvtxMarkEx_impl_init_v3
	nvtxMarkW_impl_init_v3
	nvtxNameCategoryA_impl_init_v3
	nvtxNameCategoryW_impl_init_v3
	nvtxNameClCommandQueueA_impl_init_v3
	nvtxNameClCommandQueueW_impl_init_v3
	nvtxNameClContextA_impl_init_v3
	nvtxNameClContextW_impl_init_v3
	nvtxNameClDeviceA_impl_init_v3
	nvtxNameClDeviceW_impl_init_v3
	nvtxNameClEventA_impl_init_v3
	nvtxNameClEventW_impl_init_v3
	nvtxNameClMemObjectA_impl_init_v3
	nvtxNameClMemObjectW_impl_init_v3
	nvtxNameClProgramA_impl_init_v3
	nvtxNameClProgramW_impl_init_v3
	nvtxNameClSamplerA_impl_init_v3
	nvtxNameClSamplerW_impl_init_v3
	nvtxNameCuContextA_impl_init_v3
	nvtxNameCuContextW_impl_init_v3
	nvtxNameCuDeviceA_impl_init_v3
	nvtxNameCuDeviceW_impl_init_v3
	nvtxNameCuEventA_impl_init_v3
	nvtxNameCuEventW_impl_init_v3
	nvtxNameCuStreamA_impl_init_v3
	nvtxNameCuStreamW_impl_init_v3
	nvtxNameCudaDeviceA_impl_init_v3
	nvtxNameCudaDeviceW_impl_init_v3
	nvtxNameCudaEventA_impl_init_v3
	nvtxNameCudaEventW_impl_init_v3
	nvtxNameCudaStreamA_impl_init_v3
	nvtxNameCudaStreamW_impl_init_v3
	nvtxNameOsThreadA_impl_init_v3
	nvtxNameOsThreadW_impl_init_v3
	nvtxRangeEnd_impl_init_v3
	nvtxRangePop_impl_init_v3
	nvtxRangePushA_impl_init_v3
	nvtxRangePushEx_impl_init_v3
	nvtxRangePushW_impl_init_v3
	nvtxRangeStartA_impl_init_v3
	nvtxRangeStartEx_impl_init_v3
	nvtxRangeStartW_impl_init_v3
	nvtxSetInitFunctionsToNoops_v3
	snprintf
	vsnprintf
