EXPORTS 
	??_R0?AVbad_alloc@std@@@8 	 DATA
	??_R0?AVbad_array_new_length@std@@@8 	 DATA
	??_R0?AVexception@std@@@8 	 DATA
	??$?0PEAD$0A@@?$basic_string@DU?$char_traits@D@std@@V?$allocator@D@2@@std@@QEAA@PEAD0AEBV?$allocator@D@1@@Z
	??$_Allocate_manually_vector_aligned@U_Default_allocate_traits@std@@@std@@YAPEAX_K@Z
	??$_Copy_memmove@PEAPEAUggml_backend_buffer_type@@PEAPEAU1@@std@@YAPEAPEAUggml_backend_buffer_type@@PEAPEAU1@00@Z
	??$_Copy_memmove@PEAUggml_backend_feature@@PEAU1@@std@@YAPEAUggml_backend_feature@@PEAU1@00@Z
	??$_Emplace_reallocate@PEAUggml_backend_buffer_type@@@?$vector@PEAUggml_backend_buffer_type@@V?$allocator@PEAUggml_backend_buffer_type@@@std@@@std@@AEAAPEAPEAUggml_backend_buffer_type@@QEAPEAU2@$$QEAPEAU2@@Z
	??$_Emplace_reallocate@Uggml_backend_feature@@@?$vector@Uggml_backend_feature@@V?$allocator@Uggml_backend_feature@@@std@@@std@@AEAAPEAUggml_backend_feature@@QEAU2@$$QEAU2@@Z
	??$_Integral_to_string@DH@std@@YA?AV?$basic_string@DU?$char_traits@D@std@@V?$allocator@D@2@@0@H@Z
	??$_Reallocate_grow_by@V<lambda_e1befb086ad3257e3f042a63030725f7>@@_KD@?$basic_string@DU?$char_traits@D@std@@V?$allocator@D@2@@std@@AEAAAEAV01@_KV<lambda_e1befb086ad3257e3f042a63030725f7>@@_KD@Z
	??$_UIntegral_to_buff@DI@std@@YAPEADPEADI@Z
	??0bad_alloc@std@@QEAA@AEBV01@@Z
	??0bad_array_new_length@std@@QEAA@AEBV01@@Z
	??0bad_array_new_length@std@@QEAA@XZ
	??0exception@std@@QEAA@AEBV01@@Z
	??0ggml_backend_cpu_device_context@@QEAA@XZ
	??1?$basic_string@DU?$char_traits@D@std@@V?$allocator@D@2@@std@@QEAA@XZ
	??1?$vector@PEAUggml_backend_buffer_type@@V?$allocator@PEAUggml_backend_buffer_type@@@std@@@std@@QEAA@XZ
	??1?$vector@Uggml_backend_feature@@V?$allocator@Uggml_backend_feature@@@std@@@std@@QEAA@XZ
	??1bad_array_new_length@std@@UEAA@XZ
	??1exception@std@@UEAA@XZ
	??_7bad_alloc@std@@6B@
	??_7bad_array_new_length@std@@6B@
	??_7exception@std@@6B@
	??__Fsve_cnt@?DI@???R<lambda_fb72250a67593e3212bdcaffe095610d>@@QEBA@XZ@YAXXZ
	?_Throw_bad_array_new_length@std@@YAXXZ
	?_Xlen_string@std@@YAXXZ
	?_Xlength@?$vector@PEAUggml_backend_buffer_type@@V?$allocator@PEAUggml_backend_buffer_type@@@std@@@std@@CAXXZ
	?_Xlength@?$vector@Uggml_backend_feature@@V?$allocator@Uggml_backend_feature@@@std@@@std@@CAXXZ
	?deallocate@?$allocator@PEAUggml_backend_buffer_type@@@std@@QEAAXQEAPEAUggml_backend_buffer_type@@_K@Z
	?deallocate@?$allocator@Uggml_backend_feature@@@std@@QEAAXQEAUggml_backend_feature@@_K@Z
	?resize@?$basic_string@DU?$char_traits@D@std@@V?$allocator@D@2@@std@@QEAAX_KD@Z
	?what@exception@std@@UEBAPEBDXZ
	__local_stdio_printf_options
	fprintf
	ggml_aarch64_get_optimal_repack_type
	ggml_aarch64_repack_tensor
	ggml_backend_cpu_aarch64_buffer_type
	ggml_backend_cpu_buft_is_aarch64
	ggml_backend_cpu_init
	ggml_backend_cpu_reg
	ggml_backend_cpu_set_abort_callback
	ggml_backend_cpu_set_n_threads
	ggml_backend_cpu_set_threadpool
	ggml_backend_is_cpu
	ggml_cpu_get_sve_cnt
	ggml_cpu_has_amx_int8
	ggml_cpu_has_arm_fma
	ggml_cpu_has_avx
	ggml_cpu_has_avx2
	ggml_cpu_has_avx512
	ggml_cpu_has_avx512_bf16
	ggml_cpu_has_avx512_vbmi
	ggml_cpu_has_avx512_vnni
	ggml_cpu_has_avx_vnni
	ggml_cpu_has_f16c
	ggml_cpu_has_fma
	ggml_cpu_has_fp16_va
	ggml_cpu_has_llamafile
	ggml_cpu_has_matmul_int8
	ggml_cpu_has_neon
	ggml_cpu_has_riscv_v
	ggml_cpu_has_sse3
	ggml_cpu_has_ssse3
	ggml_cpu_has_sve
	ggml_cpu_has_vsx
	ggml_cpu_has_wasm_simd
	ggml_cpu_init
	ggml_gemm_q4_0_4x4_q8_0
	ggml_gemm_q4_0_4x8_q8_0
	ggml_gemm_q4_0_8x8_q8_0
	ggml_gemv_q4_0_4x4_q8_0
	ggml_gemv_q4_0_4x8_q8_0
	ggml_gemv_q4_0_8x8_q8_0
	ggml_get_f32_1d
	ggml_get_f32_nd
	ggml_get_i32_1d
	ggml_get_i32_nd
	ggml_get_type_traits_cpu
	ggml_graph_compute
	ggml_graph_compute_with_ctx
	ggml_graph_plan
	ggml_is_numa
	ggml_new_f32
	ggml_new_i32
	ggml_numa_init
	ggml_set_f32
	ggml_set_f32_1d
	ggml_set_f32_nd
	ggml_set_i32
	ggml_set_i32_1d
	ggml_set_i32_nd
	ggml_thread_apply_affinity
	ggml_threadpool_free
	ggml_threadpool_new
	ggml_threadpool_pause
	ggml_threadpool_resume
	ggml_vec_dot_iq1_m_q8_K
	ggml_vec_dot_iq1_s_q8_K
	ggml_vec_dot_iq2_s_q8_K
	ggml_vec_dot_iq2_xs_q8_K
	ggml_vec_dot_iq2_xxs_q8_K
	ggml_vec_dot_iq3_s_q8_K
	ggml_vec_dot_iq3_xxs_q8_K
	ggml_vec_dot_iq4_nl_q8_0
	ggml_vec_dot_iq4_xs_q8_K
	ggml_vec_dot_q2_K_q8_K
	ggml_vec_dot_q3_K_q8_K
	ggml_vec_dot_q4_0_q8_0
	ggml_vec_dot_q4_1_q8_1
	ggml_vec_dot_q4_K_q8_K
	ggml_vec_dot_q5_0_q8_0
	ggml_vec_dot_q5_1_q8_1
	ggml_vec_dot_q5_K_q8_K
	ggml_vec_dot_q6_K_q8_K
	ggml_vec_dot_q8_0_q8_0
	ggml_vec_dot_tq1_0_q8_K
	ggml_vec_dot_tq2_0_q8_K
	llamafile_sgemm
	quantize_mat_q8_0
	quantize_row_iq4_nl
	quantize_row_iq4_xs
	quantize_row_q2_K
	quantize_row_q3_K
	quantize_row_q4_0
	quantize_row_q4_1
	quantize_row_q4_K
	quantize_row_q5_0
	quantize_row_q5_1
	quantize_row_q5_K
	quantize_row_q6_K
	quantize_row_q8_0
	quantize_row_q8_1
	quantize_row_q8_K
	quantize_row_tq1_0
	quantize_row_tq2_0
