EXPORTS 
	?$TSS0@?1??_GetStaticAmbientSchedulerStorage@details@Concurrency@@YAPEAV?$shared_ptr@Uscheduler_interface@Concurrency@@@std@@XZ@4HA 	 DATA
	??_R0?AU?$_InitialTaskHandle@XV<lambda_61d324d6c6ae299623b0a01e4b2f6764>@@U_TypeSelectorNoAsync@details@Concurrency@@@?$task@E@Concurrency@@@8 	 DATA
	??_R0?AU?$_InitialTaskHandle@XV<lambda_f7036c9a115536b365ca4544394c825b>@@U_TypeSelectorNoAsync@details@Concurrency@@@?$task@E@Concurrency@@@8 	 DATA
	??_R0?AU?$_PPLTaskHandle@EU?$_InitialTaskHandle@XV<lambda_61d324d6c6ae299623b0a01e4b2f6764>@@U_TypeSelectorNoAsync@details@Concurrency@@@?$task@E@Concurrency@@U_TaskProcHandle@details@3@@details@Concurrency@@@8 	 DATA
	??_R0?AU?$_PPLTaskHandle@EU?$_InitialTaskHandle@XV<lambda_f7036c9a115536b365ca4544394c825b>@@U_TypeSelectorNoAsync@details@Concurrency@@@?$task@E@Concurrency@@U_TaskProcHandle@details@3@@details@Concurrency@@@8 	 DATA
	??_R0?AU?$_Task_impl@E@details@Concurrency@@@8 	 DATA
	??_R0?AU_Crt_new_delete@std@@@8 	 DATA
	??_R0?AU_TaskProcHandle@details@Concurrency@@@8 	 DATA
	??_R0?AU_Task_impl_base@details@Concurrency@@@8 	 DATA
	??_R0?AUllama_data_read@@@8 	 DATA
	??_R0?AUllama_data_read_buffer@@@8 	 DATA
	??_R0?AUllama_data_read_file@@@8 	 DATA
	??_R0?AUllama_data_write@@@8 	 DATA
	??_R0?AUllama_data_write_buffer@@@8 	 DATA
	??_R0?AUllama_data_write_dummy@@@8 	 DATA
	??_R0?AUllama_data_write_file@@@8 	 DATA
	??_R0?AUllm_tokenizer@@@8 	 DATA
	??_R0?AUllm_tokenizer_bpe@@@8 	 DATA
	??_R0?AUllm_tokenizer_rwkv@@@8 	 DATA
	??_R0?AUllm_tokenizer_spm@@@8 	 DATA
	??_R0?AUllm_tokenizer_ugm@@@8 	 DATA
	??_R0?AUllm_tokenizer_wpm@@@8 	 DATA
	??_R0?AUscheduler_interface@Concurrency@@@8 	 DATA
	??_R0?AV<lambda_052e919cc0e5399df76dff3972c0cac1>@@@8 	 DATA
	??_R0?AV<lambda_2fa3e3d11fb97352afa77a4a13bfb543>@@@8 	 DATA
	??_R0?AV<lambda_61d324d6c6ae299623b0a01e4b2f6764>@@@8 	 DATA
	??_R0?AV<lambda_763529b0c7473cbc215a52d189ac9b18>@@@8 	 DATA
	??_R0?AV<lambda_f25c37099038263181b5186a3fa41b37>@@@8 	 DATA
	??_R0?AV<lambda_f7036c9a115536b365ca4544394c825b>@@@8 	 DATA
	??_R0?AV?$_Associated_state@U?$pair@PEAUggml_tensor@@_N@std@@@std@@@8 	 DATA
	??_R0?AV?$_CancellationTokenCallback@V<lambda_be3e5d9dce35d2c8dbfa8485373731d5>@@@details@Concurrency@@@8 	 DATA
	??_R0?AV?$_Deferred_async_state@U?$pair@PEAUggml_tensor@@_N@std@@@std@@@8 	 DATA
	??_R0?AV?$_Fake_no_copy_callable_adapter@V<lambda_3f39357f5ebcd3550b555fa53c33d10a>@@@std@@@8 	 DATA
	??_R0?AV?$_Fake_no_copy_callable_adapter@V<lambda_e3b97c3ad3d076d7964efd5d963695f6>@@@std@@@8 	 DATA
	??_R0?AV?$_Func_base@E$$V@std@@@8 	 DATA
	??_R0?AV?$_Func_base@II@std@@@8 	 DATA
	??_R0?AV?$_Func_base@U?$pair@PEAUggml_tensor@@_N@std@@$$V@std@@@8 	 DATA
	??_R0?AV?$_Func_base@X$$V@std@@@8 	 DATA
	??_R0?AV?$_Func_base@XPEAUggml_tensor@@PEBDH@std@@@8 	 DATA
	??_R0?AV?$_Func_impl_no_alloc@V<lambda_052e919cc0e5399df76dff3972c0cac1>@@E$$V@std@@@8 	 DATA
	??_R0?AV?$_Func_impl_no_alloc@V<lambda_2fa3e3d11fb97352afa77a4a13bfb543>@@X$$V@std@@@8 	 DATA
	??_R0?AV?$_Func_impl_no_alloc@V<lambda_61d324d6c6ae299623b0a01e4b2f6764>@@X$$V@std@@@8 	 DATA
	??_R0?AV?$_Func_impl_no_alloc@V<lambda_763529b0c7473cbc215a52d189ac9b18>@@X$$V@std@@@8 	 DATA
	??_R0?AV?$_Func_impl_no_alloc@V<lambda_f25c37099038263181b5186a3fa41b37>@@X$$V@std@@@8 	 DATA
	??_R0?AV?$_Func_impl_no_alloc@V<lambda_f7036c9a115536b365ca4544394c825b>@@X$$V@std@@@8 	 DATA
	??_R0?AV?$_Func_impl_no_alloc@V?$_Fake_no_copy_callable_adapter@V<lambda_3f39357f5ebcd3550b555fa53c33d10a>@@@std@@U?$pair@PEAUggml_tensor@@_N@2@$$V@std@@@8 	 DATA
	??_R0?AV?$_Func_impl_no_alloc@V?$_Fake_no_copy_callable_adapter@V<lambda_e3b97c3ad3d076d7964efd5d963695f6>@@@std@@U?$pair@PEAUggml_tensor@@_N@2@$$V@std@@@8 	 DATA
	??_R0?AV?$_Iosb@H@std@@@8 	 DATA
	??_R0?AV?$_Node_class@DV?$regex_traits@D@std@@@std@@@8 	 DATA
	??_R0?AV?$_Node_class@_WV?$regex_traits@_W@std@@@std@@@8 	 DATA
	??_R0?AV?$_Node_str@D@std@@@8 	 DATA
	??_R0?AV?$_Node_str@_W@std@@@8 	 DATA
	??_R0?AV?$_Packaged_state@$$A6A?AU?$pair@PEAUggml_tensor@@_N@std@@XZ@std@@@8 	 DATA
	??_R0?AV?$_Ref_count_obj2@U?$_Task_impl@E@details@Concurrency@@@std@@@8 	 DATA
	??_R0?AV?$_Ref_count_obj2@U_ExceptionHolder@details@Concurrency@@@std@@@8 	 DATA
	??_R0?AV?$_Task_async_state@U?$pair@PEAUggml_tensor@@_N@std@@@std@@@8 	 DATA
	??_R0?AV?$basic_filebuf@DU?$char_traits@D@std@@@std@@@8 	 DATA
	??_R0?AV?$basic_ios@DU?$char_traits@D@std@@@std@@@8 	 DATA
	??_R0?AV?$basic_iostream@DU?$char_traits@D@std@@@std@@@8 	 DATA
	??_R0?AV?$basic_istream@DU?$char_traits@D@std@@@std@@@8 	 DATA
	??_R0?AV?$basic_ofstream@DU?$char_traits@D@std@@@std@@@8 	 DATA
	??_R0?AV?$basic_ostream@DU?$char_traits@D@std@@@std@@@8 	 DATA
	??_R0?AV?$basic_streambuf@DU?$char_traits@D@std@@@std@@@8 	 DATA
	??_R0?AV?$basic_stringbuf@DU?$char_traits@D@std@@V?$allocator@D@2@@std@@@8 	 DATA
	??_R0?AV?$basic_stringstream@DU?$char_traits@D@std@@V?$allocator@D@2@@std@@@8 	 DATA
	??_R0?AV?$codecvt@_WDU_Mbstatet@@@std@@@8 	 DATA
	??_R0?AV?$codecvt_utf8@_W$0BAPPPP@$0A@@std@@@8 	 DATA
	??_R0?AV?$collate@D@std@@@8 	 DATA
	??_R0?AV?$collate@_W@std@@@8 	 DATA
	??_R0?AV?$wstring_convert@V?$codecvt_utf8@_W$0BAPPPP@$0A@@std@@_WV?$allocator@_W@2@V?$allocator@D@2@@std@@@8 	 DATA
	??_R0?AV_CancellationTokenRegistration@details@Concurrency@@@8 	 DATA
	??_R0?AV_DefaultPPLTaskScheduler@details@Concurrency@@@8 	 DATA
	??_R0?AV_Facet_base@std@@@8 	 DATA
	??_R0?AV_Future_error_category2@std@@@8 	 DATA
	??_R0?AV_Generic_error_category@std@@@8 	 DATA
	??_R0?AV_Interruption_exception@details@Concurrency@@@8 	 DATA
	??_R0?AV_Node_assert@std@@@8 	 DATA
	??_R0?AV_Node_back@std@@@8 	 DATA
	??_R0?AV_Node_base@std@@@8 	 DATA
	??_R0?AV_Node_capture@std@@@8 	 DATA
	??_R0?AV_Node_end_group@std@@@8 	 DATA
	??_R0?AV_Node_end_rep@std@@@8 	 DATA
	??_R0?AV_Node_endif@std@@@8 	 DATA
	??_R0?AV_Node_if@std@@@8 	 DATA
	??_R0?AV_Node_rep@std@@@8 	 DATA
	??_R0?AV_RefCounter@details@Concurrency@@@8 	 DATA
	??_R0?AV_Ref_count_base@std@@@8 	 DATA
	??_R0?AV_Root_node@std@@@8 	 DATA
	??_R0?AV_System_error@std@@@8 	 DATA
	??_R0?AVbad_alloc@std@@@8 	 DATA
	??_R0?AVbad_array_new_length@std@@@8 	 DATA
	??_R0?AVbad_cast@std@@@8 	 DATA
	??_R0?AVcodecvt_base@std@@@8 	 DATA
	??_R0?AVerror_category@std@@@8 	 DATA
	??_R0?AVexception@std@@@8 	 DATA
	??_R0?AVfacet@locale@std@@@8 	 DATA
	??_R0?AVfuture_error@std@@@8 	 DATA
	??_R0?AVinvalid_argument@std@@@8 	 DATA
	??_R0?AVinvalid_operation@Concurrency@@@8 	 DATA
	??_R0?AVios_base@std@@@8 	 DATA
	??_R0?AVlogic_error@std@@@8 	 DATA
	??_R0?AVout_of_range@std@@@8 	 DATA
	??_R0?AVrange_error@std@@@8 	 DATA
	??_R0?AVregex_error@std@@@8 	 DATA
	??_R0?AVruntime_error@std@@@8 	 DATA
	??_R0?AVsystem_error@std@@@8 	 DATA
	??_R0?AVtask_canceled@Concurrency@@@8 	 DATA
	?_Flag@?1??_GetStaticAmbientSchedulerRef@details@Concurrency@@YAAEAV?$shared_ptr@Uscheduler_interface@Concurrency@@@std@@XZ@4Uonce_flag@5@A 	 DATA
	?_OptionsStorage@?1??__local_stdio_printf_options@@9@4_KA 	 DATA
	?_OptionsStorage@?1??__local_stdio_scanf_options@@9@4_KA 	 DATA
	?_Psave@?$_Facetptr@V?$codecvt@DDU_Mbstatet@@@std@@@std@@2PEBVfacet@locale@2@EB 	 DATA
	?_Psave@?$_Facetptr@V?$collate@D@std@@@std@@2PEBVfacet@locale@2@EB 	 DATA
	?_Psave@?$_Facetptr@V?$collate@_W@std@@@std@@2PEBVfacet@locale@2@EB 	 DATA
	?_Psave@?$_Facetptr@V?$ctype@D@std@@@std@@2PEBVfacet@locale@2@EB 	 DATA
	?_Psave@?$_Facetptr@V?$ctype@_W@std@@@std@@2PEBVfacet@locale@2@EB 	 DATA
	?_S_scheduler@?1??_GetStaticAmbientSchedulerStorage@details@Concurrency@@YAPEAV?$shared_ptr@Uscheduler_interface@Concurrency@@@std@@XZ@4V45@A 	 DATA
	?_S_scheduler_address@?1??_GetStaticAmbientSchedulerRef@details@Concurrency@@YAAEAV?$shared_ptr@Uscheduler_interface@Concurrency@@@std@@XZ@4PEAV45@EA 	 DATA
	?_Static@?1???$_Immortalize_memcpy_image@V_Future_error_category2@std@@@std@@YAAEBV_Future_error_category2@1@XZ@4U?$_Constexpr_immortalize_impl@V_Future_error_category2@std@@@1@A 	 DATA
	?_Static@?1???$_Immortalize_memcpy_image@V_Generic_error_category@std@@@std@@YAAEBV_Generic_error_category@1@XZ@4U?$_Constexpr_immortalize_impl@V_Generic_error_category@std@@@1@A 	 DATA
	?_Stinit@?1??_Init@?$basic_filebuf@DU?$char_traits@D@std@@@std@@IEAAXPEAU_iobuf@@W4_Initfl@23@@Z@4U_Mbstatet@@A 	 DATA
	?unicode_map_lowercase@@3V?$initializer_list@U?$pair@II@std@@@std@@B 	 DATA
	?unicode_map_uppercase@@3V?$initializer_list@U?$pair@II@std@@@std@@B 	 DATA
	?unicode_ranges_flags@@3V?$initializer_list@U?$pair@IG@std@@@std@@B 	 DATA
	?unicode_ranges_nfd@@3V?$initializer_list@Urange_nfd@@@std@@B 	 DATA
	?unicode_set_whitespace@@3V?$unordered_set@IU?$hash@I@std@@U?$equal_to@I@2@V?$allocator@I@2@@std@@B 	 DATA
	__isa_available_default 	 DATA
	??$?0AEBV?$_Fake_no_copy_callable_adapter@V<lambda_3f39357f5ebcd3550b555fa53c33d10a>@@@std@@$0A@@?$_Func_impl_no_alloc@V?$_Fake_no_copy_callable_adapter@V<lambda_3f39357f5ebcd3550b555fa53c33d10a>@@@std@@U?$pair@PEAUggml_tensor@@_N@2@$$V@std@@QEAA@AEBV?$_Fake_no_copy_callable_adapter@V<lambda_3f39357f5ebcd3550b555fa53c33d10a>@@@1@@Z
	??$?0AEBV?$_Fake_no_copy_callable_adapter@V<lambda_e3b97c3ad3d076d7964efd5d963695f6>@@@std@@$0A@@?$_Func_impl_no_alloc@V?$_Fake_no_copy_callable_adapter@V<lambda_e3b97c3ad3d076d7964efd5d963695f6>@@@std@@U?$pair@PEAUggml_tensor@@_N@2@$$V@std@@QEAA@AEBV?$_Fake_no_copy_callable_adapter@V<lambda_e3b97c3ad3d076d7964efd5d963695f6>@@@1@@Z
	??$?0PEAD$0A@@?$basic_string@DU?$char_traits@D@std@@V?$allocator@D@2@@std@@QEAA@PEAD0AEBV?$allocator@D@1@@Z
	??$?0V<lambda_61d324d6c6ae299623b0a01e4b2f6764>@@@?$task@X@Concurrency@@QEAA@V<lambda_61d324d6c6ae299623b0a01e4b2f6764>@@AEBVtask_options@1@@Z
	??$?0V<lambda_f7036c9a115536b365ca4544394c825b>@@@?$task@X@Concurrency@@QEAA@V<lambda_f7036c9a115536b365ca4544394c825b>@@AEBVtask_options@1@@Z
	??$?6DU?$char_traits@D@std@@V?$allocator@D@1@@std@@YAAEAV?$basic_ostream@DU?$char_traits@D@std@@@0@AEAV10@AEBV?$basic_string@DU?$char_traits@D@std@@V?$allocator@D@2@@0@@Z
	??$?6U?$char_traits@D@std@@@std@@YAAEAV?$basic_ostream@DU?$char_traits@D@std@@@0@AEAV10@D@Z
	??$?6U?$char_traits@D@std@@@std@@YAAEAV?$basic_ostream@DU?$char_traits@D@std@@@0@AEAV10@PEBD@Z
	??$?8DU?$char_traits@D@std@@V?$allocator@D@1@@std@@YA_NAEBV?$basic_string@DU?$char_traits@D@std@@V?$allocator@D@2@@0@QEBD@Z
	??$?8DU?$char_traits@D@std@@V?$allocator@D@1@@std@@YA_NQEBDAEBV?$basic_string@DU?$char_traits@D@std@@V?$allocator@D@2@@0@@Z
	??$?8PEBD@std@@YA_NAEBV?$sub_match@PEBD@0@0@Z
	??$?8PEB_W@std@@YA_NAEBV?$sub_match@PEB_W@0@0@Z
	??$?9DU?$char_traits@D@std@@V?$allocator@D@1@@std@@YA_NAEBV?$basic_string@DU?$char_traits@D@std@@V?$allocator@D@2@@0@0@Z
	??$?9DU?$char_traits@D@std@@V?$allocator@D@1@@std@@YA_NAEBV?$basic_string@DU?$char_traits@D@std@@V?$allocator@D@2@@0@QEBD@Z
	??$?9U_Task_impl_base@details@Concurrency@@@std@@YA_NAEBV?$shared_ptr@U_Task_impl_base@details@Concurrency@@@0@$$T@Z
	??$?CU_ExceptionHolder@details@Concurrency@@$0A@@?$shared_ptr@U_ExceptionHolder@details@Concurrency@@@std@@QEBAPEAU_ExceptionHolder@details@Concurrency@@XZ
	??$?HDU?$char_traits@D@std@@V?$allocator@D@1@@std@@YA?AV?$basic_string@DU?$char_traits@D@std@@V?$allocator@D@2@@0@$$QEAV10@0@Z
	??$?HDU?$char_traits@D@std@@V?$allocator@D@1@@std@@YA?AV?$basic_string@DU?$char_traits@D@std@@V?$allocator@D@2@@0@$$QEAV10@QEBD@Z
	??$?HDU?$char_traits@D@std@@V?$allocator@D@1@@std@@YA?AV?$basic_string@DU?$char_traits@D@std@@V?$allocator@D@2@@0@QEBD$$QEAV10@@Z
	??$?HDU?$char_traits@D@std@@V?$allocator@D@1@@std@@YA?AV?$basic_string@DU?$char_traits@D@std@@V?$allocator@D@2@@0@QEBDAEBV10@@Z
	??$?MDU?$char_traits@D@std@@V?$allocator@D@1@@std@@YA_NAEBV?$basic_string@DU?$char_traits@D@std@@V?$allocator@D@2@@0@0@Z
	??$?RV?$basic_string@DU?$char_traits@D@std@@V?$allocator@D@2@@std@@@?$_Uhash_compare@V?$basic_string@DU?$char_traits@D@std@@V?$allocator@D@2@@std@@U?$hash@V?$basic_string@DU?$char_traits@D@std@@V?$allocator@D@2@@std@@@2@U?$equal_to@V?$basic_string@DU?$char_traits@D@std@@V?$allocator@D@2@@std@@@2@@std@@QEBA_KAEBV?$basic_string@DU?$char_traits@D@std@@V?$allocator@D@2@@1@@Z
	??$_Allocate@$0BA@U_Default_allocate_traits@std@@@std@@YAPEAX_K@Z
	??$_Allocate_at_least_helper@V?$allocator@H@std@@@std@@YAPEAHAEAV?$allocator@H@0@AEA_K@Z
	??$_Allocate_at_least_helper@V?$allocator@I@std@@@std@@YAPEAIAEAV?$allocator@I@0@AEA_K@Z
	??$_Allocate_at_least_helper@V?$allocator@PEAUggml_tensor@@@std@@@std@@YAPEAPEAUggml_tensor@@AEAV?$allocator@PEAUggml_tensor@@@0@AEA_K@Z
	??$_Allocate_at_least_helper@V?$allocator@PEAUllama_token_data@@@std@@@std@@YAPEAPEAUllama_token_data@@AEAV?$allocator@PEAUllama_token_data@@@0@AEA_K@Z
	??$_Allocate_at_least_helper@V?$allocator@PEBUllama_grammar_element@@@std@@@std@@YAPEAPEBUllama_grammar_element@@AEAV?$allocator@PEBUllama_grammar_element@@@0@AEA_K@Z
	??$_Allocate_at_least_helper@V?$allocator@PEBUllama_tensor_weight@llama_model_loader@@@std@@@std@@YAPEAPEBUllama_tensor_weight@llama_model_loader@@AEAV?$allocator@PEBUllama_tensor_weight@llama_model_loader@@@0@AEA_K@Z
	??$_Allocate_at_least_helper@V?$allocator@U?$pair@PEAUggml_context@@V?$unordered_map@IPEAUggml_backend_buffer@@U?$hash@I@std@@U?$equal_to@I@3@V?$allocator@U?$pair@$$CBIPEAUggml_backend_buffer@@@std@@@3@@std@@@std@@@std@@@std@@YAPEAU?$pair@PEAUggml_context@@V?$unordered_map@IPEAUggml_backend_buffer@@U?$hash@I@std@@U?$equal_to@I@3@V?$allocator@U?$pair@$$CBIPEAUggml_backend_buffer@@@std@@@3@@std@@@0@AEAV?$allocator@U?$pair@PEAUggml_context@@V?$unordered_map@IPEAUggml_backend_buffer@@U?$hash@I@std@@U?$equal_to@I@3@V?$allocator@U?$pair@$$CBIPEAUggml_backend_buffer@@@std@@@3@@std@@@std@@@0@AEA_K@Z
	??$_Allocate_at_least_helper@V?$allocator@U?$pair@V?$vector@IV?$allocator@I@std@@@std@@Ullama_partial_utf8@@@std@@@std@@@std@@YAPEAU?$pair@V?$vector@IV?$allocator@I@std@@@std@@Ullama_partial_utf8@@@0@AEAV?$allocator@U?$pair@V?$vector@IV?$allocator@I@std@@@std@@Ullama_partial_utf8@@@std@@@0@AEA_K@Z
	??$_Allocate_at_least_helper@V?$allocator@U?$pair@_K_K@std@@@std@@@std@@YAPEAU?$pair@_K_K@0@AEAV?$allocator@U?$pair@_K_K@std@@@0@AEA_K@Z
	??$_Allocate_at_least_helper@V?$allocator@Ullama_grammar_candidate@@@std@@@std@@YAPEAUllama_grammar_candidate@@AEAV?$allocator@Ullama_grammar_candidate@@@0@AEA_K@Z
	??$_Allocate_at_least_helper@V?$allocator@Ullama_token_data@@@std@@@std@@YAPEAUllama_token_data@@AEAV?$allocator@Ullama_token_data@@@0@AEA_K@Z
	??$_Allocate_at_least_helper@V?$allocator@V?$basic_string@DU?$char_traits@D@std@@V?$allocator@D@2@@std@@@std@@@std@@YAPEAV?$basic_string@DU?$char_traits@D@std@@V?$allocator@D@2@@0@AEAV?$allocator@V?$basic_string@DU?$char_traits@D@std@@V?$allocator@D@2@@std@@@0@AEA_K@Z
	??$_Allocate_at_least_helper@V?$allocator@V?$unique_ptr@Uggml_backend_buffer@@Uggml_backend_buffer_deleter@@@std@@@std@@@std@@YAPEAV?$unique_ptr@Uggml_backend_buffer@@Uggml_backend_buffer_deleter@@@0@AEAV?$allocator@V?$unique_ptr@Uggml_backend_buffer@@Uggml_backend_buffer_deleter@@@std@@@0@AEA_K@Z
	??$_Allocate_at_least_helper@V?$allocator@V?$unique_ptr@Uggml_context@@Uggml_context_deleter@@@std@@@std@@@std@@YAPEAV?$unique_ptr@Uggml_context@@Uggml_context_deleter@@@0@AEAV?$allocator@V?$unique_ptr@Uggml_context@@Uggml_context_deleter@@@std@@@0@AEA_K@Z
	??$_Allocate_at_least_helper@V?$allocator@V?$unique_ptr@Ullama_mmap@@U?$default_delete@Ullama_mmap@@@std@@@std@@@std@@@std@@YAPEAV?$unique_ptr@Ullama_mmap@@U?$default_delete@Ullama_mmap@@@std@@@0@AEAV?$allocator@V?$unique_ptr@Ullama_mmap@@U?$default_delete@Ullama_mmap@@@std@@@std@@@0@AEA_K@Z
	??$_Allocate_at_least_helper@V?$allocator@V?$vector@PEBUllama_grammar_element@@V?$allocator@PEBUllama_grammar_element@@@std@@@std@@@std@@@std@@YAPEAV?$vector@PEBUllama_grammar_element@@V?$allocator@PEBUllama_grammar_element@@@std@@@0@AEAV?$allocator@V?$vector@PEBUllama_grammar_element@@V?$allocator@PEBUllama_grammar_element@@@std@@@std@@@0@AEA_K@Z
	??$_Allocate_at_least_helper@V?$allocator@Vthread@std@@@std@@@std@@YAPEAVthread@0@AEAV?$allocator@Vthread@std@@@0@AEA_K@Z
	??$_Allocate_at_least_helper@V?$allocator@_K@std@@@std@@YAPEA_KAEAV?$allocator@_K@0@AEA_K@Z
	??$_Allocate_for_capacity@$0A@@?$basic_string@DU?$char_traits@D@std@@V?$allocator@D@2@@std@@CAPEADAEAV?$allocator@D@1@AEA_K@Z
	??$_Allocate_manually_vector_aligned@U_Default_allocate_traits@std@@@std@@YAPEAX_K@Z
	??$_Assign_cast@AEAU?$pair@HV?$vector@HV?$allocator@H@std@@@std@@@std@@V?$_List_unchecked_const_iterator@V?$_List_val@U?$_List_simple_types@U?$pair@$$CBHV?$vector@HV?$allocator@H@std@@@std@@@std@@@std@@@std@@U_Iterator_base0@2@@2@@?$list@U?$pair@$$CBHV?$vector@HV?$allocator@H@std@@@std@@@std@@V?$allocator@U?$pair@$$CBHV?$vector@HV?$allocator@H@std@@@std@@@std@@@2@@std@@AEAAXV?$_List_unchecked_const_iterator@V?$_List_val@U?$_List_simple_types@U?$pair@$$CBHV?$vector@HV?$allocator@H@std@@@std@@@std@@@std@@@std@@U_Iterator_base0@2@@1@V21@@Z
	??$_Assign_counted_range@PEAI@?$vector@IV?$allocator@I@std@@@std@@AEAAXPEAI_K@Z
	??$_Assign_counted_range@PEAPEAX@?$vector@PEAXV?$allocator@PEAX@std@@@std@@AEAAXPEAPEAX_K@Z
	??$_Assign_counted_range@PEAU_Grp_t@?$_Tgt_state_t@PEBD@std@@@?$vector@U_Grp_t@?$_Tgt_state_t@PEBD@std@@V?$allocator@U_Grp_t@?$_Tgt_state_t@PEBD@std@@@3@@std@@AEAAXPEAU_Grp_t@?$_Tgt_state_t@PEBD@1@_K@Z
	??$_Assign_counted_range@PEAU_Grp_t@?$_Tgt_state_t@PEB_W@std@@@?$vector@U_Grp_t@?$_Tgt_state_t@PEB_W@std@@V?$allocator@U_Grp_t@?$_Tgt_state_t@PEB_W@std@@@3@@std@@AEAAXPEAU_Grp_t@?$_Tgt_state_t@PEB_W@1@_K@Z
	??$_Assign_counted_range@PEAUllama_grammar_element@@@?$vector@Ullama_grammar_element@@V?$allocator@Ullama_grammar_element@@@std@@@std@@AEAAXPEAUllama_grammar_element@@_K@Z
	??$_Assign_counted_range@PEAUllm_symbol@@@?$vector@Ullm_symbol@@V?$allocator@Ullm_symbol@@@std@@@std@@AEAAXPEAUllm_symbol@@_K@Z
	??$_Assign_counted_range@PEBV?$basic_string@DU?$char_traits@D@std@@V?$allocator@D@2@@std@@@?$vector@V?$basic_string@DU?$char_traits@D@std@@V?$allocator@D@2@@std@@V?$allocator@V?$basic_string@DU?$char_traits@D@std@@V?$allocator@D@2@@std@@@2@@std@@AEAAXPEBV?$basic_string@DU?$char_traits@D@std@@V?$allocator@D@2@@1@_K@Z
	??$_Atomic_address_as@HU?$_Atomic_padded@J@std@@@std@@YAPECHAEAU?$_Atomic_padded@J@0@@Z
	??$_Atomic_address_as@HU?$_Atomic_padded@J@std@@@std@@YAPEDHAEBU?$_Atomic_padded@J@0@@Z
	??$_Atomic_address_as@JU?$_Atomic_padded@J@std@@@std@@YAPECJAEAU?$_Atomic_padded@J@0@@Z
	??$_Atomic_reinterpret_as@HJ@std@@YAHAEBJ@Z
	??$_Atomic_reinterpret_as@JJ@std@@YAJAEBJ@Z
	??$_Cmp_chrange@PEBDPEBDU?$_Cmp_collate@V?$regex_traits@D@std@@@std@@@std@@YAPEBDPEBD000U?$_Cmp_collate@V?$regex_traits@D@std@@@0@@Z
	??$_Cmp_chrange@PEBDPEBDU?$_Cmp_cs@V?$regex_traits@D@std@@@std@@@std@@YAPEBDPEBD000U?$_Cmp_cs@V?$regex_traits@D@std@@@0@@Z
	??$_Cmp_chrange@PEBDPEBDU?$_Cmp_icase@V?$regex_traits@D@std@@@std@@@std@@YAPEBDPEBD000U?$_Cmp_icase@V?$regex_traits@D@std@@@0@@Z
	??$_Cmp_chrange@PEB_WPEB_WU?$_Cmp_collate@V?$regex_traits@_W@std@@@std@@@std@@YAPEB_WPEB_W000U?$_Cmp_collate@V?$regex_traits@_W@std@@@0@@Z
	??$_Cmp_chrange@PEB_WPEB_WU?$_Cmp_cs@V?$regex_traits@_W@std@@@std@@@std@@YAPEB_WPEB_W000U?$_Cmp_cs@V?$regex_traits@_W@std@@@0@@Z
	??$_Cmp_chrange@PEB_WPEB_WU?$_Cmp_icase@V?$regex_traits@_W@std@@@std@@@std@@YAPEB_WPEB_W000U?$_Cmp_icase@V?$regex_traits@_W@std@@@0@@Z
	??$_Codecvt_do_length@V?$codecvt_utf8@_W$0BAPPPP@$0A@@std@@DU_Mbstatet@@@std@@YAHAEBV?$codecvt_utf8@_W$0BAPPPP@$0A@@0@AEAU_Mbstatet@@PEBD2_K@Z
	??$_Compare@PEBDPEBDV?$regex_traits@D@std@@@std@@YAPEBDPEBD000AEBV?$regex_traits@D@0@W4syntax_option_type@regex_constants@0@@Z
	??$_Compare@PEB_WPEB_WV?$regex_traits@_W@std@@@std@@YAPEB_WPEB_W000AEBV?$regex_traits@_W@0@W4syntax_option_type@regex_constants@0@@Z
	??$_Construct@$00PEBD@?$basic_string@DU?$char_traits@D@std@@V?$allocator@D@2@@std@@AEAAXQEBD_K@Z
	??$_Construct_from_iter@PEBIPEBI_K@?$basic_string@_WU?$char_traits@_W@std@@V?$allocator@_W@2@@std@@AEAAXPEBIQEBI_K@Z
	??$_Copy@$0A@@?$_Tree@V?$_Tset_traits@HU?$less@H@std@@V?$allocator@H@2@$0A@@std@@@std@@IEAAXAEBV01@@Z
	??$_Copy_backward_memmove@PEAHPEAH@std@@YAPEAHPEAH00@Z
	??$_Copy_backward_memmove@PEAPEBUllama_tensor_weight@llama_model_loader@@PEAPEBU12@@std@@YAPEAPEBUllama_tensor_weight@llama_model_loader@@PEAPEBU12@00@Z
	??$_Copy_backward_memmove@PEAUllama_grammar_element@@PEAU1@@std@@YAPEAUllama_grammar_element@@PEAU1@00@Z
	??$_Copy_backward_memmove@PEAUllama_sbatch_seq@@PEAU1@@std@@YAPEAUllama_sbatch_seq@@PEAU1@00@Z
	??$_Copy_backward_memmove@PEAUllama_token_data@@PEAU1@@std@@YAPEAUllama_token_data@@PEAU1@00@Z
	??$_Copy_backward_memmove@PEA_KPEA_K@std@@YAPEA_KPEA_K00@Z
	??$_Copy_memmove@PEACPEAC@std@@YAPEACPEAC00@Z
	??$_Copy_memmove@PEADPEAD@std@@YAPEADPEAD00@Z
	??$_Copy_memmove@PEAEPEAE@std@@YAPEAEPEAE00@Z
	??$_Copy_memmove@PEAHPEAH@std@@YAPEAHPEAH00@Z
	??$_Copy_memmove@PEAIPEAI@std@@YAPEAIPEAI00@Z
	??$_Copy_memmove@PEAMPEAM@std@@YAPEAMPEAM00@Z
	??$_Copy_memmove@PEANPEAN@std@@YAPEANPEAN00@Z
	??$_Copy_memmove@PEAPEAHPEAPEAH@std@@YAPEAPEAHPEAPEAH00@Z
	??$_Copy_memmove@PEAPEAUggml_backend@@PEAPEAU1@@std@@YAPEAPEAUggml_backend@@PEAPEAU1@00@Z
	??$_Copy_memmove@PEAPEAUggml_backend_buffer@@PEAPEAU1@@std@@YAPEAPEAUggml_backend_buffer@@PEAPEAU1@00@Z
	??$_Copy_memmove@PEAPEAUggml_backend_buffer_type@@PEAPEAU1@@std@@YAPEAPEAUggml_backend_buffer_type@@PEAPEAU1@00@Z
	??$_Copy_memmove@PEAPEAUggml_backend_device@@PEAPEAU1@@std@@YAPEAPEAUggml_backend_device@@PEAPEAU1@00@Z
	??$_Copy_memmove@PEAPEAUggml_backend_event@@PEAPEAU1@@std@@YAPEAPEAUggml_backend_event@@PEAPEAU1@00@Z
	??$_Copy_memmove@PEAPEAUggml_tensor@@PEAPEAU1@@std@@YAPEAPEAUggml_tensor@@PEAPEAU1@00@Z
	??$_Copy_memmove@PEAPEAUllama_sampler@@PEAPEAU1@@std@@YAPEAPEAUllama_sampler@@PEAPEAU1@00@Z
	??$_Copy_memmove@PEAPEAUllama_token_data@@PEAPEAU1@@std@@YAPEAPEAUllama_token_data@@PEAPEAU1@00@Z
	??$_Copy_memmove@PEAPEAXPEAPEAX@std@@YAPEAPEAXPEAPEAX00@Z
	??$_Copy_memmove@PEAPEBUllama_chat_message@@PEAPEBU1@@std@@YAPEAPEBUllama_chat_message@@PEAPEBU1@00@Z
	??$_Copy_memmove@PEAPEBUllama_grammar_element@@PEAPEBU1@@std@@YAPEAPEBUllama_grammar_element@@PEAPEBU1@00@Z
	??$_Copy_memmove@PEAPEBUllama_tensor_weight@llama_model_loader@@PEAPEBU12@@std@@YAPEAPEBUllama_tensor_weight@llama_model_loader@@PEAPEBU12@00@Z
	??$_Copy_memmove@PEAU?$no_init@E@@PEAU1@@std@@YAPEAU?$no_init@E@@PEAU1@00@Z
	??$_Copy_memmove@PEAU?$no_init@M@@PEAU1@@std@@YAPEAU?$no_init@M@@PEAU1@00@Z
	??$_Copy_memmove@PEAU?$pair@II@std@@PEAU12@@std@@YAPEAU?$pair@II@0@PEAU10@00@Z
	??$_Copy_memmove@PEAU?$pair@PEAUggml_backend@@P6AXPEAU1@H@Z@std@@PEAU12@@std@@YAPEAU?$pair@PEAUggml_backend@@P6AXPEAU1@H@Z@0@PEAU10@00@Z
	??$_Copy_memmove@PEAU?$pair@PEAUggml_backend_device@@PEAUggml_backend_buffer_type@@@std@@PEAU12@@std@@YAPEAU?$pair@PEAUggml_backend_device@@PEAUggml_backend_buffer_type@@@0@PEAU10@00@Z
	??$_Copy_memmove@PEAU?$pair@_K_K@std@@PEAU12@@std@@YAPEAU?$pair@_K_K@0@PEAU10@00@Z
	??$_Copy_memmove@PEAU_Grp_t@?$_Tgt_state_t@PEBD@std@@PEAU123@@std@@YAPEAU_Grp_t@?$_Tgt_state_t@PEBD@0@PEAU120@00@Z
	??$_Copy_memmove@PEAU_Grp_t@?$_Tgt_state_t@PEB_W@std@@PEAU123@@std@@YAPEAU_Grp_t@?$_Tgt_state_t@PEB_W@0@PEAU120@00@Z
	??$_Copy_memmove@PEAU_Loop_vals_t@std@@PEAU12@@std@@YAPEAU_Loop_vals_t@0@PEAU10@00@Z
	??$_Copy_memmove@PEAUlayer_dev@llama_model@@PEAU12@@std@@YAPEAUlayer_dev@llama_model@@PEAU12@00@Z
	??$_Copy_memmove@PEAUllama_grammar_candidate@@PEAU1@@std@@YAPEAUllama_grammar_candidate@@PEAU1@00@Z
	??$_Copy_memmove@PEAUllama_grammar_element@@PEAU1@@std@@YAPEAUllama_grammar_element@@PEAU1@00@Z
	??$_Copy_memmove@PEAUllama_layer@@PEAU1@@std@@YAPEAUllama_layer@@PEAU1@00@Z
	??$_Copy_memmove@PEAUllama_logit_bias@@PEAU1@@std@@YAPEAUllama_logit_bias@@PEAU1@00@Z
	??$_Copy_memmove@PEAUllama_sbatch_seq@@PEAU1@@std@@YAPEAUllama_sbatch_seq@@PEAU1@00@Z
	??$_Copy_memmove@PEAUllama_token_data@@PEAU1@@std@@YAPEAUllama_token_data@@PEAU1@00@Z
	??$_Copy_memmove@PEAUllm_bigram_spm@@PEAU1@@std@@YAPEAUllm_bigram_spm@@PEAU1@00@Z
	??$_Copy_memmove@PEAUllm_symbol@@PEAU1@@std@@YAPEAUllm_symbol@@PEAU1@00@Z
	??$_Copy_memmove@PEAV?$sub_match@PEBD@std@@PEAV12@@std@@YAPEAV?$sub_match@PEBD@0@PEAV10@00@Z
	??$_Copy_memmove@PEAV?$sub_match@PEB_W@std@@PEAV12@@std@@YAPEAV?$sub_match@PEB_W@0@PEAV10@00@Z
	??$_Copy_memmove@PEA_KPEA_K@std@@YAPEA_KPEA_K00@Z
	??$_Copy_memmove@PEA_WPEA_W@std@@YAPEA_WPEA_W00@Z
	??$_Copy_memmove@PEBDPEAD@std@@YAPEADPEBD0PEAD@Z
	??$_Copy_memmove@PEBHPEAH@std@@YAPEAHPEBH0PEAH@Z
	??$_Copy_memmove@PEBIPEAI@std@@YAPEAIPEBI0PEAI@Z
	??$_Copy_memmove@PEBMPEAM@std@@YAPEAMPEBM0PEAM@Z
	??$_Copy_memmove@PEBQEBUllama_grammar_element@@PEAPEBU1@@std@@YAPEAPEBUllama_grammar_element@@PEBQEBU1@0PEAPEBU1@@Z
	??$_Copy_memmove@PEBU?$pair@W4llm_kv@@AEAH@std@@PEAU12@@std@@YAPEAU?$pair@W4llm_kv@@AEAH@0@PEBU10@0PEAU10@@Z
	??$_Copy_memmove@PEBUllama_logit_bias@@PEAU1@@std@@YAPEAUllama_logit_bias@@PEBU1@0PEAU1@@Z
	??$_Copy_memmove@PEB_JPEA_J@std@@YAPEA_JPEB_J0PEA_J@Z
	??$_Copy_memmove@PEB_KPEA_K@std@@YAPEA_KPEB_K0PEA_K@Z
	??$_Copy_memmove@PEB_WPEA_W@std@@YAPEA_WPEB_W0PEA_W@Z
	??$_Copy_memmove_n@PEAHPEAH@std@@YAPEAHPEAH_K0@Z
	??$_Copy_memmove_n@PEAIPEAI@std@@YAPEAIPEAI_K0@Z
	??$_Copy_memmove_n@PEAPEAXPEAPEAX@std@@YAPEAPEAXPEAPEAX_K0@Z
	??$_Copy_memmove_n@PEAU?$pair@PEAUggml_backend_device@@PEAUggml_backend_buffer_type@@@std@@PEAU12@@std@@YAPEAU?$pair@PEAUggml_backend_device@@PEAUggml_backend_buffer_type@@@0@PEAU10@_K0@Z
	??$_Copy_memmove_n@PEAU_Grp_t@?$_Tgt_state_t@PEBD@std@@PEAU123@@std@@YAPEAU_Grp_t@?$_Tgt_state_t@PEBD@0@PEAU120@_K0@Z
	??$_Copy_memmove_n@PEAU_Grp_t@?$_Tgt_state_t@PEB_W@std@@PEAU123@@std@@YAPEAU_Grp_t@?$_Tgt_state_t@PEB_W@0@PEAU120@_K0@Z
	??$_Copy_memmove_n@PEAUllama_grammar_element@@PEAU1@@std@@YAPEAUllama_grammar_element@@PEAU1@_K0@Z
	??$_Copy_memmove_n@PEAUllm_symbol@@PEAU1@@std@@YAPEAUllm_symbol@@PEAU1@_K0@Z
	??$_Copy_memmove_n@PEBDPEAD@std@@YAPEADPEBD_KPEAD@Z
	??$_Copy_nodes@$0A@@?$_Tree@V?$_Tmap_traits@W4llm_tensor@@PEBDU?$less@W4llm_tensor@@@std@@V?$allocator@U?$pair@$$CBW4llm_tensor@@PEBD@std@@@3@$0A@@std@@@std@@IEAAPEAU?$_Tree_node@U?$pair@$$CBW4llm_tensor@@PEBD@std@@PEAX@1@PEAU21@0@Z
	??$_Copy_nodes@$0A@@?$_Tree@V?$_Tset_traits@HU?$less@H@std@@V?$allocator@H@2@$0A@@std@@@std@@IEAAPEAU?$_Tree_node@HPEAX@1@PEAU21@0@Z
	??$_Copy_vbool@V?$_Vb_iterator@U?$_Wrap_alloc@V?$allocator@I@std@@@std@@@std@@V12@@std@@YA?AV?$_Vb_iterator@U?$_Wrap_alloc@V?$allocator@I@std@@@std@@@0@V10@00@Z
	??$_Count_vectorized@IH@std@@YA_KQEAI0H@Z
	??$_Destroy_range@V?$allocator@U?$pair@PEAUggml_context@@V?$unordered_map@IPEAUggml_backend_buffer@@U?$hash@I@std@@U?$equal_to@I@3@V?$allocator@U?$pair@$$CBIPEAUggml_backend_buffer@@@std@@@3@@std@@@std@@@std@@@std@@YAXPEAU?$pair@PEAUggml_context@@V?$unordered_map@IPEAUggml_backend_buffer@@U?$hash@I@std@@U?$equal_to@I@3@V?$allocator@U?$pair@$$CBIPEAUggml_backend_buffer@@@std@@@3@@std@@@0@QEAU10@AEAV?$allocator@U?$pair@PEAUggml_context@@V?$unordered_map@IPEAUggml_backend_buffer@@U?$hash@I@std@@U?$equal_to@I@3@V?$allocator@U?$pair@$$CBIPEAUggml_backend_buffer@@@std@@@3@@std@@@std@@@0@@Z
	??$_Destroy_range@V?$allocator@U?$pair@V?$basic_string@DU?$char_traits@D@std@@V?$allocator@D@2@@std@@PEAUggml_tensor@@@std@@@std@@@std@@YAXPEAU?$pair@V?$basic_string@DU?$char_traits@D@std@@V?$allocator@D@2@@std@@PEAUggml_tensor@@@0@QEAU10@AEAV?$allocator@U?$pair@V?$basic_string@DU?$char_traits@D@std@@V?$allocator@D@2@@std@@PEAUggml_tensor@@@std@@@0@@Z
	??$_Destroy_range@V?$allocator@U?$pair@V?$vector@IV?$allocator@I@std@@@std@@Ullama_partial_utf8@@@std@@@std@@@std@@YAXPEAU?$pair@V?$vector@IV?$allocator@I@std@@@std@@Ullama_partial_utf8@@@0@QEAU10@AEAV?$allocator@U?$pair@V?$vector@IV?$allocator@I@std@@@std@@Ullama_partial_utf8@@@std@@@0@@Z
	??$_Destroy_range@V?$allocator@Ullama_kv_cell@@@std@@@std@@YAXPEAUllama_kv_cell@@QEAU1@AEAV?$allocator@Ullama_kv_cell@@@0@@Z
	??$_Destroy_range@V?$allocator@Ullm_bigram_bpe@@@std@@@std@@YAXPEAUllm_bigram_bpe@@QEAU1@AEAV?$allocator@Ullm_bigram_bpe@@@0@@Z
	??$_Destroy_range@V?$allocator@Utoken_data@llama_vocab@@@std@@@std@@YAXPEAUtoken_data@llama_vocab@@QEAU12@AEAV?$allocator@Utoken_data@llama_vocab@@@0@@Z
	??$_Destroy_range@V?$allocator@V?$basic_string@DU?$char_traits@D@std@@V?$allocator@D@2@@std@@@std@@@std@@YAXPEAV?$basic_string@DU?$char_traits@D@std@@V?$allocator@D@2@@0@QEAV10@AEAV?$allocator@V?$basic_string@DU?$char_traits@D@std@@V?$allocator@D@2@@std@@@0@@Z
	??$_Destroy_range@V?$allocator@V?$future@U?$pair@PEAUggml_tensor@@_N@std@@@std@@@std@@@std@@YAXPEAV?$future@U?$pair@PEAUggml_tensor@@_N@std@@@0@QEAV10@AEAV?$allocator@V?$future@U?$pair@PEAUggml_tensor@@_N@std@@@std@@@0@@Z
	??$_Destroy_range@V?$allocator@V?$set@HU?$less@H@std@@V?$allocator@H@2@@std@@@std@@@std@@YAXPEAV?$set@HU?$less@H@std@@V?$allocator@H@2@@0@QEAV10@AEAV?$allocator@V?$set@HU?$less@H@std@@V?$allocator@H@2@@std@@@0@@Z
	??$_Destroy_range@V?$allocator@V?$unique_ptr@Uggml_backend@@Uggml_backend_deleter@@@std@@@std@@@std@@YAXPEAV?$unique_ptr@Uggml_backend@@Uggml_backend_deleter@@@0@QEAV10@AEAV?$allocator@V?$unique_ptr@Uggml_backend@@Uggml_backend_deleter@@@std@@@0@@Z
	??$_Destroy_range@V?$allocator@V?$unique_ptr@Uggml_backend_buffer@@Uggml_backend_buffer_deleter@@@std@@@std@@@std@@YAXPEAV?$unique_ptr@Uggml_backend_buffer@@Uggml_backend_buffer_deleter@@@0@QEAV10@AEAV?$allocator@V?$unique_ptr@Uggml_backend_buffer@@Uggml_backend_buffer_deleter@@@std@@@0@@Z
	??$_Destroy_range@V?$allocator@V?$unique_ptr@Uggml_context@@Uggml_context_deleter@@@std@@@std@@@std@@YAXPEAV?$unique_ptr@Uggml_context@@Uggml_context_deleter@@@0@QEAV10@AEAV?$allocator@V?$unique_ptr@Uggml_context@@Uggml_context_deleter@@@std@@@0@@Z
	??$_Destroy_range@V?$allocator@V?$unique_ptr@Ullama_file@@U?$default_delete@Ullama_file@@@std@@@std@@@std@@@std@@YAXPEAV?$unique_ptr@Ullama_file@@U?$default_delete@Ullama_file@@@std@@@0@QEAV10@AEAV?$allocator@V?$unique_ptr@Ullama_file@@U?$default_delete@Ullama_file@@@std@@@std@@@0@@Z
	??$_Destroy_range@V?$allocator@V?$unique_ptr@Ullama_mlock@@U?$default_delete@Ullama_mlock@@@std@@@std@@@std@@@std@@YAXPEAV?$unique_ptr@Ullama_mlock@@U?$default_delete@Ullama_mlock@@@std@@@0@QEAV10@AEAV?$allocator@V?$unique_ptr@Ullama_mlock@@U?$default_delete@Ullama_mlock@@@std@@@std@@@0@@Z
	??$_Destroy_range@V?$allocator@V?$unique_ptr@Ullama_mmap@@U?$default_delete@Ullama_mmap@@@std@@@std@@@std@@@std@@YAXPEAV?$unique_ptr@Ullama_mmap@@U?$default_delete@Ullama_mmap@@@std@@@0@QEAV10@AEAV?$allocator@V?$unique_ptr@Ullama_mmap@@U?$default_delete@Ullama_mmap@@@std@@@std@@@0@@Z
	??$_Destroy_range@V?$allocator@V?$vector@PEBUllama_grammar_element@@V?$allocator@PEBUllama_grammar_element@@@std@@@std@@@std@@@std@@YAXPEAV?$vector@PEBUllama_grammar_element@@V?$allocator@PEBUllama_grammar_element@@@std@@@0@QEAV10@AEAV?$allocator@V?$vector@PEBUllama_grammar_element@@V?$allocator@PEBUllama_grammar_element@@@std@@@std@@@0@@Z
	??$_Destroy_range@V?$allocator@V?$vector@Ullama_grammar_element@@V?$allocator@Ullama_grammar_element@@@std@@@std@@@std@@@std@@YAXPEAV?$vector@Ullama_grammar_element@@V?$allocator@Ullama_grammar_element@@@std@@@0@QEAV10@AEAV?$allocator@V?$vector@Ullama_grammar_element@@V?$allocator@Ullama_grammar_element@@@std@@@std@@@0@@Z
	??$_Destroy_range@V?$allocator@Vthread@std@@@std@@@std@@YAXPEAVthread@0@QEAV10@AEAV?$allocator@Vthread@std@@@0@@Z
	??$_Emplace@U?$pair@V?$basic_string@DU?$char_traits@D@std@@V?$allocator@D@2@@std@@V12@@std@@AEAH@?$_Tree@V?$_Tmap_traits@U?$pair@V?$basic_string@DU?$char_traits@D@std@@V?$allocator@D@2@@std@@V12@@std@@HU?$less@U?$pair@V?$basic_string@DU?$char_traits@D@std@@V?$allocator@D@2@@std@@V12@@std@@@2@V?$allocator@U?$pair@$$CBU?$pair@V?$basic_string@DU?$char_traits@D@std@@V?$allocator@D@2@@std@@V12@@std@@H@std@@@2@$0A@@std@@@std@@IEAA?AU?$pair@PEAU?$_Tree_node@U?$pair@$$CBU?$pair@V?$basic_string@DU?$char_traits@D@std@@V?$allocator@D@2@@std@@V12@@std@@H@std@@PEAX@std@@_N@1@$$QEAU?$pair@V?$basic_string@DU?$char_traits@D@std@@V?$allocator@D@2@@std@@V12@@1@AEAH@Z
	??$_Emplace_reallocate@$$V@?$vector@V?$basic_string@DU?$char_traits@D@std@@V?$allocator@D@2@@std@@V?$allocator@V?$basic_string@DU?$char_traits@D@std@@V?$allocator@D@2@@std@@@2@@std@@AEAAPEAV?$basic_string@DU?$char_traits@D@std@@V?$allocator@D@2@@1@QEAV21@@Z
	??$_Emplace_reallocate@AEAIAEAI@?$vector@U?$pair@II@std@@V?$allocator@U?$pair@II@std@@@2@@std@@AEAAPEAU?$pair@II@1@QEAU21@AEAI1@Z
	??$_Emplace_reallocate@AEAIAEBI@?$vector@U?$pair@II@std@@V?$allocator@U?$pair@II@std@@@2@@std@@AEAAPEAU?$pair@II@1@QEAU21@AEAIAEBI@Z
	??$_Emplace_reallocate@AEAPEAUggml_backend@@@?$vector@V?$unique_ptr@Uggml_backend@@Uggml_backend_deleter@@@std@@V?$allocator@V?$unique_ptr@Uggml_backend@@Uggml_backend_deleter@@@std@@@2@@std@@AEAAPEAV?$unique_ptr@Uggml_backend@@Uggml_backend_deleter@@@1@QEAV21@AEAPEAUggml_backend@@@Z
	??$_Emplace_reallocate@AEAPEAUggml_backend_buffer@@@?$vector@PEAUggml_backend_buffer@@V?$allocator@PEAUggml_backend_buffer@@@std@@@std@@AEAAPEAPEAUggml_backend_buffer@@QEAPEAU2@AEAPEAU2@@Z
	??$_Emplace_reallocate@AEAPEAUggml_backend_buffer@@@?$vector@V?$unique_ptr@Uggml_backend_buffer@@Uggml_backend_buffer_deleter@@@std@@V?$allocator@V?$unique_ptr@Uggml_backend_buffer@@Uggml_backend_buffer_deleter@@@std@@@2@@std@@AEAAPEAV?$unique_ptr@Uggml_backend_buffer@@Uggml_backend_buffer_deleter@@@1@QEAV21@AEAPEAUggml_backend_buffer@@@Z
	??$_Emplace_reallocate@AEAPEAUggml_backend_device@@AEAPEAUggml_backend_buffer_type@@@?$vector@U?$pair@PEAUggml_backend_device@@PEAUggml_backend_buffer_type@@@std@@V?$allocator@U?$pair@PEAUggml_backend_device@@PEAUggml_backend_buffer_type@@@std@@@2@@std@@AEAAPEAU?$pair@PEAUggml_backend_device@@PEAUggml_backend_buffer_type@@@1@QEAU21@AEAPEAUggml_backend_device@@AEAPEAUggml_backend_buffer_type@@@Z
	??$_Emplace_reallocate@AEAPEAUggml_backend_device@@PEAUggml_backend_buffer_type@@@?$vector@U?$pair@PEAUggml_backend_device@@PEAUggml_backend_buffer_type@@@std@@V?$allocator@U?$pair@PEAUggml_backend_device@@PEAUggml_backend_buffer_type@@@std@@@2@@std@@AEAAPEAU?$pair@PEAUggml_backend_device@@PEAUggml_backend_buffer_type@@@1@QEAU21@AEAPEAUggml_backend_device@@$$QEAPEAUggml_backend_buffer_type@@@Z
	??$_Emplace_reallocate@AEAPEAUggml_backend_event@@@?$vector@PEAUggml_backend_event@@V?$allocator@PEAUggml_backend_event@@@std@@@std@@AEAAPEAPEAUggml_backend_event@@QEAPEAU2@AEAPEAU2@@Z
	??$_Emplace_reallocate@AEAPEAUggml_context@@@?$vector@V?$unique_ptr@Uggml_context@@Uggml_context_deleter@@@std@@V?$allocator@V?$unique_ptr@Uggml_context@@Uggml_context_deleter@@@std@@@2@@std@@AEAAPEAV?$unique_ptr@Uggml_context@@Uggml_context_deleter@@@1@QEAV21@AEAPEAUggml_context@@@Z
	??$_Emplace_reallocate@AEAPEAUggml_context@@AEAV?$unordered_map@IPEAUggml_backend_buffer@@U?$hash@I@std@@U?$equal_to@I@3@V?$allocator@U?$pair@$$CBIPEAUggml_backend_buffer@@@std@@@3@@std@@@?$vector@U?$pair@PEAUggml_context@@V?$unordered_map@IPEAUggml_backend_buffer@@U?$hash@I@std@@U?$equal_to@I@3@V?$allocator@U?$pair@$$CBIPEAUggml_backend_buffer@@@std@@@3@@std@@@std@@V?$allocator@U?$pair@PEAUggml_context@@V?$unordered_map@IPEAUggml_backend_buffer@@U?$hash@I@std@@U?$equal_to@I@3@V?$allocator@U?$pair@$$CBIPEAUggml_backend_buffer@@@std@@@3@@std@@@std@@@2@@std@@AEAAPEAU?$pair@PEAUggml_context@@V?$unordered_map@IPEAUggml_backend_buffer@@U?$hash@I@std@@U?$equal_to@I@3@V?$allocator@U?$pair@$$CBIPEAUggml_backend_buffer@@@std@@@3@@std@@@1@QEAU21@AEAPEAUggml_context@@AEAV?$unordered_map@IPEAUggml_backend_buffer@@U?$hash@I@std@@U?$equal_to@I@3@V?$allocator@U?$pair@$$CBIPEAUggml_backend_buffer@@@std@@@3@@1@@Z
	??$_Emplace_reallocate@AEAUllm_symbol@@@?$vector@Ullm_symbol@@V?$allocator@Ullm_symbol@@@std@@@std@@AEAAPEAUllm_symbol@@QEAU2@AEAU2@@Z
	??$_Emplace_reallocate@AEAV?$basic_string@DU?$char_traits@D@std@@V?$allocator@D@2@@std@@@?$vector@V?$basic_string@DU?$char_traits@D@std@@V?$allocator@D@2@@std@@V?$allocator@V?$basic_string@DU?$char_traits@D@std@@V?$allocator@D@2@@std@@@2@@std@@AEAAPEAV?$basic_string@DU?$char_traits@D@std@@V?$allocator@D@2@@1@QEAV21@AEAV21@@Z
	??$_Emplace_reallocate@AEA_KH@?$vector@U?$pair@_K_K@std@@V?$allocator@U?$pair@_K_K@std@@@2@@std@@AEAAPEAU?$pair@_K_K@1@QEAU21@AEA_K$$QEAH@Z
	??$_Emplace_reallocate@AEBE@?$vector@EV?$allocator@E@std@@@std@@AEAAPEAEQEAEAEBE@Z
	??$_Emplace_reallocate@AEBH@?$vector@HV?$allocator@H@std@@@std@@AEAAPEAHQEAHAEBH@Z
	??$_Emplace_reallocate@AEBI@?$vector@IV?$allocator@I@std@@@std@@AEAAPEAIQEAIAEBI@Z
	??$_Emplace_reallocate@AEBM@?$vector@MV?$allocator@M@std@@@std@@AEAAPEAMQEAMAEBM@Z
	??$_Emplace_reallocate@AEBM@?$vector@NV?$allocator@N@std@@@std@@AEAAPEANQEANAEBM@Z
	??$_Emplace_reallocate@AEBQEAUggml_backend_buffer_type@@@?$vector@PEAUggml_backend_buffer_type@@V?$allocator@PEAUggml_backend_buffer_type@@@std@@@std@@AEAAPEAPEAUggml_backend_buffer_type@@QEAPEAU2@AEBQEAU2@@Z
	??$_Emplace_reallocate@AEBQEAUggml_backend_device@@@?$vector@PEAUggml_backend_device@@V?$allocator@PEAUggml_backend_device@@@std@@@std@@AEAAPEAPEAUggml_backend_device@@QEAPEAU2@AEBQEAU2@@Z
	??$_Emplace_reallocate@AEBQEAUggml_tensor@@@?$vector@PEAUggml_tensor@@V?$allocator@PEAUggml_tensor@@@std@@@std@@AEAAPEAPEAUggml_tensor@@QEAPEAU2@AEBQEAU2@@Z
	??$_Emplace_reallocate@AEBQEAUllama_sampler@@@?$vector@PEAUllama_sampler@@V?$allocator@PEAUllama_sampler@@@std@@@std@@AEAAPEAPEAUllama_sampler@@QEAPEAU2@AEBQEAU2@@Z
	??$_Emplace_reallocate@AEBQEAUllama_token_data@@@?$vector@PEAUllama_token_data@@V?$allocator@PEAUllama_token_data@@@std@@@std@@AEAAPEAPEAUllama_token_data@@QEAPEAU2@AEBQEAU2@@Z
	??$_Emplace_reallocate@AEBQEBUllama_grammar_element@@@?$vector@PEBUllama_grammar_element@@V?$allocator@PEBUllama_grammar_element@@@std@@@std@@AEAAPEAPEBUllama_grammar_element@@QEAPEBU2@AEBQEBU2@@Z
	??$_Emplace_reallocate@AEBU?$pair@II@std@@@?$vector@U?$pair@II@std@@V?$allocator@U?$pair@II@std@@@2@@std@@AEAAPEAU?$pair@II@1@QEAU21@AEBU21@@Z
	??$_Emplace_reallocate@AEBUllama_grammar_candidate@@@?$vector@Ullama_grammar_candidate@@V?$allocator@Ullama_grammar_candidate@@@std@@@std@@AEAAPEAUllama_grammar_candidate@@QEAU2@AEBU2@@Z
	??$_Emplace_reallocate@AEBUllama_grammar_element@@@?$vector@Ullama_grammar_element@@V?$allocator@Ullama_grammar_element@@@std@@@std@@AEAAPEAUllama_grammar_element@@QEAU2@AEBU2@@Z
	??$_Emplace_reallocate@AEBUllama_logit_bias@@@?$vector@Ullama_logit_bias@@V?$allocator@Ullama_logit_bias@@@std@@@std@@AEAAPEAUllama_logit_bias@@QEAU2@AEBU2@@Z
	??$_Emplace_reallocate@AEBUllama_sbatch_seq@@@?$vector@Ullama_sbatch_seq@@V?$allocator@Ullama_sbatch_seq@@@std@@@std@@AEAAPEAUllama_sbatch_seq@@QEAU2@AEBU2@@Z
	??$_Emplace_reallocate@AEBUllama_token_data@@@?$vector@Ullama_token_data@@V?$allocator@Ullama_token_data@@@std@@@std@@AEAAPEAUllama_token_data@@QEAU2@AEBU2@@Z
	??$_Emplace_reallocate@AEBUllm_bigram_bpe@@@?$vector@Ullm_bigram_bpe@@V?$allocator@Ullm_bigram_bpe@@@std@@@std@@AEAAPEAUllm_bigram_bpe@@QEAU2@AEBU2@@Z
	??$_Emplace_reallocate@AEBUllm_bigram_spm@@@?$vector@Ullm_bigram_spm@@V?$allocator@Ullm_bigram_spm@@@std@@@std@@AEAAPEAUllm_bigram_spm@@QEAU2@AEBU2@@Z
	??$_Emplace_reallocate@AEBV?$basic_string@DU?$char_traits@D@std@@V?$allocator@D@2@@std@@@?$vector@V?$basic_string@DU?$char_traits@D@std@@V?$allocator@D@2@@std@@V?$allocator@V?$basic_string@DU?$char_traits@D@std@@V?$allocator@D@2@@std@@@2@@std@@AEAAPEAV?$basic_string@DU?$char_traits@D@std@@V?$allocator@D@2@@1@QEAV21@AEBV21@@Z
	??$_Emplace_reallocate@AEBV?$vector@PEBUllama_grammar_element@@V?$allocator@PEBUllama_grammar_element@@@std@@@std@@@?$vector@V?$vector@PEBUllama_grammar_element@@V?$allocator@PEBUllama_grammar_element@@@std@@@std@@V?$allocator@V?$vector@PEBUllama_grammar_element@@V?$allocator@PEBUllama_grammar_element@@@std@@@std@@@2@@std@@AEAAPEAV?$vector@PEBUllama_grammar_element@@V?$allocator@PEBUllama_grammar_element@@@std@@@1@QEAV21@AEBV21@@Z
	??$_Emplace_reallocate@AEB_K@?$vector@_KV?$allocator@_K@std@@@std@@AEAAPEA_KQEA_KAEB_K@Z
	??$_Emplace_reallocate@E@?$vector@EV?$allocator@E@std@@@std@@AEAAPEAEQEAE$$QEAE@Z
	??$_Emplace_reallocate@H@?$vector@HV?$allocator@H@std@@@std@@AEAAPEAHQEAH$$QEAH@Z
	??$_Emplace_reallocate@I@?$vector@IV?$allocator@I@std@@@std@@AEAAPEAIQEAI$$QEAI@Z
	??$_Emplace_reallocate@N@?$vector@NV?$allocator@N@std@@@std@@AEAAPEANQEAN$$QEAN@Z
	??$_Emplace_reallocate@PEAUggml_backend@@@?$vector@PEAUggml_backend@@V?$allocator@PEAUggml_backend@@@std@@@std@@AEAAPEAPEAUggml_backend@@QEAPEAU2@$$QEAPEAU2@@Z
	??$_Emplace_reallocate@PEAUggml_backend@@AEAP6AXPEAU1@H@Z@?$vector@U?$pair@PEAUggml_backend@@P6AXPEAU1@H@Z@std@@V?$allocator@U?$pair@PEAUggml_backend@@P6AXPEAU1@H@Z@std@@@2@@std@@AEAAPEAU?$pair@PEAUggml_backend@@P6AXPEAU1@H@Z@1@QEAU21@$$QEAPEAUggml_backend@@AEAP6AXPEAU3@H@Z@Z
	??$_Emplace_reallocate@PEAUggml_tensor@@@?$vector@PEAUggml_tensor@@V?$allocator@PEAUggml_tensor@@@std@@@std@@AEAAPEAPEAUggml_tensor@@QEAPEAU2@$$QEAPEAU2@@Z
	??$_Emplace_reallocate@PEAUllama_file@@@?$vector@V?$unique_ptr@Ullama_file@@U?$default_delete@Ullama_file@@@std@@@std@@V?$allocator@V?$unique_ptr@Ullama_file@@U?$default_delete@Ullama_file@@@std@@@std@@@2@@std@@AEAAPEAV?$unique_ptr@Ullama_file@@U?$default_delete@Ullama_file@@@std@@@1@QEAV21@$$QEAPEAUllama_file@@@Z
	??$_Emplace_reallocate@PEAUllama_mlock@@@?$vector@V?$unique_ptr@Ullama_mlock@@U?$default_delete@Ullama_mlock@@@std@@@std@@V?$allocator@V?$unique_ptr@Ullama_mlock@@U?$default_delete@Ullama_mlock@@@std@@@std@@@2@@std@@AEAAPEAV?$unique_ptr@Ullama_mlock@@U?$default_delete@Ullama_mlock@@@std@@@1@QEAV21@$$QEAPEAUllama_mlock@@@Z
	??$_Emplace_reallocate@PEAX@?$vector@PEAXV?$allocator@PEAX@std@@@std@@AEAAPEAPEAXQEAPEAX$$QEAPEAX@Z
	??$_Emplace_reallocate@PEBDAEAPEAUggml_tensor@@@?$vector@U?$pair@V?$basic_string@DU?$char_traits@D@std@@V?$allocator@D@2@@std@@PEAUggml_tensor@@@std@@V?$allocator@U?$pair@V?$basic_string@DU?$char_traits@D@std@@V?$allocator@D@2@@std@@PEAUggml_tensor@@@std@@@2@@std@@AEAAPEAU?$pair@V?$basic_string@DU?$char_traits@D@std@@V?$allocator@D@2@@std@@PEAUggml_tensor@@@1@QEAU21@$$QEAPEBDAEAPEAUggml_tensor@@@Z
	??$_Emplace_reallocate@PEBUllama_grammar_element@@@?$vector@PEBUllama_grammar_element@@V?$allocator@PEBUllama_grammar_element@@@std@@@std@@AEAAPEAPEBUllama_grammar_element@@QEAPEBU2@$$QEAPEBU2@@Z
	??$_Emplace_reallocate@PEBUllama_tensor_weight@llama_model_loader@@@?$vector@PEBUllama_tensor_weight@llama_model_loader@@V?$allocator@PEBUllama_tensor_weight@llama_model_loader@@@std@@@std@@AEAAPEAPEBUllama_tensor_weight@llama_model_loader@@QEAPEBU23@$$QEAPEBU23@@Z
	??$_Emplace_reallocate@U?$pair@V?$vector@IV?$allocator@I@std@@@std@@Ullama_partial_utf8@@@std@@@?$vector@U?$pair@V?$vector@IV?$allocator@I@std@@@std@@Ullama_partial_utf8@@@std@@V?$allocator@U?$pair@V?$vector@IV?$allocator@I@std@@@std@@Ullama_partial_utf8@@@std@@@2@@std@@AEAAPEAU?$pair@V?$vector@IV?$allocator@I@std@@@std@@Ullama_partial_utf8@@@1@QEAU21@$$QEAU21@@Z
	??$_Emplace_reallocate@Ullama_grammar_candidate@@@?$vector@Ullama_grammar_candidate@@V?$allocator@Ullama_grammar_candidate@@@std@@@std@@AEAAPEAUllama_grammar_candidate@@QEAU2@$$QEAU2@@Z
	??$_Emplace_reallocate@Ullama_grammar_element@@@?$vector@Ullama_grammar_element@@V?$allocator@Ullama_grammar_element@@@std@@@std@@AEAAPEAUllama_grammar_element@@QEAU2@$$QEAU2@@Z
	??$_Emplace_reallocate@Ullama_token_data@@@?$vector@Ullama_token_data@@V?$allocator@Ullama_token_data@@@std@@@std@@AEAAPEAUllama_token_data@@QEAU2@$$QEAU2@@Z
	??$_Emplace_reallocate@Ullm_symbol@@@?$vector@Ullm_symbol@@V?$allocator@Ullm_symbol@@@std@@@std@@AEAAPEAUllm_symbol@@QEAU2@$$QEAU2@@Z
	??$_Emplace_reallocate@V?$future@U?$pair@PEAUggml_tensor@@_N@std@@@std@@@?$vector@V?$future@U?$pair@PEAUggml_tensor@@_N@std@@@std@@V?$allocator@V?$future@U?$pair@PEAUggml_tensor@@_N@std@@@std@@@2@@std@@AEAAPEAV?$future@U?$pair@PEAUggml_tensor@@_N@std@@@1@QEAV21@$$QEAV21@@Z
	??$_Emplace_reallocate@V?$unique_ptr@Uggml_backend_buffer@@Uggml_backend_buffer_deleter@@@std@@@?$vector@V?$unique_ptr@Uggml_backend_buffer@@Uggml_backend_buffer_deleter@@@std@@V?$allocator@V?$unique_ptr@Uggml_backend_buffer@@Uggml_backend_buffer_deleter@@@std@@@2@@std@@AEAAPEAV?$unique_ptr@Uggml_backend_buffer@@Uggml_backend_buffer_deleter@@@1@QEAV21@$$QEAV21@@Z
	??$_Emplace_reallocate@V?$unique_ptr@Ullama_mlock@@U?$default_delete@Ullama_mlock@@@std@@@std@@@?$vector@V?$unique_ptr@Ullama_mlock@@U?$default_delete@Ullama_mlock@@@std@@@std@@V?$allocator@V?$unique_ptr@Ullama_mlock@@U?$default_delete@Ullama_mlock@@@std@@@std@@@2@@std@@AEAAPEAV?$unique_ptr@Ullama_mlock@@U?$default_delete@Ullama_mlock@@@std@@@1@QEAV21@$$QEAV21@@Z
	??$_Emplace_reallocate@V?$unique_ptr@Ullama_mmap@@U?$default_delete@Ullama_mmap@@@std@@@std@@@?$vector@V?$unique_ptr@Ullama_mmap@@U?$default_delete@Ullama_mmap@@@std@@@std@@V?$allocator@V?$unique_ptr@Ullama_mmap@@U?$default_delete@Ullama_mmap@@@std@@@std@@@2@@std@@AEAAPEAV?$unique_ptr@Ullama_mmap@@U?$default_delete@Ullama_mmap@@@std@@@1@QEAV21@$$QEAV21@@Z
	??$_Emplace_reallocate@_J@?$vector@_KV?$allocator@_K@std@@@std@@AEAAPEA_KQEA_K$$QEA_J@Z
	??$_Emplace_reallocate@_K@?$vector@_KV?$allocator@_K@std@@@std@@AEAAPEA_KQEA_K$$QEA_K@Z
	??$_Erase_head@V?$allocator@U?$_Tree_node@HPEAX@std@@@std@@@?$_Tree_val@U?$_Tree_simple_types@H@std@@@std@@QEAAXAEAV?$allocator@U?$_Tree_node@HPEAX@std@@@1@@Z
	??$_Erase_head@V?$allocator@U?$_Tree_node@U?$pair@$$CBW4llm_tensor@@PEBD@std@@PEAX@std@@@std@@@?$_Tree_val@U?$_Tree_simple_types@U?$pair@$$CBW4llm_tensor@@PEBD@std@@@std@@@std@@QEAAXAEAV?$allocator@U?$_Tree_node@U?$pair@$$CBW4llm_tensor@@PEBD@std@@PEAX@std@@@1@@Z
	??$_Erase_tree@V?$allocator@U?$_Tree_node@HPEAX@std@@@std@@@?$_Tree_val@U?$_Tree_simple_types@H@std@@@std@@QEAAXAEAV?$allocator@U?$_Tree_node@HPEAX@std@@@1@PEAU?$_Tree_node@HPEAX@1@@Z
	??$_Erase_tree@V?$allocator@U?$_Tree_node@PEAUllama_lora_adapter@@PEAX@std@@@std@@@?$_Tree_val@U?$_Tree_simple_types@PEAUllama_lora_adapter@@@std@@@std@@QEAAXAEAV?$allocator@U?$_Tree_node@PEAUllama_lora_adapter@@PEAX@std@@@1@PEAU?$_Tree_node@PEAUllama_lora_adapter@@PEAX@1@@Z
	??$_Erase_tree@V?$allocator@U?$_Tree_node@U?$pair@$$CBDUnaive_trie@@@std@@PEAX@std@@@std@@@?$_Tree_val@U?$_Tree_simple_types@U?$pair@$$CBDUnaive_trie@@@std@@@std@@@std@@QEAAXAEAV?$allocator@U?$_Tree_node@U?$pair@$$CBDUnaive_trie@@@std@@PEAX@std@@@1@PEAU?$_Tree_node@U?$pair@$$CBDUnaive_trie@@@std@@PEAX@1@@Z
	??$_Erase_tree@V?$allocator@U?$_Tree_node@U?$pair@$$CBHH@std@@PEAX@std@@@std@@@?$_Tree_val@U?$_Tree_simple_types@U?$pair@$$CBHH@std@@@std@@@std@@QEAAXAEAV?$allocator@U?$_Tree_node@U?$pair@$$CBHH@std@@PEAX@std@@@1@PEAU?$_Tree_node@U?$pair@$$CBHH@std@@PEAX@1@@Z
	??$_Erase_tree@V?$allocator@U?$_Tree_node@U?$pair@$$CBHV?$basic_string@DU?$char_traits@D@std@@V?$allocator@D@2@@std@@@std@@PEAX@std@@@std@@@?$_Tree_val@U?$_Tree_simple_types@U?$pair@$$CBHV?$basic_string@DU?$char_traits@D@std@@V?$allocator@D@2@@std@@@std@@@std@@@std@@QEAAXAEAV?$allocator@U?$_Tree_node@U?$pair@$$CBHV?$basic_string@DU?$char_traits@D@std@@V?$allocator@D@2@@std@@@std@@PEAX@std@@@1@PEAU?$_Tree_node@U?$pair@$$CBHV?$basic_string@DU?$char_traits@D@std@@V?$allocator@D@2@@std@@@std@@PEAX@1@@Z
	??$_Erase_tree@V?$allocator@U?$_Tree_node@U?$pair@$$CBHV?$vector@MV?$allocator@M@std@@@std@@@std@@PEAX@std@@@std@@@?$_Tree_val@U?$_Tree_simple_types@U?$pair@$$CBHV?$vector@MV?$allocator@M@std@@@std@@@std@@@std@@@std@@QEAAXAEAV?$allocator@U?$_Tree_node@U?$pair@$$CBHV?$vector@MV?$allocator@M@std@@@std@@@std@@PEAX@std@@@1@PEAU?$_Tree_node@U?$pair@$$CBHV?$vector@MV?$allocator@M@std@@@std@@@std@@PEAX@1@@Z
	??$_Erase_tree@V?$allocator@U?$_Tree_node@U?$pair@$$CBIV?$basic_string@DU?$char_traits@D@std@@V?$allocator@D@2@@std@@@std@@PEAX@std@@@std@@@?$_Tree_val@U?$_Tree_simple_types@U?$pair@$$CBIV?$basic_string@DU?$char_traits@D@std@@V?$allocator@D@2@@std@@@std@@@std@@@std@@QEAAXAEAV?$allocator@U?$_Tree_node@U?$pair@$$CBIV?$basic_string@DU?$char_traits@D@std@@V?$allocator@D@2@@std@@@std@@PEAX@std@@@1@PEAU?$_Tree_node@U?$pair@$$CBIV?$basic_string@DU?$char_traits@D@std@@V?$allocator@D@2@@std@@@std@@PEAX@1@@Z
	??$_Erase_tree@V?$allocator@U?$_Tree_node@U?$pair@$$CBU?$pair@V?$basic_string@DU?$char_traits@D@std@@V?$allocator@D@2@@std@@V12@@std@@H@std@@PEAX@std@@@std@@@?$_Tree_val@U?$_Tree_simple_types@U?$pair@$$CBU?$pair@V?$basic_string@DU?$char_traits@D@std@@V?$allocator@D@2@@std@@V12@@std@@H@std@@@std@@@std@@QEAAXAEAV?$allocator@U?$_Tree_node@U?$pair@$$CBU?$pair@V?$basic_string@DU?$char_traits@D@std@@V?$allocator@D@2@@std@@V12@@std@@H@std@@PEAX@std@@@1@PEAU?$_Tree_node@U?$pair@$$CBU?$pair@V?$basic_string@DU?$char_traits@D@std@@V?$allocator@D@2@@std@@V12@@std@@H@std@@PEAX@1@@Z
	??$_Erase_tree@V?$allocator@U?$_Tree_node@U?$pair@$$CBV?$basic_string@DU?$char_traits@D@std@@V?$allocator@D@2@@std@@H@std@@PEAX@std@@@std@@@?$_Tree_val@U?$_Tree_simple_types@U?$pair@$$CBV?$basic_string@DU?$char_traits@D@std@@V?$allocator@D@2@@std@@H@std@@@std@@@std@@QEAAXAEAV?$allocator@U?$_Tree_node@U?$pair@$$CBV?$basic_string@DU?$char_traits@D@std@@V?$allocator@D@2@@std@@H@std@@PEAX@std@@@1@PEAU?$_Tree_node@U?$pair@$$CBV?$basic_string@DU?$char_traits@D@std@@V?$allocator@D@2@@std@@H@std@@PEAX@1@@Z
	??$_Erase_tree@V?$allocator@U?$_Tree_node@U?$pair@$$CBV?$basic_string@DU?$char_traits@D@std@@V?$allocator@D@2@@std@@I@std@@PEAX@std@@@std@@@?$_Tree_val@U?$_Tree_simple_types@U?$pair@$$CBV?$basic_string@DU?$char_traits@D@std@@V?$allocator@D@2@@std@@I@std@@@std@@@std@@QEAAXAEAV?$allocator@U?$_Tree_node@U?$pair@$$CBV?$basic_string@DU?$char_traits@D@std@@V?$allocator@D@2@@std@@I@std@@PEAX@std@@@1@PEAU?$_Tree_node@U?$pair@$$CBV?$basic_string@DU?$char_traits@D@std@@V?$allocator@D@2@@std@@I@std@@PEAX@1@@Z
	??$_Erase_tree@V?$allocator@U?$_Tree_node@U?$pair@$$CBV?$basic_string@DU?$char_traits@D@std@@V?$allocator@D@2@@std@@U?$pair@HH@2@@std@@PEAX@std@@@std@@@?$_Tree_val@U?$_Tree_simple_types@U?$pair@$$CBV?$basic_string@DU?$char_traits@D@std@@V?$allocator@D@2@@std@@U?$pair@HH@2@@std@@@std@@@std@@QEAAXAEAV?$allocator@U?$_Tree_node@U?$pair@$$CBV?$basic_string@DU?$char_traits@D@std@@V?$allocator@D@2@@std@@U?$pair@HH@2@@std@@PEAX@std@@@1@PEAU?$_Tree_node@U?$pair@$$CBV?$basic_string@DU?$char_traits@D@std@@V?$allocator@D@2@@std@@U?$pair@HH@2@@std@@PEAX@1@@Z
	??$_Erase_tree@V?$allocator@U?$_Tree_node@U?$pair@$$CBV?$basic_string@DU?$char_traits@D@std@@V?$allocator@D@2@@std@@Ullama_lora_weight@@@std@@PEAX@std@@@std@@@?$_Tree_val@U?$_Tree_simple_types@U?$pair@$$CBV?$basic_string@DU?$char_traits@D@std@@V?$allocator@D@2@@std@@Ullama_lora_weight@@@std@@@std@@@std@@QEAAXAEAV?$allocator@U?$_Tree_node@U?$pair@$$CBV?$basic_string@DU?$char_traits@D@std@@V?$allocator@D@2@@std@@Ullama_lora_weight@@@std@@PEAX@std@@@1@PEAU?$_Tree_node@U?$pair@$$CBV?$basic_string@DU?$char_traits@D@std@@V?$allocator@D@2@@std@@Ullama_lora_weight@@@std@@PEAX@1@@Z
	??$_Erase_tree@V?$allocator@U?$_Tree_node@U?$pair@$$CBV?$basic_string@DU?$char_traits@D@std@@V?$allocator@D@2@@std@@Ullama_tensor_weight@llama_model_loader@@@std@@PEAX@std@@@std@@@?$_Tree_val@U?$_Tree_simple_types@U?$pair@$$CBV?$basic_string@DU?$char_traits@D@std@@V?$allocator@D@2@@std@@Ullama_tensor_weight@llama_model_loader@@@std@@@std@@@std@@QEAAXAEAV?$allocator@U?$_Tree_node@U?$pair@$$CBV?$basic_string@DU?$char_traits@D@std@@V?$allocator@D@2@@std@@Ullama_tensor_weight@llama_model_loader@@@std@@PEAX@std@@@1@PEAU?$_Tree_node@U?$pair@$$CBV?$basic_string@DU?$char_traits@D@std@@V?$allocator@D@2@@std@@Ullama_tensor_weight@llama_model_loader@@@std@@PEAX@1@@Z
	??$_Erase_tree@V?$allocator@U?$_Tree_node@U?$pair@$$CBW4ggml_type@@I@std@@PEAX@std@@@std@@@?$_Tree_val@U?$_Tree_simple_types@U?$pair@$$CBW4ggml_type@@I@std@@@std@@@std@@QEAAXAEAV?$allocator@U?$_Tree_node@U?$pair@$$CBW4ggml_type@@I@std@@PEAX@std@@@1@PEAU?$_Tree_node@U?$pair@$$CBW4ggml_type@@I@std@@PEAX@1@@Z
	??$_Erase_tree@V?$allocator@U?$_Tree_node@U?$pair@$$CBW4llama_rope_scaling_type@@PEBD@std@@PEAX@std@@@std@@@?$_Tree_val@U?$_Tree_simple_types@U?$pair@$$CBW4llama_rope_scaling_type@@PEBD@std@@@std@@@std@@QEAAXAEAV?$allocator@U?$_Tree_node@U?$pair@$$CBW4llama_rope_scaling_type@@PEBD@std@@PEAX@std@@@1@PEAU?$_Tree_node@U?$pair@$$CBW4llama_rope_scaling_type@@PEBD@std@@PEAX@1@@Z
	??$_Erase_tree@V?$allocator@U?$_Tree_node@U?$pair@$$CBW4llm_arch@@PEBD@std@@PEAX@std@@@std@@@?$_Tree_val@U?$_Tree_simple_types@U?$pair@$$CBW4llm_arch@@PEBD@std@@@std@@@std@@QEAAXAEAV?$allocator@U?$_Tree_node@U?$pair@$$CBW4llm_arch@@PEBD@std@@PEAX@std@@@1@PEAU?$_Tree_node@U?$pair@$$CBW4llm_arch@@PEBD@std@@PEAX@1@@Z
	??$_Erase_tree@V?$allocator@U?$_Tree_node@U?$pair@$$CBW4llm_arch@@V?$map@W4llm_tensor@@PEBDU?$less@W4llm_tensor@@@std@@V?$allocator@U?$pair@$$CBW4llm_tensor@@PEBD@std@@@3@@std@@@std@@PEAX@std@@@std@@@?$_Tree_val@U?$_Tree_simple_types@U?$pair@$$CBW4llm_arch@@V?$map@W4llm_tensor@@PEBDU?$less@W4llm_tensor@@@std@@V?$allocator@U?$pair@$$CBW4llm_tensor@@PEBD@std@@@3@@std@@@std@@@std@@@std@@QEAAXAEAV?$allocator@U?$_Tree_node@U?$pair@$$CBW4llm_arch@@V?$map@W4llm_tensor@@PEBDU?$less@W4llm_tensor@@@std@@V?$allocator@U?$pair@$$CBW4llm_tensor@@PEBD@std@@@3@@std@@@std@@PEAX@std@@@1@PEAU?$_Tree_node@U?$pair@$$CBW4llm_arch@@V?$map@W4llm_tensor@@PEBDU?$less@W4llm_tensor@@@std@@V?$allocator@U?$pair@$$CBW4llm_tensor@@PEBD@std@@@3@@std@@@std@@PEAX@1@@Z
	??$_Erase_tree@V?$allocator@U?$_Tree_node@U?$pair@$$CBW4llm_kv@@PEBD@std@@PEAX@std@@@std@@@?$_Tree_val@U?$_Tree_simple_types@U?$pair@$$CBW4llm_kv@@PEBD@std@@@std@@@std@@QEAAXAEAV?$allocator@U?$_Tree_node@U?$pair@$$CBW4llm_kv@@PEBD@std@@PEAX@std@@@1@PEAU?$_Tree_node@U?$pair@$$CBW4llm_kv@@PEBD@std@@PEAX@1@@Z
	??$_Erase_tree@V?$allocator@U?$_Tree_node@U?$pair@$$CBW4llm_tensor@@PEBD@std@@PEAX@std@@@std@@@?$_Tree_val@U?$_Tree_simple_types@U?$pair@$$CBW4llm_tensor@@PEBD@std@@@std@@@std@@QEAAXAEAV?$allocator@U?$_Tree_node@U?$pair@$$CBW4llm_tensor@@PEBD@std@@PEAX@std@@@1@PEAU?$_Tree_node@U?$pair@$$CBW4llm_tensor@@PEBD@std@@PEAX@1@@Z
	??$_Erase_tree@V?$allocator@U?$_Tree_node@U?$pair@$$CBW4llm_tensor@@Ullm_tensor_info@@@std@@PEAX@std@@@std@@@?$_Tree_val@U?$_Tree_simple_types@U?$pair@$$CBW4llm_tensor@@Ullm_tensor_info@@@std@@@std@@@std@@QEAAXAEAV?$allocator@U?$_Tree_node@U?$pair@$$CBW4llm_tensor@@Ullm_tensor_info@@@std@@PEAX@std@@@1@PEAU?$_Tree_node@U?$pair@$$CBW4llm_tensor@@Ullm_tensor_info@@@std@@PEAX@1@@Z
	??$_Erase_tree@V?$allocator@U?$_Tree_node@U?$pair@QEAUggml_backend_buffer_type@@PEAUggml_context@@@std@@PEAX@std@@@std@@@?$_Tree_val@U?$_Tree_simple_types@U?$pair@QEAUggml_backend_buffer_type@@PEAUggml_context@@@std@@@std@@@std@@QEAAXAEAV?$allocator@U?$_Tree_node@U?$pair@QEAUggml_backend_buffer_type@@PEAUggml_context@@@std@@PEAX@std@@@1@PEAU?$_Tree_node@U?$pair@QEAUggml_backend_buffer_type@@PEAUggml_context@@@std@@PEAX@1@@Z
	??$_Erase_tree@V?$allocator@U?$_Tree_node@U?$pair@QEAUggml_backend_device@@V?$vector@U?$pair@PEAUggml_backend_device@@PEAUggml_backend_buffer_type@@@std@@V?$allocator@U?$pair@PEAUggml_backend_device@@PEAUggml_backend_buffer_type@@@std@@@2@@std@@@std@@PEAX@std@@@std@@@?$_Tree_val@U?$_Tree_simple_types@U?$pair@QEAUggml_backend_device@@V?$vector@U?$pair@PEAUggml_backend_device@@PEAUggml_backend_buffer_type@@@std@@V?$allocator@U?$pair@PEAUggml_backend_device@@PEAUggml_backend_buffer_type@@@std@@@2@@std@@@std@@@std@@@std@@QEAAXAEAV?$allocator@U?$_Tree_node@U?$pair@QEAUggml_backend_device@@V?$vector@U?$pair@PEAUggml_backend_device@@PEAUggml_backend_buffer_type@@@std@@V?$allocator@U?$pair@PEAUggml_backend_device@@PEAUggml_backend_buffer_type@@@std@@@2@@std@@@std@@PEAX@std@@@1@PEAU?$_Tree_node@U?$pair@QEAUggml_backend_device@@V?$vector@U?$pair@PEAUggml_backend_device@@PEAUggml_backend_buffer_type@@@std@@V?$allocator@U?$pair@PEAUggml_backend_device@@PEAUggml_backend_buffer_type@@@std@@@2@@std@@@std@@PEAX@1@@Z
	??$_Erase_tree_and_orphan@V?$allocator@U?$_Tree_node@HPEAX@std@@@std@@@?$_Tree_val@U?$_Tree_simple_types@H@std@@@std@@QEAAXAEAV?$allocator@U?$_Tree_node@HPEAX@std@@@1@PEAU?$_Tree_node@HPEAX@1@@Z
	??$_Erase_tree_and_orphan@V?$allocator@U?$_Tree_node@U?$pair@$$CBW4llm_tensor@@PEBD@std@@PEAX@std@@@std@@@?$_Tree_val@U?$_Tree_simple_types@U?$pair@$$CBW4llm_tensor@@PEBD@std@@@std@@@std@@QEAAXAEAV?$allocator@U?$_Tree_node@U?$pair@$$CBW4llm_tensor@@PEBD@std@@PEAX@std@@@1@PEAU?$_Tree_node@U?$pair@$$CBW4llm_tensor@@PEBD@std@@PEAX@1@@Z
	??$_Fill_memset@PEADD@std@@YAXPEADD_K@Z
	??$_Fill_zero_memset@PEAH@std@@YAXPEAH_K@Z
	??$_Fill_zero_memset@PEAI@std@@YAXPEAI_K@Z
	??$_Fill_zero_memset@PEAM@std@@YAXPEAM_K@Z
	??$_Fill_zero_memset@PEAN@std@@YAXPEAN_K@Z
	??$_Fill_zero_memset@PEA_K@std@@YAXPEA_K_K@Z
	??$_Find_hint@H@?$_Tree@V?$_Tmap_traits@HHU?$less@H@std@@V?$allocator@U?$pair@$$CBHH@std@@@2@$0A@@std@@@std@@IEBA?AU?$_Tree_find_hint_result@PEAU?$_Tree_node@U?$pair@$$CBHH@std@@PEAX@std@@@1@QEAU?$_Tree_node@U?$pair@$$CBHH@std@@PEAX@1@AEBH@Z
	??$_Find_hint@H@?$_Tree@V?$_Tmap_traits@HV?$basic_string@DU?$char_traits@D@std@@V?$allocator@D@2@@std@@U?$less@H@2@V?$allocator@U?$pair@$$CBHV?$basic_string@DU?$char_traits@D@std@@V?$allocator@D@2@@std@@@std@@@2@$0A@@std@@@std@@IEBA?AU?$_Tree_find_hint_result@PEAU?$_Tree_node@U?$pair@$$CBHV?$basic_string@DU?$char_traits@D@std@@V?$allocator@D@2@@std@@@std@@PEAX@std@@@1@QEAU?$_Tree_node@U?$pair@$$CBHV?$basic_string@DU?$char_traits@D@std@@V?$allocator@D@2@@std@@@std@@PEAX@1@AEBH@Z
	??$_Find_hint@V?$basic_string@DU?$char_traits@D@std@@V?$allocator@D@2@@std@@@?$_Tree@V?$_Tmap_traits@V?$basic_string@DU?$char_traits@D@std@@V?$allocator@D@2@@std@@HU?$less@V?$basic_string@DU?$char_traits@D@std@@V?$allocator@D@2@@std@@@2@V?$allocator@U?$pair@$$CBV?$basic_string@DU?$char_traits@D@std@@V?$allocator@D@2@@std@@H@std@@@2@$0A@@std@@@std@@IEBA?AU?$_Tree_find_hint_result@PEAU?$_Tree_node@U?$pair@$$CBV?$basic_string@DU?$char_traits@D@std@@V?$allocator@D@2@@std@@H@std@@PEAX@std@@@1@QEAU?$_Tree_node@U?$pair@$$CBV?$basic_string@DU?$char_traits@D@std@@V?$allocator@D@2@@std@@H@std@@PEAX@1@AEBV?$basic_string@DU?$char_traits@D@std@@V?$allocator@D@2@@1@@Z
	??$_Find_hint@W4llama_rope_scaling_type@@@?$_Tree@V?$_Tmap_traits@W4llama_rope_scaling_type@@PEBDU?$less@W4llama_rope_scaling_type@@@std@@V?$allocator@U?$pair@$$CBW4llama_rope_scaling_type@@PEBD@std@@@3@$0A@@std@@@std@@IEBA?AU?$_Tree_find_hint_result@PEAU?$_Tree_node@U?$pair@$$CBW4llama_rope_scaling_type@@PEBD@std@@PEAX@std@@@1@QEAU?$_Tree_node@U?$pair@$$CBW4llama_rope_scaling_type@@PEBD@std@@PEAX@1@AEBW4llama_rope_scaling_type@@@Z
	??$_Find_hint@W4llm_arch@@@?$_Tree@V?$_Tmap_traits@W4llm_arch@@PEBDU?$less@W4llm_arch@@@std@@V?$allocator@U?$pair@$$CBW4llm_arch@@PEBD@std@@@3@$0A@@std@@@std@@IEBA?AU?$_Tree_find_hint_result@PEAU?$_Tree_node@U?$pair@$$CBW4llm_arch@@PEBD@std@@PEAX@std@@@1@QEAU?$_Tree_node@U?$pair@$$CBW4llm_arch@@PEBD@std@@PEAX@1@AEBW4llm_arch@@@Z
	??$_Find_hint@W4llm_arch@@@?$_Tree@V?$_Tmap_traits@W4llm_arch@@V?$map@W4llm_tensor@@PEBDU?$less@W4llm_tensor@@@std@@V?$allocator@U?$pair@$$CBW4llm_tensor@@PEBD@std@@@3@@std@@U?$less@W4llm_arch@@@3@V?$allocator@U?$pair@$$CBW4llm_arch@@V?$map@W4llm_tensor@@PEBDU?$less@W4llm_tensor@@@std@@V?$allocator@U?$pair@$$CBW4llm_tensor@@PEBD@std@@@3@@std@@@std@@@3@$0A@@std@@@std@@IEBA?AU?$_Tree_find_hint_result@PEAU?$_Tree_node@U?$pair@$$CBW4llm_arch@@V?$map@W4llm_tensor@@PEBDU?$less@W4llm_tensor@@@std@@V?$allocator@U?$pair@$$CBW4llm_tensor@@PEBD@std@@@3@@std@@@std@@PEAX@std@@@1@QEAU?$_Tree_node@U?$pair@$$CBW4llm_arch@@V?$map@W4llm_tensor@@PEBDU?$less@W4llm_tensor@@@std@@V?$allocator@U?$pair@$$CBW4llm_tensor@@PEBD@std@@@3@@std@@@std@@PEAX@1@AEBW4llm_arch@@@Z
	??$_Find_hint@W4llm_kv@@@?$_Tree@V?$_Tmap_traits@W4llm_kv@@PEBDU?$less@W4llm_kv@@@std@@V?$allocator@U?$pair@$$CBW4llm_kv@@PEBD@std@@@3@$0A@@std@@@std@@IEBA?AU?$_Tree_find_hint_result@PEAU?$_Tree_node@U?$pair@$$CBW4llm_kv@@PEBD@std@@PEAX@std@@@1@QEAU?$_Tree_node@U?$pair@$$CBW4llm_kv@@PEBD@std@@PEAX@1@AEBW4llm_kv@@@Z
	??$_Find_hint@W4llm_tensor@@@?$_Tree@V?$_Tmap_traits@W4llm_tensor@@PEBDU?$less@W4llm_tensor@@@std@@V?$allocator@U?$pair@$$CBW4llm_tensor@@PEBD@std@@@3@$0A@@std@@@std@@IEBA?AU?$_Tree_find_hint_result@PEAU?$_Tree_node@U?$pair@$$CBW4llm_tensor@@PEBD@std@@PEAX@std@@@1@QEAU?$_Tree_node@U?$pair@$$CBW4llm_tensor@@PEBD@std@@PEAX@1@AEBW4llm_tensor@@@Z
	??$_Find_hint@W4llm_tensor@@@?$_Tree@V?$_Tmap_traits@W4llm_tensor@@Ullm_tensor_info@@U?$less@W4llm_tensor@@@std@@V?$allocator@U?$pair@$$CBW4llm_tensor@@Ullm_tensor_info@@@std@@@4@$0A@@std@@@std@@IEBA?AU?$_Tree_find_hint_result@PEAU?$_Tree_node@U?$pair@$$CBW4llm_tensor@@Ullm_tensor_info@@@std@@PEAX@std@@@1@QEAU?$_Tree_node@U?$pair@$$CBW4llm_tensor@@Ullm_tensor_info@@@std@@PEAX@1@AEBW4llm_tensor@@@Z
	??$_Find_last@V?$basic_string@DU?$char_traits@D@std@@V?$allocator@D@2@@std@@@?$_Hash@V?$_Umap_traits@V?$basic_string@DU?$char_traits@D@std@@V?$allocator@D@2@@std@@EV?$_Uhash_compare@V?$basic_string@DU?$char_traits@D@std@@V?$allocator@D@2@@std@@U?$hash@V?$basic_string@DU?$char_traits@D@std@@V?$allocator@D@2@@std@@@2@U?$equal_to@V?$basic_string@DU?$char_traits@D@std@@V?$allocator@D@2@@std@@@2@@2@V?$allocator@U?$pair@$$CBV?$basic_string@DU?$char_traits@D@std@@V?$allocator@D@2@@std@@E@std@@@2@$0A@@std@@@std@@IEBA?AU?$_Hash_find_last_result@PEAU?$_List_node@U?$pair@$$CBV?$basic_string@DU?$char_traits@D@std@@V?$allocator@D@2@@std@@E@std@@PEAX@std@@@1@AEBV?$basic_string@DU?$char_traits@D@std@@V?$allocator@D@2@@1@_K@Z
	??$_Find_last@V?$basic_string@DU?$char_traits@D@std@@V?$allocator@D@2@@std@@@?$_Hash@V?$_Umap_traits@V?$basic_string@DU?$char_traits@D@std@@V?$allocator@D@2@@std@@HV?$_Uhash_compare@V?$basic_string@DU?$char_traits@D@std@@V?$allocator@D@2@@std@@U?$hash@V?$basic_string@DU?$char_traits@D@std@@V?$allocator@D@2@@std@@@2@U?$equal_to@V?$basic_string@DU?$char_traits@D@std@@V?$allocator@D@2@@std@@@2@@2@V?$allocator@U?$pair@$$CBV?$basic_string@DU?$char_traits@D@std@@V?$allocator@D@2@@std@@H@std@@@2@$0A@@std@@@std@@IEBA?AU?$_Hash_find_last_result@PEAU?$_List_node@U?$pair@$$CBV?$basic_string@DU?$char_traits@D@std@@V?$allocator@D@2@@std@@H@std@@PEAX@std@@@1@AEBV?$basic_string@DU?$char_traits@D@std@@V?$allocator@D@2@@1@_K@Z
	??$_Find_last@V?$basic_string@DU?$char_traits@D@std@@V?$allocator@D@2@@std@@@?$_Hash@V?$_Umap_traits@V?$basic_string@DU?$char_traits@D@std@@V?$allocator@D@2@@std@@Ullama_lora_weight@@V?$_Uhash_compare@V?$basic_string@DU?$char_traits@D@std@@V?$allocator@D@2@@std@@U?$hash@V?$basic_string@DU?$char_traits@D@std@@V?$allocator@D@2@@std@@@2@U?$equal_to@V?$basic_string@DU?$char_traits@D@std@@V?$allocator@D@2@@std@@@2@@2@V?$allocator@U?$pair@$$CBV?$basic_string@DU?$char_traits@D@std@@V?$allocator@D@2@@std@@Ullama_lora_weight@@@std@@@2@$0A@@std@@@std@@IEBA?AU?$_Hash_find_last_result@PEAU?$_List_node@U?$pair@$$CBV?$basic_string@DU?$char_traits@D@std@@V?$allocator@D@2@@std@@Ullama_lora_weight@@@std@@PEAX@std@@@1@AEBV?$basic_string@DU?$char_traits@D@std@@V?$allocator@D@2@@1@_K@Z
	??$_Find_last@V?$basic_string@DU?$char_traits@D@std@@V?$allocator@D@2@@std@@@?$_Hash@V?$_Umap_traits@V?$basic_string@DU?$char_traits@D@std@@V?$allocator@D@2@@std@@Ullama_model_kv_override@@V?$_Uhash_compare@V?$basic_string@DU?$char_traits@D@std@@V?$allocator@D@2@@std@@U?$hash@V?$basic_string@DU?$char_traits@D@std@@V?$allocator@D@2@@std@@@2@U?$equal_to@V?$basic_string@DU?$char_traits@D@std@@V?$allocator@D@2@@std@@@2@@2@V?$allocator@U?$pair@$$CBV?$basic_string@DU?$char_traits@D@std@@V?$allocator@D@2@@std@@Ullama_model_kv_override@@@std@@@2@$0A@@std@@@std@@IEBA?AU?$_Hash_find_last_result@PEAU?$_List_node@U?$pair@$$CBV?$basic_string@DU?$char_traits@D@std@@V?$allocator@D@2@@std@@Ullama_model_kv_override@@@std@@PEAX@std@@@1@AEBV?$basic_string@DU?$char_traits@D@std@@V?$allocator@D@2@@1@_K@Z
	??$_Find_last@V?$basic_string@DU?$char_traits@D@std@@V?$allocator@D@2@@std@@@?$_Hash@V?$_Umap_traits@V?$basic_string@DU?$char_traits@D@std@@V?$allocator@D@2@@std@@V12@V?$_Uhash_compare@V?$basic_string@DU?$char_traits@D@std@@V?$allocator@D@2@@std@@U?$hash@V?$basic_string@DU?$char_traits@D@std@@V?$allocator@D@2@@std@@@2@U?$equal_to@V?$basic_string@DU?$char_traits@D@std@@V?$allocator@D@2@@std@@@2@@2@V?$allocator@U?$pair@$$CBV?$basic_string@DU?$char_traits@D@std@@V?$allocator@D@2@@std@@V12@@std@@@2@$0A@@std@@@std@@IEBA?AU?$_Hash_find_last_result@PEAU?$_List_node@U?$pair@$$CBV?$basic_string@DU?$char_traits@D@std@@V?$allocator@D@2@@std@@V12@@std@@PEAX@std@@@1@AEBV?$basic_string@DU?$char_traits@D@std@@V?$allocator@D@2@@1@_K@Z
	??$_Find_lower_bound@V?$basic_string@DU?$char_traits@D@std@@V?$allocator@D@2@@std@@@?$_Tree@V?$_Tmap_traits@V?$basic_string@DU?$char_traits@D@std@@V?$allocator@D@2@@std@@IU?$less@V?$basic_string@DU?$char_traits@D@std@@V?$allocator@D@2@@std@@@2@V?$allocator@U?$pair@$$CBV?$basic_string@DU?$char_traits@D@std@@V?$allocator@D@2@@std@@I@std@@@2@$0A@@std@@@std@@IEBA?AU?$_Tree_find_result@PEAU?$_Tree_node@U?$pair@$$CBV?$basic_string@DU?$char_traits@D@std@@V?$allocator@D@2@@std@@I@std@@PEAX@std@@@1@AEBV?$basic_string@DU?$char_traits@D@std@@V?$allocator@D@2@@1@@Z
	??$_Find_lower_bound@V?$basic_string@DU?$char_traits@D@std@@V?$allocator@D@2@@std@@@?$_Tree@V?$_Tmap_traits@V?$basic_string@DU?$char_traits@D@std@@V?$allocator@D@2@@std@@Ullama_tensor_weight@llama_model_loader@@Uweight_name_comparer@4@V?$allocator@U?$pair@$$CBV?$basic_string@DU?$char_traits@D@std@@V?$allocator@D@2@@std@@Ullama_tensor_weight@llama_model_loader@@@std@@@2@$0A@@std@@@std@@IEBA?AU?$_Tree_find_result@PEAU?$_Tree_node@U?$pair@$$CBV?$basic_string@DU?$char_traits@D@std@@V?$allocator@D@2@@std@@Ullama_tensor_weight@llama_model_loader@@@std@@PEAX@std@@@1@AEBV?$basic_string@DU?$char_traits@D@std@@V?$allocator@D@2@@1@@Z
	??$_Find_vectorized@$$CBDE@std@@YAPEBDQEBD0E@Z
	??$_Find_vectorized@$$CB_WG@std@@YAPEB_WQEB_W0G@Z
	??$_Fnv1a_append_value@E@std@@YA_K_KAEBE@Z
	??$_Fnv1a_append_value@H@std@@YA_K_KAEBH@Z
	??$_Fnv1a_append_value@I@std@@YA_K_KAEBI@Z
	??$_Fnv1a_append_value@PEAUllama_lora_adapter@@@std@@YA_K_KAEBQEAUllama_lora_adapter@@@Z
	??$_Free_non_head@V?$allocator@U?$_List_node@U?$pair@$$CBHV?$vector@HV?$allocator@H@std@@@std@@@std@@PEAX@std@@@std@@@?$_List_node@U?$pair@$$CBHV?$vector@HV?$allocator@H@std@@@std@@@std@@PEAX@std@@SAXAEAV?$allocator@U?$_List_node@U?$pair@$$CBHV?$vector@HV?$allocator@H@std@@@std@@@std@@PEAX@std@@@1@PEAU01@@Z
	??$_Free_non_head@V?$allocator@U?$_List_node@U?$pair@$$CBV?$basic_string@DU?$char_traits@D@std@@V?$allocator@D@2@@std@@E@std@@PEAX@std@@@std@@@?$_List_node@U?$pair@$$CBV?$basic_string@DU?$char_traits@D@std@@V?$allocator@D@2@@std@@E@std@@PEAX@std@@SAXAEAV?$allocator@U?$_List_node@U?$pair@$$CBV?$basic_string@DU?$char_traits@D@std@@V?$allocator@D@2@@std@@E@std@@PEAX@std@@@1@PEAU01@@Z
	??$_Free_non_head@V?$allocator@U?$_List_node@U?$pair@$$CBV?$basic_string@DU?$char_traits@D@std@@V?$allocator@D@2@@std@@H@std@@PEAX@std@@@std@@@?$_List_node@U?$pair@$$CBV?$basic_string@DU?$char_traits@D@std@@V?$allocator@D@2@@std@@H@std@@PEAX@std@@SAXAEAV?$allocator@U?$_List_node@U?$pair@$$CBV?$basic_string@DU?$char_traits@D@std@@V?$allocator@D@2@@std@@H@std@@PEAX@std@@@1@PEAU01@@Z
	??$_Free_non_head@V?$allocator@U?$_List_node@U?$pair@$$CBV?$basic_string@DU?$char_traits@D@std@@V?$allocator@D@2@@std@@Ullama_lora_weight@@@std@@PEAX@std@@@std@@@?$_List_node@U?$pair@$$CBV?$basic_string@DU?$char_traits@D@std@@V?$allocator@D@2@@std@@Ullama_lora_weight@@@std@@PEAX@std@@SAXAEAV?$allocator@U?$_List_node@U?$pair@$$CBV?$basic_string@DU?$char_traits@D@std@@V?$allocator@D@2@@std@@Ullama_lora_weight@@@std@@PEAX@std@@@1@PEAU01@@Z
	??$_Free_non_head@V?$allocator@U?$_List_node@U?$pair@$$CBV?$basic_string@DU?$char_traits@D@std@@V?$allocator@D@2@@std@@Ullama_model_kv_override@@@std@@PEAX@std@@@std@@@?$_List_node@U?$pair@$$CBV?$basic_string@DU?$char_traits@D@std@@V?$allocator@D@2@@std@@Ullama_model_kv_override@@@std@@PEAX@std@@SAXAEAV?$allocator@U?$_List_node@U?$pair@$$CBV?$basic_string@DU?$char_traits@D@std@@V?$allocator@D@2@@std@@Ullama_model_kv_override@@@std@@PEAX@std@@@1@PEAU01@@Z
	??$_Freenode@V?$allocator@U?$_List_node@U?$pair@$$CBHV?$vector@HV?$allocator@H@std@@@std@@@std@@PEAX@std@@@std@@@?$_List_node@U?$pair@$$CBHV?$vector@HV?$allocator@H@std@@@std@@@std@@PEAX@std@@SAXAEAV?$allocator@U?$_List_node@U?$pair@$$CBHV?$vector@HV?$allocator@H@std@@@std@@@std@@PEAX@std@@@1@PEAU01@@Z
	??$_Get_associated_state@U?$pair@PEAUggml_tensor@@_N@std@@V?$_Fake_no_copy_callable_adapter@V<lambda_3f39357f5ebcd3550b555fa53c33d10a>@@@2@@std@@YAPEAV?$_Associated_state@U?$pair@PEAUggml_tensor@@_N@std@@@0@W4launch@0@$$QEAV?$_Fake_no_copy_callable_adapter@V<lambda_3f39357f5ebcd3550b555fa53c33d10a>@@@0@@Z
	??$_Get_associated_state@U?$pair@PEAUggml_tensor@@_N@std@@V?$_Fake_no_copy_callable_adapter@V<lambda_e3b97c3ad3d076d7964efd5d963695f6>@@@2@@std@@YAPEAV?$_Associated_state@U?$pair@PEAUggml_tensor@@_N@std@@@0@W4launch@0@$$QEAV?$_Fake_no_copy_callable_adapter@V<lambda_e3b97c3ad3d076d7964efd5d963695f6>@@@0@@Z
	??$_Getvals@_W@?$time_get@DV?$istreambuf_iterator@DU?$char_traits@D@std@@@std@@@std@@IEAAX_WAEBV_Locinfo@1@@Z
	??$_Getvals@_W@?$time_get@_WV?$istreambuf_iterator@_WU?$char_traits@_W@std@@@std@@@std@@IEAAX_WAEBV_Locinfo@1@@Z
	??$_Global_new@V?$_Func_impl_no_alloc@V<lambda_052e919cc0e5399df76dff3972c0cac1>@@E$$V@std@@AEBV<lambda_052e919cc0e5399df76dff3972c0cac1>@@@std@@YAPEAV?$_Func_impl_no_alloc@V<lambda_052e919cc0e5399df76dff3972c0cac1>@@E$$V@0@AEBV<lambda_052e919cc0e5399df76dff3972c0cac1>@@@Z
	??$_Global_new@V?$_Func_impl_no_alloc@V<lambda_052e919cc0e5399df76dff3972c0cac1>@@E$$V@std@@V<lambda_052e919cc0e5399df76dff3972c0cac1>@@@std@@YAPEAV?$_Func_impl_no_alloc@V<lambda_052e919cc0e5399df76dff3972c0cac1>@@E$$V@0@$$QEAV<lambda_052e919cc0e5399df76dff3972c0cac1>@@@Z
	??$_Hash_array_representation@D@std@@YA_KQEBD_K@Z
	??$_Hash_array_representation@_W@std@@YA_KQEB_W_K@Z
	??$_Hash_representation@E@std@@YA_KAEBE@Z
	??$_Hash_representation@H@std@@YA_KAEBH@Z
	??$_Hash_representation@I@std@@YA_KAEBI@Z
	??$_Hash_representation@PEAUllama_lora_adapter@@@std@@YA_KAEBQEAUllama_lora_adapter@@@Z
	??$_Immortalize_memcpy_image@V_Future_error_category2@std@@@std@@YAAEBV_Future_error_category2@0@XZ
	??$_Immortalize_memcpy_image@V_Generic_error_category@std@@@std@@YAAEBV_Generic_error_category@0@XZ
	??$_Insert_counted_range@PEAU?$pair@PEAUggml_backend_device@@PEAUggml_backend_buffer_type@@@std@@@?$vector@U?$pair@PEAUggml_backend_device@@PEAUggml_backend_buffer_type@@@std@@V?$allocator@U?$pair@PEAUggml_backend_device@@PEAUggml_backend_buffer_type@@@std@@@2@@std@@AEAAXV?$_Vector_const_iterator@V?$_Vector_val@U?$_Simple_types@U?$pair@PEAUggml_backend_device@@PEAUggml_backend_buffer_type@@@std@@@std@@@std@@@1@PEAU?$pair@PEAUggml_backend_device@@PEAUggml_backend_buffer_type@@@1@_K@Z
	??$_Insert_counted_range@PEAUllama_grammar_element@@@?$vector@Ullama_grammar_element@@V?$allocator@Ullama_grammar_element@@@std@@@std@@AEAAXV?$_Vector_const_iterator@V?$_Vector_val@U?$_Simple_types@Ullama_grammar_element@@@std@@@std@@@1@PEAUllama_grammar_element@@_K@Z
	??$_Insert_range_unchecked@PEBIPEBI@?$_Hash@V?$_Uset_traits@IV?$_Uhash_compare@IU?$hash@I@std@@U?$equal_to@I@2@@std@@V?$allocator@I@2@$0A@@std@@@std@@IEAAXPEBIQEBI@Z
	??$_Insert_range_unchecked@V?$_List_unchecked_const_iterator@V?$_List_val@U?$_List_simple_types@U?$pair@$$CBIPEAUggml_backend_buffer@@@std@@@std@@@std@@U_Iterator_base0@2@@std@@V12@@?$_Hash@V?$_Umap_traits@IPEAUggml_backend_buffer@@V?$_Uhash_compare@IU?$hash@I@std@@U?$equal_to@I@2@@std@@V?$allocator@U?$pair@$$CBIPEAUggml_backend_buffer@@@std@@@3@$0A@@std@@@std@@IEAAXV?$_List_unchecked_const_iterator@V?$_List_val@U?$_List_simple_types@U?$pair@$$CBIPEAUggml_backend_buffer@@@std@@@std@@@std@@U_Iterator_base0@2@@1@V21@@Z
	??$_Insert_string@DU?$char_traits@D@std@@_K@std@@YAAEAV?$basic_ostream@DU?$char_traits@D@std@@@0@AEAV10@QEBD_K@Z
	??$_Insertion_sort_unchecked@PEA_KV<lambda_dbe0312d54f1cfd9e2926868c057ca79>@@@std@@YAPEA_KQEA_K0V<lambda_dbe0312d54f1cfd9e2926868c057ca79>@@@Z
	??$_Integral_to_string@DH@std@@YA?AV?$basic_string@DU?$char_traits@D@std@@V?$allocator@D@2@@0@H@Z
	??$_Integral_to_string@D_J@std@@YA?AV?$basic_string@DU?$char_traits@D@std@@V?$allocator@D@2@@0@_J@Z
	??$_Invoke_stored@V<lambda_3f39357f5ebcd3550b555fa53c33d10a>@@@std@@YA?A_T$$QEAV?$tuple@V<lambda_3f39357f5ebcd3550b555fa53c33d10a>@@@0@@Z
	??$_Invoke_stored@V<lambda_e3b97c3ad3d076d7964efd5d963695f6>@@@std@@YA?A_T$$QEAV?$tuple@V<lambda_e3b97c3ad3d076d7964efd5d963695f6>@@@0@@Z
	??$_Invoke_stored_explicit@V<lambda_3f39357f5ebcd3550b555fa53c33d10a>@@$$Z$0A@@std@@YA?A_T$$QEAV?$tuple@V<lambda_3f39357f5ebcd3550b555fa53c33d10a>@@@0@U?$integer_sequence@_K$0A@@0@@Z
	??$_Invoke_stored_explicit@V<lambda_e3b97c3ad3d076d7964efd5d963695f6>@@$$Z$0A@@std@@YA?A_T$$QEAV?$tuple@V<lambda_e3b97c3ad3d076d7964efd5d963695f6>@@@0@U?$integer_sequence@_K$0A@@0@@Z
	??$_Is_all_bits_zero@H@std@@YA_NAEBH@Z
	??$_Is_all_bits_zero@I@std@@YA_NAEBI@Z
	??$_Is_all_bits_zero@M@std@@YA_NAEBM@Z
	??$_Is_all_bits_zero@N@std@@YA_NAEBN@Z
	??$_Is_all_bits_zero@_K@std@@YA_NAEB_K@Z
	??$_Is_word@_W@std@@YA_N_W@Z
	??$_Lookup_coll@PEBDD@std@@YAPEBDPEBD0PEBU?$_Sequence@D@0@@Z
	??$_Lookup_coll@PEB_W_W@std@@YAPEB_WPEB_W0PEBU?$_Sequence@_W@0@@Z
	??$_Lookup_equiv@DV?$regex_traits@D@std@@@std@@YA_NEPEBU?$_Sequence@D@0@AEBV?$regex_traits@D@0@@Z
	??$_Lookup_equiv@_WV?$regex_traits@_W@std@@@std@@YA_NGPEBU?$_Sequence@_W@0@AEBV?$regex_traits@_W@0@@Z
	??$_Lookup_range@D@std@@YA_NIPEBU?$_Buf@D@0@@Z
	??$_Lookup_range@_W@std@@YA_NIPEBU?$_Buf@_W@0@@Z
	??$_Make_heap_unchecked@PEAUllama_sbatch_seq@@V<lambda_313471036486df38593e8d47e8fa7539>@@@std@@YAXPEAUllama_sbatch_seq@@0V<lambda_313471036486df38593e8d47e8fa7539>@@@Z
	??$_Make_heap_unchecked@PEA_KV<lambda_dbe0312d54f1cfd9e2926868c057ca79>@@@std@@YAXPEA_K0V<lambda_dbe0312d54f1cfd9e2926868c057ca79>@@@Z
	??$_Maklocstr@D@std@@YAPEADPEBDPEADAEBU_Cvtvec@@@Z
	??$_Match@V?$allocator@V?$sub_match@PEBD@std@@@std@@@?$_Matcher@PEBDDV?$regex_traits@D@std@@PEBD@std@@QEAA_NPEAV?$match_results@PEBDV?$allocator@V?$sub_match@PEBD@std@@@std@@@1@_N@Z
	??$_Match@V?$allocator@V?$sub_match@PEB_W@std@@@std@@@?$_Matcher@PEB_W_WV?$regex_traits@_W@std@@PEB_W@std@@QEAA_NPEAV?$match_results@PEB_WV?$allocator@V?$sub_match@PEB_W@std@@@std@@@1@_N@Z
	??$_Med3_unchecked@PEAUllama_sbatch_seq@@V<lambda_313471036486df38593e8d47e8fa7539>@@@std@@YAXPEAUllama_sbatch_seq@@00V<lambda_313471036486df38593e8d47e8fa7539>@@@Z
	??$_Med3_unchecked@PEA_KV<lambda_dbe0312d54f1cfd9e2926868c057ca79>@@@std@@YAXPEA_K00V<lambda_dbe0312d54f1cfd9e2926868c057ca79>@@@Z
	??$_Move_unchecked@PEAU?$pair@PEAUggml_backend_device@@PEAUggml_backend_buffer_type@@@std@@PEAU12@@std@@YAPEAU?$pair@PEAUggml_backend_device@@PEAUggml_backend_buffer_type@@@0@PEAU10@00@Z
	??$_Move_unchecked@PEAUllama_grammar_element@@PEAU1@@std@@YAPEAUllama_grammar_element@@PEAU1@00@Z
	??$_Nrand_impl@MV?$mersenne_twister_engine@I$0CA@$0CHA@$0BIN@$0BP@$0JJAILANP@$0L@$0PPPPPPPP@$06$0JNCMFGIA@$0P@$0OPMGAAAA@$0BC@$0GMAHIJGF@@std@@@std@@YAMAEAV?$mersenne_twister_engine@I$0CA@$0CHA@$0BIN@$0BP@$0JJAILANP@$0L@$0PPPPPPPP@$06$0JNCMFGIA@$0P@$0OPMGAAAA@$0BC@$0GMAHIJGF@@0@@Z
	??$_Nrand_impl@NV?$mersenne_twister_engine@I$0CA@$0CHA@$0BIN@$0BP@$0JJAILANP@$0L@$0PPPPPPPP@$06$0JNCMFGIA@$0P@$0OPMGAAAA@$0BC@$0GMAHIJGF@@std@@@std@@YANAEAV?$mersenne_twister_engine@I$0CA@$0CHA@$0BIN@$0BP@$0JJAILANP@$0L@$0PPPPPPPP@$06$0JNCMFGIA@$0P@$0OPMGAAAA@$0BC@$0GMAHIJGF@@0@@Z
	??$_Partition_by_median_guess_unchecked@PEAUllama_sbatch_seq@@V<lambda_313471036486df38593e8d47e8fa7539>@@@std@@YA?AU?$pair@PEAUllama_sbatch_seq@@PEAU1@@0@PEAUllama_sbatch_seq@@0V<lambda_313471036486df38593e8d47e8fa7539>@@@Z
	??$_Partition_by_median_guess_unchecked@PEA_KV<lambda_dbe0312d54f1cfd9e2926868c057ca79>@@@std@@YA?AU?$pair@PEA_KPEA_K@0@PEA_K0V<lambda_dbe0312d54f1cfd9e2926868c057ca79>@@@Z
	??$_Pop_heap_hole_by_index@PEAUllama_sbatch_seq@@U1@V<lambda_313471036486df38593e8d47e8fa7539>@@@std@@YAXPEAUllama_sbatch_seq@@_J1$$QEAU1@V<lambda_313471036486df38593e8d47e8fa7539>@@@Z
	??$_Pop_heap_hole_by_index@PEA_K_KV<lambda_dbe0312d54f1cfd9e2926868c057ca79>@@@std@@YAXPEA_K_J1$$QEA_KV<lambda_dbe0312d54f1cfd9e2926868c057ca79>@@@Z
	??$_Pop_heap_hole_unchecked@PEAUllm_bigram_bpe@@U1@Ucomparator@1@@std@@YAXPEAUllm_bigram_bpe@@00$$QEAU1@Ucomparator@1@@Z
	??$_Pop_heap_unchecked@PEAUllm_bigram_spm@@Ucomparator@1@@std@@YAXPEAUllm_bigram_spm@@0Ucomparator@1@@Z
	??$_Reallocate@$0A@@?$vector@EV?$allocator@E@std@@@std@@AEAAXAEA_K@Z
	??$_Reallocate@$0A@@?$vector@HV?$allocator@H@std@@@std@@AEAAXAEA_K@Z
	??$_Reallocate@$0A@@?$vector@IV?$allocator@I@std@@@std@@AEAAXAEA_K@Z
	??$_Reallocate@$0A@@?$vector@PEAUggml_tensor@@V?$allocator@PEAUggml_tensor@@@std@@@std@@AEAAXAEA_K@Z
	??$_Reallocate@$0A@@?$vector@PEAUllama_token_data@@V?$allocator@PEAUllama_token_data@@@std@@@std@@AEAAXAEA_K@Z
	??$_Reallocate@$0A@@?$vector@PEBUllama_grammar_element@@V?$allocator@PEBUllama_grammar_element@@@std@@@std@@AEAAXAEA_K@Z
	??$_Reallocate@$0A@@?$vector@PEBUllama_tensor_weight@llama_model_loader@@V?$allocator@PEBUllama_tensor_weight@llama_model_loader@@@std@@@std@@AEAAXAEA_K@Z
	??$_Reallocate@$0A@@?$vector@U?$pair@PEAUggml_context@@V?$unordered_map@IPEAUggml_backend_buffer@@U?$hash@I@std@@U?$equal_to@I@3@V?$allocator@U?$pair@$$CBIPEAUggml_backend_buffer@@@std@@@3@@std@@@std@@V?$allocator@U?$pair@PEAUggml_context@@V?$unordered_map@IPEAUggml_backend_buffer@@U?$hash@I@std@@U?$equal_to@I@3@V?$allocator@U?$pair@$$CBIPEAUggml_backend_buffer@@@std@@@3@@std@@@std@@@2@@std@@AEAAXAEA_K@Z
	??$_Reallocate@$0A@@?$vector@U?$pair@V?$vector@IV?$allocator@I@std@@@std@@Ullama_partial_utf8@@@std@@V?$allocator@U?$pair@V?$vector@IV?$allocator@I@std@@@std@@Ullama_partial_utf8@@@std@@@2@@std@@AEAAXAEA_K@Z
	??$_Reallocate@$0A@@?$vector@U?$pair@_K_K@std@@V?$allocator@U?$pair@_K_K@std@@@2@@std@@AEAAXAEA_K@Z
	??$_Reallocate@$0A@@?$vector@Ullama_grammar_candidate@@V?$allocator@Ullama_grammar_candidate@@@std@@@std@@AEAAXAEA_K@Z
	??$_Reallocate@$0A@@?$vector@Ullama_token_data@@V?$allocator@Ullama_token_data@@@std@@@std@@AEAAXAEA_K@Z
	??$_Reallocate@$0A@@?$vector@V?$basic_string@DU?$char_traits@D@std@@V?$allocator@D@2@@std@@V?$allocator@V?$basic_string@DU?$char_traits@D@std@@V?$allocator@D@2@@std@@@2@@std@@AEAAXAEA_K@Z
	??$_Reallocate@$0A@@?$vector@V?$unique_ptr@Uggml_backend_buffer@@Uggml_backend_buffer_deleter@@@std@@V?$allocator@V?$unique_ptr@Uggml_backend_buffer@@Uggml_backend_buffer_deleter@@@std@@@2@@std@@AEAAXAEA_K@Z
	??$_Reallocate@$0A@@?$vector@V?$unique_ptr@Uggml_context@@Uggml_context_deleter@@@std@@V?$allocator@V?$unique_ptr@Uggml_context@@Uggml_context_deleter@@@std@@@2@@std@@AEAAXAEA_K@Z
	??$_Reallocate@$0A@@?$vector@V?$unique_ptr@Ullama_mmap@@U?$default_delete@Ullama_mmap@@@std@@@std@@V?$allocator@V?$unique_ptr@Ullama_mmap@@U?$default_delete@Ullama_mmap@@@std@@@std@@@2@@std@@AEAAXAEA_K@Z
	??$_Reallocate@$0A@@?$vector@V?$vector@PEBUllama_grammar_element@@V?$allocator@PEBUllama_grammar_element@@@std@@@std@@V?$allocator@V?$vector@PEBUllama_grammar_element@@V?$allocator@PEBUllama_grammar_element@@@std@@@std@@@2@@std@@AEAAXAEA_K@Z
	??$_Reallocate@$0A@@?$vector@Vthread@std@@V?$allocator@Vthread@std@@@2@@std@@AEAAXAEA_K@Z
	??$_Reallocate@$0A@@?$vector@_KV?$allocator@_K@std@@@std@@AEAAXAEA_K@Z
	??$_Reallocate_for@V<lambda_3fa8b2c8193a0f3144fc4b1b8f243931>@@PEB_W@?$basic_string@_WU?$char_traits@_W@std@@V?$allocator@_W@2@@std@@AEAAAEAV01@_KV<lambda_3fa8b2c8193a0f3144fc4b1b8f243931>@@PEB_W@Z
	??$_Reallocate_grow_by@V<lambda_1dfe18491bcca09701d8ccb01d0b0af4>@@PEB_W_K@?$basic_string@_WU?$char_traits@_W@std@@V?$allocator@_W@2@@std@@AEAAAEAV01@_KV<lambda_1dfe18491bcca09701d8ccb01d0b0af4>@@PEB_W_K@Z
	??$_Reallocate_grow_by@V<lambda_25953b27f3c43b57ba59f021c7f225c5>@@_W@?$basic_string@_WU?$char_traits@_W@std@@V?$allocator@_W@2@@std@@AEAAAEAV01@_KV<lambda_25953b27f3c43b57ba59f021c7f225c5>@@_W@Z
	??$_Reallocate_grow_by@V<lambda_319d5e083f45f90dcdce5dce53cbb275>@@D@?$basic_string@DU?$char_traits@D@std@@V?$allocator@D@2@@std@@AEAAAEAV01@_KV<lambda_319d5e083f45f90dcdce5dce53cbb275>@@D@Z
	??$_Reallocate_grow_by@V<lambda_65e615be2a453ca0576c979606f46740>@@PEBD_K@?$basic_string@DU?$char_traits@D@std@@V?$allocator@D@2@@std@@AEAAAEAV01@_KV<lambda_65e615be2a453ca0576c979606f46740>@@PEBD_K@Z
	??$_Reallocate_grow_by@V<lambda_9013ee9e23efe4882b67eff5b0ecf103>@@$$V@?$basic_string@DU?$char_traits@D@std@@V?$allocator@D@2@@std@@AEAAAEAV01@_KV<lambda_9013ee9e23efe4882b67eff5b0ecf103>@@@Z
	??$_Reallocate_grow_by@V<lambda_a3050a43f3157934f354774ab3dd2e02>@@_K_W@?$basic_string@_WU?$char_traits@_W@std@@V?$allocator@_W@2@@std@@AEAAAEAV01@_KV<lambda_a3050a43f3157934f354774ab3dd2e02>@@_K_W@Z
	??$_Reallocate_grow_by@V<lambda_e1befb086ad3257e3f042a63030725f7>@@_KD@?$basic_string@DU?$char_traits@D@std@@V?$allocator@D@2@@std@@AEAAAEAV01@_KV<lambda_e1befb086ad3257e3f042a63030725f7>@@_KD@Z
	??$_Reallocate_grow_by@V<lambda_f3a66ab6a0570788f31503db83886f49>@@_KPEBD_K@?$basic_string@DU?$char_traits@D@std@@V?$allocator@D@2@@std@@AEAAAEAV01@_KV<lambda_f3a66ab6a0570788f31503db83886f49>@@_KPEBD2@Z
	??$_Regex_search2@PEBDV?$allocator@V?$sub_match@PEBD@std@@@std@@DV?$regex_traits@D@2@PEBD@std@@YA_NPEBD0PEAV?$match_results@PEBDV?$allocator@V?$sub_match@PEBD@std@@@std@@@0@AEBV?$basic_regex@DV?$regex_traits@D@std@@@0@W4match_flag_type@regex_constants@0@0@Z
	??$_Regex_search2@PEB_WV?$allocator@V?$sub_match@PEB_W@std@@@std@@_WV?$regex_traits@_W@2@PEB_W@std@@YA_NPEB_W0PEAV?$match_results@PEB_WV?$allocator@V?$sub_match@PEB_W@std@@@std@@@0@AEBV?$basic_regex@_WV?$regex_traits@_W@std@@@0@W4match_flag_type@regex_constants@0@0@Z
	??$_Reset@PEBD@?$basic_regex@DV?$regex_traits@D@std@@@std@@AEAAXPEBD0W4syntax_option_type@regex_constants@1@@Z
	??$_Reset@PEB_W@?$basic_regex@_WV?$regex_traits@_W@std@@@std@@AEAAXPEB_W0W4syntax_option_type@regex_constants@1@@Z
	??$_Resize_reallocate@I@?$vector@IV?$allocator@I@std@@@std@@AEAAX_KAEBI@Z
	??$_Resize_reallocate@U_Value_init_tag@std@@@?$vector@CV?$allocator@C@std@@@std@@AEAAX_KAEBU_Value_init_tag@1@@Z
	??$_Resize_reallocate@U_Value_init_tag@std@@@?$vector@DV?$allocator@D@std@@@std@@AEAAX_KAEBU_Value_init_tag@1@@Z
	??$_Resize_reallocate@U_Value_init_tag@std@@@?$vector@EV?$allocator@E@std@@@std@@AEAAX_KAEBU_Value_init_tag@1@@Z
	??$_Resize_reallocate@U_Value_init_tag@std@@@?$vector@HV?$allocator@H@std@@@std@@AEAAX_KAEBU_Value_init_tag@1@@Z
	??$_Resize_reallocate@U_Value_init_tag@std@@@?$vector@MV?$allocator@M@std@@@std@@AEAAX_KAEBU_Value_init_tag@1@@Z
	??$_Resize_reallocate@U_Value_init_tag@std@@@?$vector@PEAHV?$allocator@PEAH@std@@@std@@AEAAX_KAEBU_Value_init_tag@1@@Z
	??$_Resize_reallocate@U_Value_init_tag@std@@@?$vector@PEBUllama_chat_message@@V?$allocator@PEBUllama_chat_message@@@std@@@std@@AEAAX_KAEBU_Value_init_tag@1@@Z
	??$_Resize_reallocate@U_Value_init_tag@std@@@?$vector@U?$no_init@E@@V?$allocator@U?$no_init@E@@@std@@@std@@AEAAX_KAEBU_Value_init_tag@1@@Z
	??$_Resize_reallocate@U_Value_init_tag@std@@@?$vector@U?$no_init@M@@V?$allocator@U?$no_init@M@@@std@@@std@@AEAAX_KAEBU_Value_init_tag@1@@Z
	??$_Resize_reallocate@U_Value_init_tag@std@@@?$vector@U_Grp_t@?$_Tgt_state_t@PEBD@std@@V?$allocator@U_Grp_t@?$_Tgt_state_t@PEBD@std@@@3@@std@@AEAAX_KAEBU_Value_init_tag@1@@Z
	??$_Resize_reallocate@U_Value_init_tag@std@@@?$vector@U_Grp_t@?$_Tgt_state_t@PEB_W@std@@V?$allocator@U_Grp_t@?$_Tgt_state_t@PEB_W@std@@@3@@std@@AEAAX_KAEBU_Value_init_tag@1@@Z
	??$_Resize_reallocate@U_Value_init_tag@std@@@?$vector@U_Loop_vals_t@std@@V?$allocator@U_Loop_vals_t@std@@@2@@std@@AEAAX_KAEBU_Value_init_tag@1@@Z
	??$_Resize_reallocate@U_Value_init_tag@std@@@?$vector@Ulayer_dev@llama_model@@V?$allocator@Ulayer_dev@llama_model@@@std@@@std@@AEAAX_KAEBU_Value_init_tag@1@@Z
	??$_Resize_reallocate@U_Value_init_tag@std@@@?$vector@Ullama_grammar_element@@V?$allocator@Ullama_grammar_element@@@std@@@std@@AEAAX_KAEBU_Value_init_tag@1@@Z
	??$_Resize_reallocate@U_Value_init_tag@std@@@?$vector@Ullama_kv_cell@@V?$allocator@Ullama_kv_cell@@@std@@@std@@AEAAX_KAEBU_Value_init_tag@1@@Z
	??$_Resize_reallocate@U_Value_init_tag@std@@@?$vector@Ullama_layer@@V?$allocator@Ullama_layer@@@std@@@std@@AEAAX_KAEBU_Value_init_tag@1@@Z
	??$_Resize_reallocate@U_Value_init_tag@std@@@?$vector@Ullama_sbatch_seq@@V?$allocator@Ullama_sbatch_seq@@@std@@@std@@AEAAX_KAEBU_Value_init_tag@1@@Z
	??$_Resize_reallocate@U_Value_init_tag@std@@@?$vector@Utoken_data@llama_vocab@@V?$allocator@Utoken_data@llama_vocab@@@std@@@std@@AEAAX_KAEBU_Value_init_tag@1@@Z
	??$_Resize_reallocate@U_Value_init_tag@std@@@?$vector@V?$set@HU?$less@H@std@@V?$allocator@H@2@@std@@V?$allocator@V?$set@HU?$less@H@std@@V?$allocator@H@2@@std@@@2@@std@@AEAAX_KAEBU_Value_init_tag@1@@Z
	??$_Resize_reallocate@U_Value_init_tag@std@@@?$vector@V?$sub_match@PEBD@std@@V?$allocator@V?$sub_match@PEBD@std@@@2@@std@@AEAAX_KAEBU_Value_init_tag@1@@Z
	??$_Resize_reallocate@U_Value_init_tag@std@@@?$vector@V?$sub_match@PEB_W@std@@V?$allocator@V?$sub_match@PEB_W@std@@@2@@std@@AEAAX_KAEBU_Value_init_tag@1@@Z
	??$_Resize_reallocate@U_Value_init_tag@std@@@?$vector@V?$vector@Ullama_grammar_element@@V?$allocator@Ullama_grammar_element@@@std@@@std@@V?$allocator@V?$vector@Ullama_grammar_element@@V?$allocator@Ullama_grammar_element@@@std@@@std@@@2@@std@@AEAAX_KAEBU_Value_init_tag@1@@Z
	??$_Resize_reallocate@U_Value_init_tag@std@@@?$vector@_KV?$allocator@_K@std@@@std@@AEAAX_KAEBU_Value_init_tag@1@@Z
	??$_Reverse_vectorized@$03@std@@YAXPEAX0@Z
	??$_Sort_unchecked@PEAUllama_sbatch_seq@@V<lambda_313471036486df38593e8d47e8fa7539>@@@std@@YAXPEAUllama_sbatch_seq@@0_JV<lambda_313471036486df38593e8d47e8fa7539>@@@Z
	??$_Sort_unchecked@PEA_KV<lambda_dbe0312d54f1cfd9e2926868c057ca79>@@@std@@YAXPEA_K0_JV<lambda_dbe0312d54f1cfd9e2926868c057ca79>@@@Z
	??$_Test_callable@V<lambda_052e919cc0e5399df76dff3972c0cac1>@@@std@@YA_NAEBV<lambda_052e919cc0e5399df76dff3972c0cac1>@@@Z
	??$_Test_callable@V<lambda_2fa3e3d11fb97352afa77a4a13bfb543>@@@std@@YA_NAEBV<lambda_2fa3e3d11fb97352afa77a4a13bfb543>@@@Z
	??$_Test_callable@V<lambda_61d324d6c6ae299623b0a01e4b2f6764>@@@std@@YA_NAEBV<lambda_61d324d6c6ae299623b0a01e4b2f6764>@@@Z
	??$_Test_callable@V<lambda_763529b0c7473cbc215a52d189ac9b18>@@@std@@YA_NAEBV<lambda_763529b0c7473cbc215a52d189ac9b18>@@@Z
	??$_Test_callable@V<lambda_f25c37099038263181b5186a3fa41b37>@@@std@@YA_NAEBV<lambda_f25c37099038263181b5186a3fa41b37>@@@Z
	??$_Test_callable@V<lambda_f7036c9a115536b365ca4544394c825b>@@@std@@YA_NAEBV<lambda_f7036c9a115536b365ca4544394c825b>@@@Z
	??$_Test_callable@V?$_Fake_no_copy_callable_adapter@V<lambda_3f39357f5ebcd3550b555fa53c33d10a>@@@std@@@std@@YA_NAEBV?$_Fake_no_copy_callable_adapter@V<lambda_3f39357f5ebcd3550b555fa53c33d10a>@@@0@@Z
	??$_Test_callable@V?$_Fake_no_copy_callable_adapter@V<lambda_e3b97c3ad3d076d7964efd5d963695f6>@@@std@@@std@@YA_NAEBV?$_Fake_no_copy_callable_adapter@V<lambda_e3b97c3ad3d076d7964efd5d963695f6>@@@0@@Z
	??$_Traits_compare@U?$char_traits@D@std@@@std@@YAHQEBD_K01@Z
	??$_Traits_equal@U?$char_traits@D@std@@@std@@YA_NQEBD_K01@Z
	??$_Traits_find@U?$char_traits@D@std@@@std@@YA_KQEBD_K101@Z
	??$_Try_emplace@AEBH$$V@?$_Hash@V?$_Umap_traits@HHV?$_Uhash_compare@HU?$hash@H@std@@U?$equal_to@H@2@@std@@V?$allocator@U?$pair@$$CBHH@std@@@2@$0A@@std@@@std@@IEAA?AU?$pair@PEAU?$_List_node@U?$pair@$$CBHH@std@@PEAX@std@@_N@1@AEBH@Z
	??$_Try_emplace@AEBQEAUllama_lora_adapter@@$$V@?$_Hash@V?$_Umap_traits@PEAUllama_lora_adapter@@MV?$_Uhash_compare@PEAUllama_lora_adapter@@U?$hash@PEAUllama_lora_adapter@@@std@@U?$equal_to@PEAUllama_lora_adapter@@@3@@std@@V?$allocator@U?$pair@QEAUllama_lora_adapter@@M@std@@@3@$0A@@std@@@std@@IEAA?AU?$pair@PEAU?$_List_node@U?$pair@QEAUllama_lora_adapter@@M@std@@PEAX@std@@_N@1@AEBQEAUllama_lora_adapter@@@Z
	??$_Try_emplace@AEBV?$basic_string@DU?$char_traits@D@std@@V?$allocator@D@2@@std@@$$V@?$_Hash@V?$_Umap_traits@V?$basic_string@DU?$char_traits@D@std@@V?$allocator@D@2@@std@@HV?$_Uhash_compare@V?$basic_string@DU?$char_traits@D@std@@V?$allocator@D@2@@std@@U?$hash@V?$basic_string@DU?$char_traits@D@std@@V?$allocator@D@2@@std@@@2@U?$equal_to@V?$basic_string@DU?$char_traits@D@std@@V?$allocator@D@2@@std@@@2@@2@V?$allocator@U?$pair@$$CBV?$basic_string@DU?$char_traits@D@std@@V?$allocator@D@2@@std@@H@std@@@2@$0A@@std@@@std@@IEAA?AU?$pair@PEAU?$_List_node@U?$pair@$$CBV?$basic_string@DU?$char_traits@D@std@@V?$allocator@D@2@@std@@H@std@@PEAX@std@@_N@1@AEBV?$basic_string@DU?$char_traits@D@std@@V?$allocator@D@2@@1@@Z
	??$_Try_emplace@AEBV?$basic_string@DU?$char_traits@D@std@@V?$allocator@D@2@@std@@$$V@?$_Hash@V?$_Umap_traits@V?$basic_string@DU?$char_traits@D@std@@V?$allocator@D@2@@std@@Ullama_lora_weight@@V?$_Uhash_compare@V?$basic_string@DU?$char_traits@D@std@@V?$allocator@D@2@@std@@U?$hash@V?$basic_string@DU?$char_traits@D@std@@V?$allocator@D@2@@std@@@2@U?$equal_to@V?$basic_string@DU?$char_traits@D@std@@V?$allocator@D@2@@std@@@2@@2@V?$allocator@U?$pair@$$CBV?$basic_string@DU?$char_traits@D@std@@V?$allocator@D@2@@std@@Ullama_lora_weight@@@std@@@2@$0A@@std@@@std@@IEAA?AU?$pair@PEAU?$_List_node@U?$pair@$$CBV?$basic_string@DU?$char_traits@D@std@@V?$allocator@D@2@@std@@Ullama_lora_weight@@@std@@PEAX@std@@_N@1@AEBV?$basic_string@DU?$char_traits@D@std@@V?$allocator@D@2@@1@@Z
	??$_Try_emplace@E$$V@?$_Hash@V?$_Umap_traits@EV?$basic_string@DU?$char_traits@D@std@@V?$allocator@D@2@@std@@V?$_Uhash_compare@EU?$hash@E@std@@U?$equal_to@E@2@@2@V?$allocator@U?$pair@$$CBEV?$basic_string@DU?$char_traits@D@std@@V?$allocator@D@2@@std@@@std@@@2@$0A@@std@@@std@@IEAA?AU?$pair@PEAU?$_List_node@U?$pair@$$CBEV?$basic_string@DU?$char_traits@D@std@@V?$allocator@D@2@@std@@@std@@PEAX@std@@_N@1@$$QEAE@Z
	??$_Try_emplace@V?$basic_string@DU?$char_traits@D@std@@V?$allocator@D@2@@std@@$$V@?$_Hash@V?$_Umap_traits@V?$basic_string@DU?$char_traits@D@std@@V?$allocator@D@2@@std@@EV?$_Uhash_compare@V?$basic_string@DU?$char_traits@D@std@@V?$allocator@D@2@@std@@U?$hash@V?$basic_string@DU?$char_traits@D@std@@V?$allocator@D@2@@std@@@2@U?$equal_to@V?$basic_string@DU?$char_traits@D@std@@V?$allocator@D@2@@std@@@2@@2@V?$allocator@U?$pair@$$CBV?$basic_string@DU?$char_traits@D@std@@V?$allocator@D@2@@std@@E@std@@@2@$0A@@std@@@std@@IEAA?AU?$pair@PEAU?$_List_node@U?$pair@$$CBV?$basic_string@DU?$char_traits@D@std@@V?$allocator@D@2@@std@@E@std@@PEAX@std@@_N@1@$$QEAV?$basic_string@DU?$char_traits@D@std@@V?$allocator@D@2@@1@@Z
	??$_UIntegral_to_buff@DI@std@@YAPEADPEADI@Z
	??$_UIntegral_to_buff@D_K@std@@YAPEADPEAD_K@Z
	??$_UIntegral_to_string@DI@std@@YA?AV?$basic_string@DU?$char_traits@D@std@@V?$allocator@D@2@@0@I@Z
	??$_UIntegral_to_string@D_K@std@@YA?AV?$basic_string@DU?$char_traits@D@std@@V?$allocator@D@2@@0@_K@Z
	??$_Uninitialized_copy@PEAU?$pair@PEAUggml_context@@V?$unordered_map@IPEAUggml_backend_buffer@@U?$hash@I@std@@U?$equal_to@I@3@V?$allocator@U?$pair@$$CBIPEAUggml_backend_buffer@@@std@@@3@@std@@@std@@PEAU12@V?$allocator@U?$pair@PEAUggml_context@@V?$unordered_map@IPEAUggml_backend_buffer@@U?$hash@I@std@@U?$equal_to@I@3@V?$allocator@U?$pair@$$CBIPEAUggml_backend_buffer@@@std@@@3@@std@@@std@@@2@@std@@YAPEAU?$pair@PEAUggml_context@@V?$unordered_map@IPEAUggml_backend_buffer@@U?$hash@I@std@@U?$equal_to@I@3@V?$allocator@U?$pair@$$CBIPEAUggml_backend_buffer@@@std@@@3@@std@@@0@PEAU10@00AEAV?$allocator@U?$pair@PEAUggml_context@@V?$unordered_map@IPEAUggml_backend_buffer@@U?$hash@I@std@@U?$equal_to@I@3@V?$allocator@U?$pair@$$CBIPEAUggml_backend_buffer@@@std@@@3@@std@@@std@@@0@@Z
	??$_Uninitialized_fill_n@V?$allocator@N@std@@@std@@YAPEANPEAN_KAEBNAEAV?$allocator@N@0@@Z
	??$_Uninitialized_move@PEAU?$pair@PEAUggml_backend_device@@PEAUggml_backend_buffer_type@@@std@@V?$allocator@U?$pair@PEAUggml_backend_device@@PEAUggml_backend_buffer_type@@@std@@@2@@std@@YAPEAU?$pair@PEAUggml_backend_device@@PEAUggml_backend_buffer_type@@@0@QEAU10@0PEAU10@AEAV?$allocator@U?$pair@PEAUggml_backend_device@@PEAUggml_backend_buffer_type@@@std@@@0@@Z
	??$_Uninitialized_move@PEAU?$pair@PEAUggml_context@@V?$unordered_map@IPEAUggml_backend_buffer@@U?$hash@I@std@@U?$equal_to@I@3@V?$allocator@U?$pair@$$CBIPEAUggml_backend_buffer@@@std@@@3@@std@@@std@@V?$allocator@U?$pair@PEAUggml_context@@V?$unordered_map@IPEAUggml_backend_buffer@@U?$hash@I@std@@U?$equal_to@I@3@V?$allocator@U?$pair@$$CBIPEAUggml_backend_buffer@@@std@@@3@@std@@@std@@@2@@std@@YAPEAU?$pair@PEAUggml_context@@V?$unordered_map@IPEAUggml_backend_buffer@@U?$hash@I@std@@U?$equal_to@I@3@V?$allocator@U?$pair@$$CBIPEAUggml_backend_buffer@@@std@@@3@@std@@@0@QEAU10@0PEAU10@AEAV?$allocator@U?$pair@PEAUggml_context@@V?$unordered_map@IPEAUggml_backend_buffer@@U?$hash@I@std@@U?$equal_to@I@3@V?$allocator@U?$pair@$$CBIPEAUggml_backend_buffer@@@std@@@3@@std@@@std@@@0@@Z
	??$_Uninitialized_move@PEAU?$pair@V?$basic_string@DU?$char_traits@D@std@@V?$allocator@D@2@@std@@PEAUggml_tensor@@@std@@V?$allocator@U?$pair@V?$basic_string@DU?$char_traits@D@std@@V?$allocator@D@2@@std@@PEAUggml_tensor@@@std@@@2@@std@@YAPEAU?$pair@V?$basic_string@DU?$char_traits@D@std@@V?$allocator@D@2@@std@@PEAUggml_tensor@@@0@QEAU10@0PEAU10@AEAV?$allocator@U?$pair@V?$basic_string@DU?$char_traits@D@std@@V?$allocator@D@2@@std@@PEAUggml_tensor@@@std@@@0@@Z
	??$_Uninitialized_move@PEAU?$pair@V?$vector@IV?$allocator@I@std@@@std@@Ullama_partial_utf8@@@std@@V?$allocator@U?$pair@V?$vector@IV?$allocator@I@std@@@std@@Ullama_partial_utf8@@@std@@@2@@std@@YAPEAU?$pair@V?$vector@IV?$allocator@I@std@@@std@@Ullama_partial_utf8@@@0@QEAU10@0PEAU10@AEAV?$allocator@U?$pair@V?$vector@IV?$allocator@I@std@@@std@@Ullama_partial_utf8@@@std@@@0@@Z
	??$_Uninitialized_move@PEAUllama_grammar_element@@V?$allocator@Ullama_grammar_element@@@std@@@std@@YAPEAUllama_grammar_element@@QEAU1@0PEAU1@AEAV?$allocator@Ullama_grammar_element@@@0@@Z
	??$_Uninitialized_move@PEAUllm_bigram_bpe@@V?$allocator@Ullm_bigram_bpe@@@std@@@std@@YAPEAUllm_bigram_bpe@@QEAU1@0PEAU1@AEAV?$allocator@Ullm_bigram_bpe@@@0@@Z
	??$_Uninitialized_move@PEAV?$basic_string@DU?$char_traits@D@std@@V?$allocator@D@2@@std@@V?$allocator@V?$basic_string@DU?$char_traits@D@std@@V?$allocator@D@2@@std@@@2@@std@@YAPEAV?$basic_string@DU?$char_traits@D@std@@V?$allocator@D@2@@0@QEAV10@0PEAV10@AEAV?$allocator@V?$basic_string@DU?$char_traits@D@std@@V?$allocator@D@2@@std@@@0@@Z
	??$_Uninitialized_move@PEAV?$vector@PEBUllama_grammar_element@@V?$allocator@PEBUllama_grammar_element@@@std@@@std@@V?$allocator@V?$vector@PEBUllama_grammar_element@@V?$allocator@PEBUllama_grammar_element@@@std@@@std@@@2@@std@@YAPEAV?$vector@PEBUllama_grammar_element@@V?$allocator@PEBUllama_grammar_element@@@std@@@0@QEAV10@0PEAV10@AEAV?$allocator@V?$vector@PEBUllama_grammar_element@@V?$allocator@PEBUllama_grammar_element@@@std@@@std@@@0@@Z
	??$_Uninitialized_value_construct_n@V?$allocator@Ulayer_dev@llama_model@@@std@@@std@@YAPEAUlayer_dev@llama_model@@PEAU12@_KAEAV?$allocator@Ulayer_dev@llama_model@@@0@@Z
	??$_Uninitialized_value_construct_n@V?$allocator@Ullama_kv_cell@@@std@@@std@@YAPEAUllama_kv_cell@@PEAU1@_KAEAV?$allocator@Ullama_kv_cell@@@0@@Z
	??$_Uninitialized_value_construct_n@V?$allocator@Ullama_layer@@@std@@@std@@YAPEAUllama_layer@@PEAU1@_KAEAV?$allocator@Ullama_layer@@@0@@Z
	??$_Uninitialized_value_construct_n@V?$allocator@Utoken_data@llama_vocab@@@std@@@std@@YAPEAUtoken_data@llama_vocab@@PEAU12@_KAEAV?$allocator@Utoken_data@llama_vocab@@@0@@Z
	??$_Uninitialized_value_construct_n@V?$allocator@V?$set@HU?$less@H@std@@V?$allocator@H@2@@std@@@std@@@std@@YAPEAV?$set@HU?$less@H@std@@V?$allocator@H@2@@0@PEAV10@_KAEAV?$allocator@V?$set@HU?$less@H@std@@V?$allocator@H@2@@std@@@0@@Z
	??$_ValidateTaskConstructorArgs@XV<lambda_61d324d6c6ae299623b0a01e4b2f6764>@@@details@Concurrency@@YAXAEBV<lambda_61d324d6c6ae299623b0a01e4b2f6764>@@@Z
	??$_ValidateTaskConstructorArgs@XV<lambda_f7036c9a115536b365ca4544394c825b>@@@details@Concurrency@@YAXAEBV<lambda_f7036c9a115536b365ca4544394c825b>@@@Z
	??$_Zero_range@PEAC@std@@YAPEACQEAC0@Z
	??$_Zero_range@PEAD@std@@YAPEADQEAD0@Z
	??$_Zero_range@PEAE@std@@YAPEAEQEAE0@Z
	??$_Zero_range@PEAH@std@@YAPEAHQEAH0@Z
	??$_Zero_range@PEAI@std@@YAPEAIQEAI0@Z
	??$_Zero_range@PEAM@std@@YAPEAMQEAM0@Z
	??$_Zero_range@PEAPEAH@std@@YAPEAPEAHQEAPEAH0@Z
	??$_Zero_range@PEAPEBUllama_chat_message@@@std@@YAPEAPEBUllama_chat_message@@QEAPEBU1@0@Z
	??$_Zero_range@PEA_K@std@@YAPEA_KQEA_K0@Z
	??$assign@PEBD$0A@@?$vector@DV?$allocator@D@std@@@std@@QEAAXPEBD0@Z
	??$async@V<lambda_3f39357f5ebcd3550b555fa53c33d10a>@@$$V@std@@YA?AV?$future@U?$pair@PEAUggml_tensor@@_N@std@@@0@W4launch@0@$$QEAV<lambda_3f39357f5ebcd3550b555fa53c33d10a>@@@Z
	??$async@V<lambda_e3b97c3ad3d076d7964efd5d963695f6>@@$$V@std@@YA?AV?$future@U?$pair@PEAUggml_tensor@@_N@std@@@0@W4launch@0@$$QEAV<lambda_e3b97c3ad3d076d7964efd5d963695f6>@@@Z
	??$atomic_compare_exchange@J@details@Concurrency@@YAJAEAU?$atomic@J@std@@JJ@Z
	??$atomic_exchange@J@details@Concurrency@@YAJAEAU?$atomic@J@std@@J@Z
	??$call_once@V<lambda_0e64988457575224279dcb6d61e61bdd>@@$$V@std@@YAXAEAUonce_flag@0@$$QEAV<lambda_0e64988457575224279dcb6d61e61bdd>@@@Z
	??$copy@PEBMV?$_Vector_iterator@V?$_Vector_val@U?$_Simple_types@M@std@@@std@@@std@@@std@@YA?AV?$_Vector_iterator@V?$_Vector_val@U?$_Simple_types@M@std@@@std@@@0@PEBM0V10@@Z
	??$count@X@?$_Hash@V?$_Umap_traits@IPEAUggml_backend_buffer@@V?$_Uhash_compare@IU?$hash@I@std@@U?$equal_to@I@2@@std@@V?$allocator@U?$pair@$$CBIPEAUggml_backend_buffer@@@std@@@3@$0A@@std@@@std@@QEBA_KAEBI@Z
	??$create_task@V<lambda_61d324d6c6ae299623b0a01e4b2f6764>@@@Concurrency@@YA?AV?$task@X@0@V<lambda_61d324d6c6ae299623b0a01e4b2f6764>@@Vtask_options@0@@Z
	??$create_task@V<lambda_f7036c9a115536b365ca4544394c825b>@@@Concurrency@@YA?AV?$task@X@0@V<lambda_f7036c9a115536b365ca4544394c825b>@@Vtask_options@0@@Z
	??$destroy@U?$pair@$$CBV?$basic_string@DU?$char_traits@D@std@@V?$allocator@D@2@@std@@V12@@std@@@?$_Default_allocator_traits@V?$allocator@U?$_List_node@U?$pair@$$CBV?$basic_string@DU?$char_traits@D@std@@V?$allocator@D@2@@std@@V12@@std@@PEAX@std@@@std@@@std@@SAXAEAV?$allocator@U?$_List_node@U?$pair@$$CBV?$basic_string@DU?$char_traits@D@std@@V?$allocator@D@2@@std@@V12@@std@@PEAX@std@@@1@QEAU?$pair@$$CBV?$basic_string@DU?$char_traits@D@std@@V?$allocator@D@2@@std@@V12@@1@@Z
	??$emplace@AEAIAEAPEAUggml_backend_buffer@@@?$_Hash@V?$_Umap_traits@IPEAUggml_backend_buffer@@V?$_Uhash_compare@IU?$hash@I@std@@U?$equal_to@I@2@@std@@V?$allocator@U?$pair@$$CBIPEAUggml_backend_buffer@@@std@@@3@$0A@@std@@@std@@QEAA?AU?$pair@V?$_List_iterator@V?$_List_val@U?$_List_simple_types@U?$pair@$$CBIPEAUggml_backend_buffer@@@std@@@std@@@std@@@std@@_N@1@AEAIAEAPEAUggml_backend_buffer@@@Z
	??$emplace@AEAPEAUggml_backend_device@@V?$vector@U?$pair@PEAUggml_backend_device@@PEAUggml_backend_buffer_type@@@std@@V?$allocator@U?$pair@PEAUggml_backend_device@@PEAUggml_backend_buffer_type@@@std@@@2@@std@@@?$_Tree@V?$_Tmap_traits@PEAUggml_backend_device@@V?$vector@U?$pair@PEAUggml_backend_device@@PEAUggml_backend_buffer_type@@@std@@V?$allocator@U?$pair@PEAUggml_backend_device@@PEAUggml_backend_buffer_type@@@std@@@2@@std@@U?$less@PEAUggml_backend_device@@@3@V?$allocator@U?$pair@QEAUggml_backend_device@@V?$vector@U?$pair@PEAUggml_backend_device@@PEAUggml_backend_buffer_type@@@std@@V?$allocator@U?$pair@PEAUggml_backend_device@@PEAUggml_backend_buffer_type@@@std@@@2@@std@@@std@@@3@$0A@@std@@@std@@QEAA?AU?$pair@V?$_Tree_iterator@V?$_Tree_val@U?$_Tree_simple_types@U?$pair@QEAUggml_backend_device@@V?$vector@U?$pair@PEAUggml_backend_device@@PEAUggml_backend_buffer_type@@@std@@V?$allocator@U?$pair@PEAUggml_backend_device@@PEAUggml_backend_buffer_type@@@std@@@2@@std@@@std@@@std@@@std@@@std@@_N@1@AEAPEAUggml_backend_device@@$$QEAV?$vector@U?$pair@PEAUggml_backend_device@@PEAUggml_backend_buffer_type@@@std@@V?$allocator@U?$pair@PEAUggml_backend_device@@PEAUggml_backend_buffer_type@@@std@@@2@@1@@Z
	??$emplace@AEAPEBDAEBV?$basic_string@DU?$char_traits@D@std@@V?$allocator@D@2@@std@@@?$_Hash@V?$_Umap_traits@V?$basic_string@DU?$char_traits@D@std@@V?$allocator@D@2@@std@@V12@V?$_Uhash_compare@V?$basic_string@DU?$char_traits@D@std@@V?$allocator@D@2@@std@@U?$hash@V?$basic_string@DU?$char_traits@D@std@@V?$allocator@D@2@@std@@@2@U?$equal_to@V?$basic_string@DU?$char_traits@D@std@@V?$allocator@D@2@@std@@@2@@2@V?$allocator@U?$pair@$$CBV?$basic_string@DU?$char_traits@D@std@@V?$allocator@D@2@@std@@V12@@std@@@2@$0A@@std@@@std@@QEAA?AU?$pair@V?$_List_iterator@V?$_List_val@U?$_List_simple_types@U?$pair@$$CBV?$basic_string@DU?$char_traits@D@std@@V?$allocator@D@2@@std@@V12@@std@@@std@@@std@@@std@@_N@1@AEAPEBDAEBV?$basic_string@DU?$char_traits@D@std@@V?$allocator@D@2@@1@@Z
	??$emplace@U?$pair@$$CBV?$basic_string@DU?$char_traits@D@std@@V?$allocator@D@2@@std@@Ullama_model_kv_override@@@std@@@?$_Hash@V?$_Umap_traits@V?$basic_string@DU?$char_traits@D@std@@V?$allocator@D@2@@std@@Ullama_model_kv_override@@V?$_Uhash_compare@V?$basic_string@DU?$char_traits@D@std@@V?$allocator@D@2@@std@@U?$hash@V?$basic_string@DU?$char_traits@D@std@@V?$allocator@D@2@@std@@@2@U?$equal_to@V?$basic_string@DU?$char_traits@D@std@@V?$allocator@D@2@@std@@@2@@2@V?$allocator@U?$pair@$$CBV?$basic_string@DU?$char_traits@D@std@@V?$allocator@D@2@@std@@Ullama_model_kv_override@@@std@@@2@$0A@@std@@@std@@QEAA?AU?$pair@V?$_List_iterator@V?$_List_val@U?$_List_simple_types@U?$pair@$$CBV?$basic_string@DU?$char_traits@D@std@@V?$allocator@D@2@@std@@Ullama_model_kv_override@@@std@@@std@@@std@@@std@@_N@1@$$QEAU?$pair@$$CBV?$basic_string@DU?$char_traits@D@std@@V?$allocator@D@2@@std@@Ullama_model_kv_override@@@1@@Z
	??$fill@PEAHH@std@@YAXQEAH0AEBH@Z
	??$fill@PEANN@std@@YAXQEAN0AEBN@Z
	??$fill@PEAV?$_List_unchecked_const_iterator@V?$_List_val@U?$_List_simple_types@I@std@@@std@@U_Iterator_base0@2@@std@@V12@@std@@YAXQEAV?$_List_unchecked_const_iterator@V?$_List_val@U?$_List_simple_types@I@std@@@std@@U_Iterator_base0@2@@0@0AEBV10@@Z
	??$fill@PEAV?$_List_unchecked_iterator@V?$_List_val@U?$_List_simple_types@U?$pair@$$CBEV?$basic_string@DU?$char_traits@D@std@@V?$allocator@D@2@@std@@@std@@@std@@@std@@@std@@V12@@std@@YAXQEAV?$_List_unchecked_iterator@V?$_List_val@U?$_List_simple_types@U?$pair@$$CBEV?$basic_string@DU?$char_traits@D@std@@V?$allocator@D@2@@std@@@std@@@std@@@std@@@0@0AEBV10@@Z
	??$fill@PEAV?$_List_unchecked_iterator@V?$_List_val@U?$_List_simple_types@U?$pair@$$CBHH@std@@@std@@@std@@@std@@V12@@std@@YAXQEAV?$_List_unchecked_iterator@V?$_List_val@U?$_List_simple_types@U?$pair@$$CBHH@std@@@std@@@std@@@0@0AEBV10@@Z
	??$fill@PEAV?$_List_unchecked_iterator@V?$_List_val@U?$_List_simple_types@U?$pair@$$CBHV?$vector@HV?$allocator@H@std@@@std@@@std@@@std@@@std@@@std@@V12@@std@@YAXQEAV?$_List_unchecked_iterator@V?$_List_val@U?$_List_simple_types@U?$pair@$$CBHV?$vector@HV?$allocator@H@std@@@std@@@std@@@std@@@std@@@0@0AEBV10@@Z
	??$fill@PEAV?$_List_unchecked_iterator@V?$_List_val@U?$_List_simple_types@U?$pair@$$CBIPEAUggml_backend_buffer@@@std@@@std@@@std@@@std@@V12@@std@@YAXQEAV?$_List_unchecked_iterator@V?$_List_val@U?$_List_simple_types@U?$pair@$$CBIPEAUggml_backend_buffer@@@std@@@std@@@std@@@0@0AEBV10@@Z
	??$fill@PEAV?$_List_unchecked_iterator@V?$_List_val@U?$_List_simple_types@U?$pair@$$CBV?$basic_string@DU?$char_traits@D@std@@V?$allocator@D@2@@std@@E@std@@@std@@@std@@@std@@V12@@std@@YAXQEAV?$_List_unchecked_iterator@V?$_List_val@U?$_List_simple_types@U?$pair@$$CBV?$basic_string@DU?$char_traits@D@std@@V?$allocator@D@2@@std@@E@std@@@std@@@std@@@0@0AEBV10@@Z
	??$fill@PEAV?$_List_unchecked_iterator@V?$_List_val@U?$_List_simple_types@U?$pair@$$CBV?$basic_string@DU?$char_traits@D@std@@V?$allocator@D@2@@std@@H@std@@@std@@@std@@@std@@V12@@std@@YAXQEAV?$_List_unchecked_iterator@V?$_List_val@U?$_List_simple_types@U?$pair@$$CBV?$basic_string@DU?$char_traits@D@std@@V?$allocator@D@2@@std@@H@std@@@std@@@std@@@0@0AEBV10@@Z
	??$fill@PEAV?$_List_unchecked_iterator@V?$_List_val@U?$_List_simple_types@U?$pair@$$CBV?$basic_string@DU?$char_traits@D@std@@V?$allocator@D@2@@std@@Ullama_lora_weight@@@std@@@std@@@std@@@std@@V12@@std@@YAXQEAV?$_List_unchecked_iterator@V?$_List_val@U?$_List_simple_types@U?$pair@$$CBV?$basic_string@DU?$char_traits@D@std@@V?$allocator@D@2@@std@@Ullama_lora_weight@@@std@@@std@@@std@@@0@0AEBV10@@Z
	??$fill@PEAV?$_List_unchecked_iterator@V?$_List_val@U?$_List_simple_types@U?$pair@$$CBV?$basic_string@DU?$char_traits@D@std@@V?$allocator@D@2@@std@@Ullama_model_kv_override@@@std@@@std@@@std@@@std@@V12@@std@@YAXQEAV?$_List_unchecked_iterator@V?$_List_val@U?$_List_simple_types@U?$pair@$$CBV?$basic_string@DU?$char_traits@D@std@@V?$allocator@D@2@@std@@Ullama_model_kv_override@@@std@@@std@@@std@@@0@0AEBV10@@Z
	??$fill@PEAV?$_List_unchecked_iterator@V?$_List_val@U?$_List_simple_types@U?$pair@$$CBV?$basic_string@DU?$char_traits@D@std@@V?$allocator@D@2@@std@@V12@@std@@@std@@@std@@@std@@V12@@std@@YAXQEAV?$_List_unchecked_iterator@V?$_List_val@U?$_List_simple_types@U?$pair@$$CBV?$basic_string@DU?$char_traits@D@std@@V?$allocator@D@2@@std@@V12@@std@@@std@@@std@@@0@0AEBV10@@Z
	??$fill@PEAV?$_List_unchecked_iterator@V?$_List_val@U?$_List_simple_types@U?$pair@QEAUllama_lora_adapter@@M@std@@@std@@@std@@@std@@V12@@std@@YAXQEAV?$_List_unchecked_iterator@V?$_List_val@U?$_List_simple_types@U?$pair@QEAUllama_lora_adapter@@M@std@@@std@@@std@@@0@0AEBV10@@Z
	??$fill@V?$_Array_iterator@I$0CAA@@std@@H@std@@YAXV?$_Array_iterator@I$0CAA@@0@0AEBH@Z
	??$fill@V?$_Vector_iterator@V?$_Vector_val@U?$_Simple_types@H@std@@@std@@@std@@H@std@@YAXV?$_Vector_iterator@V?$_Vector_val@U?$_Simple_types@H@std@@@std@@@0@0AEBH@Z
	??$find@V?$_Vector_iterator@V?$_Vector_val@U?$_Simple_types@V?$vector@PEBUllama_grammar_element@@V?$allocator@PEBUllama_grammar_element@@@std@@@std@@@std@@@std@@@std@@V?$vector@PEBUllama_grammar_element@@V?$allocator@PEBUllama_grammar_element@@@std@@@2@@std@@YA?AV?$_Vector_iterator@V?$_Vector_val@U?$_Simple_types@V?$vector@PEBUllama_grammar_element@@V?$allocator@PEBUllama_grammar_element@@@std@@@std@@@std@@@std@@@0@V10@V10@AEBV?$vector@PEBUllama_grammar_element@@V?$allocator@PEBUllama_grammar_element@@@std@@@0@@Z
	??$find@X@?$_Hash@V?$_Umap_traits@V?$basic_string@DU?$char_traits@D@std@@V?$allocator@D@2@@std@@Ullama_model_kv_override@@V?$_Uhash_compare@V?$basic_string@DU?$char_traits@D@std@@V?$allocator@D@2@@std@@U?$hash@V?$basic_string@DU?$char_traits@D@std@@V?$allocator@D@2@@std@@@2@U?$equal_to@V?$basic_string@DU?$char_traits@D@std@@V?$allocator@D@2@@std@@@2@@2@V?$allocator@U?$pair@$$CBV?$basic_string@DU?$char_traits@D@std@@V?$allocator@D@2@@std@@Ullama_model_kv_override@@@std@@@2@$0A@@std@@@std@@QEAA?AV?$_List_iterator@V?$_List_val@U?$_List_simple_types@U?$pair@$$CBV?$basic_string@DU?$char_traits@D@std@@V?$allocator@D@2@@std@@Ullama_model_kv_override@@@std@@@std@@@std@@@1@AEBV?$basic_string@DU?$char_traits@D@std@@V?$allocator@D@2@@1@@Z
	??$forward@AEBV?$_Fake_no_copy_callable_adapter@V<lambda_3f39357f5ebcd3550b555fa53c33d10a>@@@std@@@std@@YAAEBV?$_Fake_no_copy_callable_adapter@V<lambda_3f39357f5ebcd3550b555fa53c33d10a>@@@0@AEBV10@@Z
	??$forward@AEBV?$_Fake_no_copy_callable_adapter@V<lambda_e3b97c3ad3d076d7964efd5d963695f6>@@@std@@@std@@YAAEBV?$_Fake_no_copy_callable_adapter@V<lambda_e3b97c3ad3d076d7964efd5d963695f6>@@@0@AEBV10@@Z
	??$generate_canonical@M$0BI@V?$mersenne_twister_engine@I$0CA@$0CHA@$0BIN@$0BP@$0JJAILANP@$0L@$0PPPPPPPP@$06$0JNCMFGIA@$0P@$0OPMGAAAA@$0BC@$0GMAHIJGF@@std@@@std@@YAMAEAV?$mersenne_twister_engine@I$0CA@$0CHA@$0BIN@$0BP@$0JJAILANP@$0L@$0PPPPPPPP@$06$0JNCMFGIA@$0P@$0OPMGAAAA@$0BC@$0GMAHIJGF@@0@@Z
	??$generate_canonical@N$0DF@V?$mersenne_twister_engine@I$0CA@$0CHA@$0BIN@$0BP@$0JJAILANP@$0L@$0PPPPPPPP@$06$0JNCMFGIA@$0P@$0OPMGAAAA@$0BC@$0GMAHIJGF@@std@@@std@@YANAEAV?$mersenne_twister_engine@I$0CA@$0CHA@$0BIN@$0BP@$0JJAILANP@$0L@$0PPPPPPPP@$06$0JNCMFGIA@$0P@$0OPMGAAAA@$0BC@$0GMAHIJGF@@0@@Z
	??$get_arr_n@I@llama_model_loader@@QEAA_NW4llm_kv@@AEAI_N@Z
	??$get_key@G@llama_model_loader@@QEAA_NAEBV?$basic_string@DU?$char_traits@D@std@@V?$allocator@D@2@@std@@AEAG_N@Z
	??$get_key@I@llama_model_loader@@QEAA_NAEBV?$basic_string@DU?$char_traits@D@std@@V?$allocator@D@2@@std@@AEAI_N@Z
	??$get_key@I@llama_model_loader@@QEAA_NW4llm_kv@@AEAI_N@Z
	??$get_key@M@llama_model_loader@@QEAA_NAEBV?$basic_string@DU?$char_traits@D@std@@V?$allocator@D@2@@std@@AEAM_N@Z
	??$get_key@M@llama_model_loader@@QEAA_NW4llm_kv@@AEAM_N@Z
	??$get_key@V?$basic_string@DU?$char_traits@D@std@@V?$allocator@D@2@@std@@@llama_model_loader@@QEAA_NAEBV?$basic_string@DU?$char_traits@D@std@@V?$allocator@D@2@@std@@AEAV12@_N@Z
	??$get_key@V?$basic_string@DU?$char_traits@D@std@@V?$allocator@D@2@@std@@@llama_model_loader@@QEAA_NW4llm_kv@@AEAV?$basic_string@DU?$char_traits@D@std@@V?$allocator@D@2@@std@@_N@Z
	??$get_key@W4llama_pooling_type@@@llama_model_loader@@QEAA_NW4llm_kv@@AEAW4llama_pooling_type@@_N@Z
	??$get_key@_N@llama_model_loader@@QEAA_NW4llm_kv@@AEA_N_N@Z
	??$get_key_or_arr@I$0CAA@@llama_model_loader@@QEAA_NAEBV?$basic_string@DU?$char_traits@D@std@@V?$allocator@D@2@@std@@AEAV?$array@I$0CAA@@2@I_N@Z
	??$get_key_or_arr@V?$array@I$0CAA@@std@@@llama_model_loader@@QEAA_NW4llm_kv@@AEAV?$array@I$0CAA@@std@@I_N@Z
	??$insert@$0A@$0A@@?$_Tree@V?$_Tset_traits@HU?$less@H@std@@V?$allocator@H@2@$0A@@std@@@std@@QEAA?AU?$pair@V?$_Tree_const_iterator@V?$_Tree_val@U?$_Tree_simple_types@H@std@@@std@@@std@@_N@1@AEBH@Z
	??$insert@V?$_Vector_iterator@V?$_Vector_val@U?$_Simple_types@U?$pair@PEAUggml_backend_device@@PEAUggml_backend_buffer_type@@@std@@@std@@@std@@@std@@$0A@@?$vector@U?$pair@PEAUggml_backend_device@@PEAUggml_backend_buffer_type@@@std@@V?$allocator@U?$pair@PEAUggml_backend_device@@PEAUggml_backend_buffer_type@@@std@@@2@@std@@QEAA?AV?$_Vector_iterator@V?$_Vector_val@U?$_Simple_types@U?$pair@PEAUggml_backend_device@@PEAUggml_backend_buffer_type@@@std@@@std@@@std@@@1@V?$_Vector_const_iterator@V?$_Vector_val@U?$_Simple_types@U?$pair@PEAUggml_backend_device@@PEAUggml_backend_buffer_type@@@std@@@std@@@std@@@1@V21@1@Z
	??$iota@V?$_Vector_iterator@V?$_Vector_val@U?$_Simple_types@_K@std@@@std@@@std@@H@std@@YAXV?$_Vector_iterator@V?$_Vector_val@U?$_Simple_types@_K@std@@@std@@@0@0H@Z
	??$lookup_classname@PEBD@?$_Regex_traits@D@std@@QEBAFPEBD0_N@Z
	??$lookup_classname@PEB_W@?$_Regex_traits@_W@std@@QEBAFPEB_W0_N@Z
	??$move@AEAV?$tuple@V<lambda_3f39357f5ebcd3550b555fa53c33d10a>@@@std@@@std@@YA$$QEAV?$tuple@V<lambda_3f39357f5ebcd3550b555fa53c33d10a>@@@0@AEAV10@@Z
	??$move@AEAV?$tuple@V<lambda_e3b97c3ad3d076d7964efd5d963695f6>@@@std@@@std@@YA$$QEAV?$tuple@V<lambda_e3b97c3ad3d076d7964efd5d963695f6>@@@0@AEAV10@@Z
	??$pow@MH$0A@@@YANMH@Z
	??$swap@HU?$less@H@std@@V?$allocator@H@2@@std@@YAXAEAV?$set@HU?$less@H@std@@V?$allocator@H@2@@0@0@Z
	??$transform_primary@PEBD@?$_Regex_traits@D@std@@QEBA?AV?$basic_string@DU?$char_traits@D@std@@V?$allocator@D@2@@1@PEBD0@Z
	??$transform_primary@PEB_W@?$_Regex_traits@_W@std@@QEBA?AV?$basic_string@_WU?$char_traits@_W@std@@V?$allocator@_W@2@@1@PEB_W0@Z
	??$transform_primary@V?$_String_iterator@V?$_String_val@U?$_Simple_types@D@std@@@std@@@std@@@?$_Regex_traits@D@std@@QEBA?AV?$basic_string@DU?$char_traits@D@std@@V?$allocator@D@2@@1@V?$_String_iterator@V?$_String_val@U?$_Simple_types@D@std@@@std@@@1@0@Z
	??$transform_primary@V?$_String_iterator@V?$_String_val@U?$_Simple_types@_W@std@@@std@@@std@@@?$_Regex_traits@_W@std@@QEBA?AV?$basic_string@_WU?$char_traits@_W@std@@V?$allocator@_W@2@@1@V?$_String_iterator@V?$_String_val@U?$_Simple_types@_W@std@@@std@@@1@0@Z
	??$try_override@M@?$GKV@M@GGUFMeta@@SA_NAEAMPEBUllama_model_kv_override@@@Z
	??$try_override@V?$basic_string@DU?$char_traits@D@std@@V?$allocator@D@2@@std@@@?$GKV@V?$basic_string@DU?$char_traits@D@std@@V?$allocator@D@2@@std@@@GGUFMeta@@SA_NAEAV?$basic_string@DU?$char_traits@D@std@@V?$allocator@D@2@@std@@PEBUllama_model_kv_override@@@Z
	??$uninitialized_fill@PEAV?$_List_unchecked_const_iterator@V?$_List_val@U?$_List_simple_types@I@std@@@std@@U_Iterator_base0@2@@std@@V12@@std@@YAXQEAV?$_List_unchecked_const_iterator@V?$_List_val@U?$_List_simple_types@I@std@@@std@@U_Iterator_base0@2@@0@0AEBV10@@Z
	??$uninitialized_fill@PEAV?$_List_unchecked_iterator@V?$_List_val@U?$_List_simple_types@U?$pair@$$CBEV?$basic_string@DU?$char_traits@D@std@@V?$allocator@D@2@@std@@@std@@@std@@@std@@@std@@V12@@std@@YAXQEAV?$_List_unchecked_iterator@V?$_List_val@U?$_List_simple_types@U?$pair@$$CBEV?$basic_string@DU?$char_traits@D@std@@V?$allocator@D@2@@std@@@std@@@std@@@std@@@0@0AEBV10@@Z
	??$uninitialized_fill@PEAV?$_List_unchecked_iterator@V?$_List_val@U?$_List_simple_types@U?$pair@$$CBHH@std@@@std@@@std@@@std@@V12@@std@@YAXQEAV?$_List_unchecked_iterator@V?$_List_val@U?$_List_simple_types@U?$pair@$$CBHH@std@@@std@@@std@@@0@0AEBV10@@Z
	??$uninitialized_fill@PEAV?$_List_unchecked_iterator@V?$_List_val@U?$_List_simple_types@U?$pair@$$CBHV?$vector@HV?$allocator@H@std@@@std@@@std@@@std@@@std@@@std@@V12@@std@@YAXQEAV?$_List_unchecked_iterator@V?$_List_val@U?$_List_simple_types@U?$pair@$$CBHV?$vector@HV?$allocator@H@std@@@std@@@std@@@std@@@std@@@0@0AEBV10@@Z
	??$uninitialized_fill@PEAV?$_List_unchecked_iterator@V?$_List_val@U?$_List_simple_types@U?$pair@$$CBIPEAUggml_backend_buffer@@@std@@@std@@@std@@@std@@V12@@std@@YAXQEAV?$_List_unchecked_iterator@V?$_List_val@U?$_List_simple_types@U?$pair@$$CBIPEAUggml_backend_buffer@@@std@@@std@@@std@@@0@0AEBV10@@Z
	??$uninitialized_fill@PEAV?$_List_unchecked_iterator@V?$_List_val@U?$_List_simple_types@U?$pair@$$CBV?$basic_string@DU?$char_traits@D@std@@V?$allocator@D@2@@std@@E@std@@@std@@@std@@@std@@V12@@std@@YAXQEAV?$_List_unchecked_iterator@V?$_List_val@U?$_List_simple_types@U?$pair@$$CBV?$basic_string@DU?$char_traits@D@std@@V?$allocator@D@2@@std@@E@std@@@std@@@std@@@0@0AEBV10@@Z
	??$uninitialized_fill@PEAV?$_List_unchecked_iterator@V?$_List_val@U?$_List_simple_types@U?$pair@$$CBV?$basic_string@DU?$char_traits@D@std@@V?$allocator@D@2@@std@@H@std@@@std@@@std@@@std@@V12@@std@@YAXQEAV?$_List_unchecked_iterator@V?$_List_val@U?$_List_simple_types@U?$pair@$$CBV?$basic_string@DU?$char_traits@D@std@@V?$allocator@D@2@@std@@H@std@@@std@@@std@@@0@0AEBV10@@Z
	??$uninitialized_fill@PEAV?$_List_unchecked_iterator@V?$_List_val@U?$_List_simple_types@U?$pair@$$CBV?$basic_string@DU?$char_traits@D@std@@V?$allocator@D@2@@std@@Ullama_lora_weight@@@std@@@std@@@std@@@std@@V12@@std@@YAXQEAV?$_List_unchecked_iterator@V?$_List_val@U?$_List_simple_types@U?$pair@$$CBV?$basic_string@DU?$char_traits@D@std@@V?$allocator@D@2@@std@@Ullama_lora_weight@@@std@@@std@@@std@@@0@0AEBV10@@Z
	??$uninitialized_fill@PEAV?$_List_unchecked_iterator@V?$_List_val@U?$_List_simple_types@U?$pair@$$CBV?$basic_string@DU?$char_traits@D@std@@V?$allocator@D@2@@std@@Ullama_model_kv_override@@@std@@@std@@@std@@@std@@V12@@std@@YAXQEAV?$_List_unchecked_iterator@V?$_List_val@U?$_List_simple_types@U?$pair@$$CBV?$basic_string@DU?$char_traits@D@std@@V?$allocator@D@2@@std@@Ullama_model_kv_override@@@std@@@std@@@std@@@0@0AEBV10@@Z
	??$uninitialized_fill@PEAV?$_List_unchecked_iterator@V?$_List_val@U?$_List_simple_types@U?$pair@$$CBV?$basic_string@DU?$char_traits@D@std@@V?$allocator@D@2@@std@@V12@@std@@@std@@@std@@@std@@V12@@std@@YAXQEAV?$_List_unchecked_iterator@V?$_List_val@U?$_List_simple_types@U?$pair@$$CBV?$basic_string@DU?$char_traits@D@std@@V?$allocator@D@2@@std@@V12@@std@@@std@@@std@@@0@0AEBV10@@Z
	??$uninitialized_fill@PEAV?$_List_unchecked_iterator@V?$_List_val@U?$_List_simple_types@U?$pair@QEAUllama_lora_adapter@@M@std@@@std@@@std@@@std@@V12@@std@@YAXQEAV?$_List_unchecked_iterator@V?$_List_val@U?$_List_simple_types@U?$pair@QEAUllama_lora_adapter@@M@std@@@std@@@std@@@0@0AEBV10@@Z
	??$use_facet@V?$codecvt@DDU_Mbstatet@@@std@@@std@@YAAEBV?$codecvt@DDU_Mbstatet@@@0@AEBVlocale@0@@Z
	??$use_facet@V?$collate@D@std@@@std@@YAAEBV?$collate@D@0@AEBVlocale@0@@Z
	??$use_facet@V?$collate@_W@std@@@std@@YAAEBV?$collate@_W@0@AEBVlocale@0@@Z
	??$use_facet@V?$ctype@D@std@@@std@@YAAEBV?$ctype@D@0@AEBVlocale@0@@Z
	??$use_facet@V?$ctype@_W@std@@@std@@YAAEBV?$ctype@_W@0@AEBVlocale@0@@Z
	??0?$_Associated_state@U?$pair@PEAUggml_tensor@@_N@std@@@std@@QEAA@PEAU?$_Deleter_base@U?$pair@PEAUggml_tensor@@_N@std@@@1@@Z
	??0?$_Builder@PEBDDV?$regex_traits@D@std@@@std@@QEAA@AEBV?$regex_traits@D@1@W4syntax_option_type@regex_constants@1@@Z
	??0?$_Builder@PEB_W_WV?$regex_traits@_W@std@@@std@@QEAA@AEBV?$regex_traits@_W@1@W4syntax_option_type@regex_constants@1@@Z
	??0?$_Fake_no_copy_callable_adapter@V<lambda_3f39357f5ebcd3550b555fa53c33d10a>@@@std@@QEAA@AEBV01@@Z
	??0?$_Fake_no_copy_callable_adapter@V<lambda_e3b97c3ad3d076d7964efd5d963695f6>@@@std@@QEAA@AEBV01@@Z
	??0?$_Parser@PEBDDV?$regex_traits@D@std@@@std@@QEAA@AEBV?$regex_traits@D@1@PEBD1W4syntax_option_type@regex_constants@1@@Z
	??0?$_Parser@PEB_W_WV?$regex_traits@_W@std@@@std@@QEAA@AEBV?$regex_traits@_W@1@PEB_W1W4syntax_option_type@regex_constants@1@@Z
	??0?$_Tgt_state_t@PEBD@std@@QEAA@AEBV01@@Z
	??0?$_Tgt_state_t@PEB_W@std@@QEAA@AEBV01@@Z
	??0?$basic_filebuf@DU?$char_traits@D@std@@@std@@QEAA@XZ
	??0?$basic_ofstream@DU?$char_traits@D@std@@@std@@QEAA@PEBDHH@Z
	??0?$basic_string@DU?$char_traits@D@std@@V?$allocator@D@2@@std@@QEAA@AEBV01@@Z
	??0?$basic_string@DU?$char_traits@D@std@@V?$allocator@D@2@@std@@QEAA@QEBD@Z
	??0?$basic_string@DU?$char_traits@D@std@@V?$allocator@D@2@@std@@QEAA@U_String_constructor_concat_tag@1@AEAV01@1@Z
	??0?$basic_string@DU?$char_traits@D@std@@V?$allocator@D@2@@std@@QEAA@U_String_constructor_concat_tag@1@AEBV01@QEBD_K23@Z
	??0?$basic_string@DU?$char_traits@D@std@@V?$allocator@D@2@@std@@QEAA@_KD@Z
	??0?$basic_string@_WU?$char_traits@_W@std@@V?$allocator@_W@2@@std@@QEAA@AEBV01@@Z
	??0?$initializer_list@Urange_nfd@@@std@@QEAA@PEBUrange_nfd@@0@Z
	??0?$map@W4llm_tensor@@PEBDU?$less@W4llm_tensor@@@std@@V?$allocator@U?$pair@$$CBW4llm_tensor@@PEBD@std@@@3@@std@@QEAA@AEBV01@@Z
	??0?$map@W4llm_tensor@@PEBDU?$less@W4llm_tensor@@@std@@V?$allocator@U?$pair@$$CBW4llm_tensor@@PEBD@std@@@3@@std@@QEAA@V?$initializer_list@U?$pair@$$CBW4llm_tensor@@PEBD@std@@@1@@Z
	??0?$ring_buffer@H@@QEAA@_K@Z
	??0?$tuple@V<lambda_3f39357f5ebcd3550b555fa53c33d10a>@@@std@@QEAA@$$QEAV01@@Z
	??0?$tuple@V<lambda_e3b97c3ad3d076d7964efd5d963695f6>@@@std@@QEAA@$$QEAV01@@Z
	??0?$unordered_map@HHU?$hash@H@std@@U?$equal_to@H@2@V?$allocator@U?$pair@$$CBHH@std@@@2@@std@@QEAA@XZ
	??0?$unordered_map@IPEAUggml_backend_buffer@@U?$hash@I@std@@U?$equal_to@I@3@V?$allocator@U?$pair@$$CBIPEAUggml_backend_buffer@@@std@@@3@@std@@QEAA@AEBV01@@Z
	??0?$vector@HV?$allocator@H@std@@@std@@QEAA@AEBV01@@Z
	??0?$vector@MV?$allocator@M@std@@@std@@QEAA@_KAEBV?$allocator@M@1@@Z
	??0?$vector@PEBUllama_grammar_element@@V?$allocator@PEBUllama_grammar_element@@@std@@@std@@QEAA@AEBV01@@Z
	??0?$vector@Ullama_grammar_element@@V?$allocator@Ullama_grammar_element@@@std@@@std@@QEAA@AEBV01@@Z
	??0?$vector@V?$basic_string@DU?$char_traits@D@std@@V?$allocator@D@2@@std@@V?$allocator@V?$basic_string@DU?$char_traits@D@std@@V?$allocator@D@2@@std@@@2@@std@@QEAA@V?$initializer_list@V?$basic_string@DU?$char_traits@D@std@@V?$allocator@D@2@@std@@@1@AEBV?$allocator@V?$basic_string@DU?$char_traits@D@std@@V?$allocator@D@2@@std@@@1@@Z
	??0?$vector@V?$vector@PEBUllama_grammar_element@@V?$allocator@PEBUllama_grammar_element@@@std@@@std@@V?$allocator@V?$vector@PEBUllama_grammar_element@@V?$allocator@PEBUllama_grammar_element@@@std@@@std@@@2@@std@@QEAA@AEBV01@@Z
	??0?$vector@V?$vector@Ullama_grammar_element@@V?$allocator@Ullama_grammar_element@@@std@@@std@@V?$allocator@V?$vector@Ullama_grammar_element@@V?$allocator@Ullama_grammar_element@@@std@@@std@@@2@@std@@QEAA@_KAEBV?$allocator@V?$vector@Ullama_grammar_element@@V?$allocator@Ullama_grammar_element@@@std@@@std@@@1@@Z
	??0?$vector@_NV?$allocator@_N@std@@@std@@QEAA@AEBV01@@Z
	??0?$vector@_NV?$allocator@_N@std@@@std@@QEAA@_KAEBV?$allocator@_N@1@@Z
	??0?$wstring_convert@V?$codecvt_utf8@_W$0BAPPPP@$0A@@std@@_WV?$allocator@_W@2@V?$allocator@D@2@@std@@QEAA@XZ
	??0_System_error@std@@QEAA@AEBV01@@Z
	??0_TaskCreationCallstack@details@Concurrency@@QEAA@AEBV012@@Z
	??0_Task_impl_base@details@Concurrency@@QEAA@PEAV_CancellationTokenState@12@Uscheduler_ptr@2@@Z
	??0bad_alloc@std@@QEAA@AEBV01@@Z
	??0bad_array_new_length@std@@QEAA@AEBV01@@Z
	??0bad_array_new_length@std@@QEAA@XZ
	??0bad_cast@std@@QEAA@AEBV01@@Z
	??0bad_cast@std@@QEAA@XZ
	??0exception@std@@QEAA@AEBV01@@Z
	??0exception_ptr@std@@QEAA@AEBV01@@Z
	??0fragment_buffer_variant@@QEAA@AEBV?$basic_string@DU?$char_traits@D@std@@V?$allocator@D@2@@std@@_J1@Z
	??0future_error@std@@QEAA@AEBV01@@Z
	??0future_error@std@@QEAA@W4future_errc@1@@Z
	??0invalid_argument@std@@QEAA@AEBV01@@Z
	??0invalid_argument@std@@QEAA@PEBD@Z
	??0invalid_operation@Concurrency@@QEAA@AEBV01@@Z
	??0invalid_operation@Concurrency@@QEAA@PEBD@Z
	??0llama_batch_allocr@@QEAA@AEAUllama_context@@Ullama_batch@@@Z
	??0llama_context@@QEAA@AEBUllama_model@@@Z
	??0llama_file@@QEAA@PEBD0@Z
	??0llama_lora_adapter@@QEAA@PEAUllama_model@@@Z
	??0llama_mmap@@QEAA@PEAUllama_file@@_K_N@Z
	??0llama_model@@QEAA@XZ
	??0llama_model_loader@@QEAA@AEBV?$basic_string@DU?$char_traits@D@std@@V?$allocator@D@2@@std@@_N1PEBUllama_model_kv_override@@@Z
	??0llama_vocab@@QEAA@XZ
	??0llm_build_context@@QEAA@AEAUllama_context@@AEBUllama_ubatch@@AEBV?$function@$$A6AXPEAUggml_tensor@@PEBDH@Z@std@@_N@Z
	??0llm_tokenizer_bpe@@QEAA@AEBUllama_vocab@@@Z
	??0llm_tokenizer_ugm@@QEAA@AEBUllama_vocab@@@Z
	??0logic_error@std@@QEAA@AEBV01@@Z
	??0naive_trie@@QEAA@$$QEAU0@@Z
	??0range_error@std@@QEAA@AEBV01@@Z
	??0range_error@std@@QEAA@PEBD@Z
	??0runtime_error@std@@QEAA@AEBV01@@Z
	??0runtime_error@std@@QEAA@AEBV?$basic_string@DU?$char_traits@D@std@@V?$allocator@D@2@@1@@Z
	??0runtime_error@std@@QEAA@PEBD@Z
	??0system_error@std@@QEAA@AEBV01@@Z
	??0system_error@std@@QEAA@Verror_code@1@@Z
	??0task_options@Concurrency@@QEAA@XZ
	??1<lambda_052e919cc0e5399df76dff3972c0cac1>@@QEAA@XZ
	??1<lambda_be3e5d9dce35d2c8dbfa8485373731d5>@@QEAA@XZ
	??1<lambda_f25c37099038263181b5186a3fa41b37>@@QEAA@XZ
	??1?$_Alloc_construct_ptr@V?$allocator@U?$_Flist_node@Ufragment_buffer_variant@@PEAX@std@@@std@@@std@@QEAA@XZ
	??1?$_Alloc_construct_ptr@V?$allocator@U?$_List_node@IPEAX@std@@@std@@@std@@QEAA@XZ
	??1?$_Alloc_construct_ptr@V?$allocator@U?$_List_node@U?$pair@$$CBEV?$basic_string@DU?$char_traits@D@std@@V?$allocator@D@2@@std@@@std@@PEAX@std@@@std@@@std@@QEAA@XZ
	??1?$_Alloc_construct_ptr@V?$allocator@U?$_List_node@U?$pair@$$CBHH@std@@PEAX@std@@@std@@@std@@QEAA@XZ
	??1?$_Alloc_construct_ptr@V?$allocator@U?$_List_node@U?$pair@$$CBHV?$vector@HV?$allocator@H@std@@@std@@@std@@PEAX@std@@@std@@@std@@QEAA@XZ
	??1?$_Alloc_construct_ptr@V?$allocator@U?$_List_node@U?$pair@$$CBIPEAUggml_backend_buffer@@@std@@PEAX@std@@@std@@@std@@QEAA@XZ
	??1?$_Alloc_construct_ptr@V?$allocator@U?$_List_node@U?$pair@$$CBV?$basic_string@DU?$char_traits@D@std@@V?$allocator@D@2@@std@@E@std@@PEAX@std@@@std@@@std@@QEAA@XZ
	??1?$_Alloc_construct_ptr@V?$allocator@U?$_List_node@U?$pair@$$CBV?$basic_string@DU?$char_traits@D@std@@V?$allocator@D@2@@std@@H@std@@PEAX@std@@@std@@@std@@QEAA@XZ
	??1?$_Alloc_construct_ptr@V?$allocator@U?$_List_node@U?$pair@$$CBV?$basic_string@DU?$char_traits@D@std@@V?$allocator@D@2@@std@@Ullama_lora_weight@@@std@@PEAX@std@@@std@@@std@@QEAA@XZ
	??1?$_Alloc_construct_ptr@V?$allocator@U?$_List_node@U?$pair@$$CBV?$basic_string@DU?$char_traits@D@std@@V?$allocator@D@2@@std@@Ullama_model_kv_override@@@std@@PEAX@std@@@std@@@std@@QEAA@XZ
	??1?$_Alloc_construct_ptr@V?$allocator@U?$_List_node@U?$pair@$$CBV?$basic_string@DU?$char_traits@D@std@@V?$allocator@D@2@@std@@V12@@std@@PEAX@std@@@std@@@std@@QEAA@XZ
	??1?$_Alloc_construct_ptr@V?$allocator@U?$_List_node@U?$pair@QEAUllama_lora_adapter@@M@std@@PEAX@std@@@std@@@std@@QEAA@XZ
	??1?$_Alloc_construct_ptr@V?$allocator@U?$_Tree_node@HPEAX@std@@@std@@@std@@QEAA@XZ
	??1?$_Alloc_construct_ptr@V?$allocator@U?$_Tree_node@PEAUllama_lora_adapter@@PEAX@std@@@std@@@std@@QEAA@XZ
	??1?$_Alloc_construct_ptr@V?$allocator@U?$_Tree_node@U?$pair@$$CBDUnaive_trie@@@std@@PEAX@std@@@std@@@std@@QEAA@XZ
	??1?$_Alloc_construct_ptr@V?$allocator@U?$_Tree_node@U?$pair@$$CBHH@std@@PEAX@std@@@std@@@std@@QEAA@XZ
	??1?$_Alloc_construct_ptr@V?$allocator@U?$_Tree_node@U?$pair@$$CBHV?$basic_string@DU?$char_traits@D@std@@V?$allocator@D@2@@std@@@std@@PEAX@std@@@std@@@std@@QEAA@XZ
	??1?$_Alloc_construct_ptr@V?$allocator@U?$_Tree_node@U?$pair@$$CBHV?$vector@MV?$allocator@M@std@@@std@@@std@@PEAX@std@@@std@@@std@@QEAA@XZ
	??1?$_Alloc_construct_ptr@V?$allocator@U?$_Tree_node@U?$pair@$$CBIV?$basic_string@DU?$char_traits@D@std@@V?$allocator@D@2@@std@@@std@@PEAX@std@@@std@@@std@@QEAA@XZ
	??1?$_Alloc_construct_ptr@V?$allocator@U?$_Tree_node@U?$pair@$$CBU?$pair@V?$basic_string@DU?$char_traits@D@std@@V?$allocator@D@2@@std@@V12@@std@@H@std@@PEAX@std@@@std@@@std@@QEAA@XZ
	??1?$_Alloc_construct_ptr@V?$allocator@U?$_Tree_node@U?$pair@$$CBV?$basic_string@DU?$char_traits@D@std@@V?$allocator@D@2@@std@@H@std@@PEAX@std@@@std@@@std@@QEAA@XZ
	??1?$_Alloc_construct_ptr@V?$allocator@U?$_Tree_node@U?$pair@$$CBV?$basic_string@DU?$char_traits@D@std@@V?$allocator@D@2@@std@@I@std@@PEAX@std@@@std@@@std@@QEAA@XZ
	??1?$_Alloc_construct_ptr@V?$allocator@U?$_Tree_node@U?$pair@$$CBV?$basic_string@DU?$char_traits@D@std@@V?$allocator@D@2@@std@@U?$pair@HH@2@@std@@PEAX@std@@@std@@@std@@QEAA@XZ
	??1?$_Alloc_construct_ptr@V?$allocator@U?$_Tree_node@U?$pair@$$CBV?$basic_string@DU?$char_traits@D@std@@V?$allocator@D@2@@std@@Ullama_lora_weight@@@std@@PEAX@std@@@std@@@std@@QEAA@XZ
	??1?$_Alloc_construct_ptr@V?$allocator@U?$_Tree_node@U?$pair@$$CBV?$basic_string@DU?$char_traits@D@std@@V?$allocator@D@2@@std@@Ullama_tensor_weight@llama_model_loader@@@std@@PEAX@std@@@std@@@std@@QEAA@XZ
	??1?$_Alloc_construct_ptr@V?$allocator@U?$_Tree_node@U?$pair@$$CBW4ggml_type@@I@std@@PEAX@std@@@std@@@std@@QEAA@XZ
	??1?$_Alloc_construct_ptr@V?$allocator@U?$_Tree_node@U?$pair@$$CBW4llama_rope_scaling_type@@PEBD@std@@PEAX@std@@@std@@@std@@QEAA@XZ
	??1?$_Alloc_construct_ptr@V?$allocator@U?$_Tree_node@U?$pair@$$CBW4llm_arch@@PEBD@std@@PEAX@std@@@std@@@std@@QEAA@XZ
	??1?$_Alloc_construct_ptr@V?$allocator@U?$_Tree_node@U?$pair@$$CBW4llm_arch@@V?$map@W4llm_tensor@@PEBDU?$less@W4llm_tensor@@@std@@V?$allocator@U?$pair@$$CBW4llm_tensor@@PEBD@std@@@3@@std@@@std@@PEAX@std@@@std@@@std@@QEAA@XZ
	??1?$_Alloc_construct_ptr@V?$allocator@U?$_Tree_node@U?$pair@$$CBW4llm_kv@@PEBD@std@@PEAX@std@@@std@@@std@@QEAA@XZ
	??1?$_Alloc_construct_ptr@V?$allocator@U?$_Tree_node@U?$pair@$$CBW4llm_tensor@@PEBD@std@@PEAX@std@@@std@@@std@@QEAA@XZ
	??1?$_Alloc_construct_ptr@V?$allocator@U?$_Tree_node@U?$pair@$$CBW4llm_tensor@@Ullm_tensor_info@@@std@@PEAX@std@@@std@@@std@@QEAA@XZ
	??1?$_Alloc_construct_ptr@V?$allocator@U?$_Tree_node@U?$pair@QEAUggml_backend_buffer_type@@PEAUggml_context@@@std@@PEAX@std@@@std@@@std@@QEAA@XZ
	??1?$_Alloc_construct_ptr@V?$allocator@U?$_Tree_node@U?$pair@QEAUggml_backend_device@@V?$vector@U?$pair@PEAUggml_backend_device@@PEAUggml_backend_buffer_type@@@std@@V?$allocator@U?$pair@PEAUggml_backend_device@@PEAUggml_backend_buffer_type@@@std@@@2@@std@@@std@@PEAX@std@@@std@@@std@@QEAA@XZ
	??1?$_Associated_state@U?$pair@PEAUggml_tensor@@_N@std@@@std@@UEAA@XZ
	??1?$_Bt_state_t@PEBD@std@@QEAA@XZ
	??1?$_Bt_state_t@PEB_W@std@@QEAA@XZ
	??1?$_Erase_tree_and_orphan_guard@V?$allocator@U?$_Tree_node@HPEAX@std@@@std@@@?$_Tree_val@U?$_Tree_simple_types@H@std@@@std@@QEAA@XZ
	??1?$_Erase_tree_and_orphan_guard@V?$allocator@U?$_Tree_node@U?$pair@$$CBW4llm_tensor@@PEBD@std@@PEAX@std@@@std@@@?$_Tree_val@U?$_Tree_simple_types@U?$pair@$$CBW4llm_tensor@@PEBD@std@@@std@@@std@@QEAA@XZ
	??1?$_Func_class@E$$V@std@@QEAA@XZ
	??1?$_Func_class@X$$V@std@@QEAA@XZ
	??1?$_Hash@V?$_Umap_traits@EV?$basic_string@DU?$char_traits@D@std@@V?$allocator@D@2@@std@@V?$_Uhash_compare@EU?$hash@E@std@@U?$equal_to@E@2@@2@V?$allocator@U?$pair@$$CBEV?$basic_string@DU?$char_traits@D@std@@V?$allocator@D@2@@std@@@std@@@2@$0A@@std@@@std@@QEAA@XZ
	??1?$_Hash@V?$_Umap_traits@HHV?$_Uhash_compare@HU?$hash@H@std@@U?$equal_to@H@2@@std@@V?$allocator@U?$pair@$$CBHH@std@@@2@$0A@@std@@@std@@QEAA@XZ
	??1?$_Hash@V?$_Umap_traits@HV?$vector@HV?$allocator@H@std@@@std@@V?$_Uhash_compare@HU?$hash@H@std@@U?$equal_to@H@2@@2@V?$allocator@U?$pair@$$CBHV?$vector@HV?$allocator@H@std@@@std@@@std@@@2@$00@std@@@std@@QEAA@XZ
	??1?$_Hash@V?$_Umap_traits@IPEAUggml_backend_buffer@@V?$_Uhash_compare@IU?$hash@I@std@@U?$equal_to@I@2@@std@@V?$allocator@U?$pair@$$CBIPEAUggml_backend_buffer@@@std@@@3@$0A@@std@@@std@@QEAA@XZ
	??1?$_Hash@V?$_Umap_traits@PEAUllama_lora_adapter@@MV?$_Uhash_compare@PEAUllama_lora_adapter@@U?$hash@PEAUllama_lora_adapter@@@std@@U?$equal_to@PEAUllama_lora_adapter@@@3@@std@@V?$allocator@U?$pair@QEAUllama_lora_adapter@@M@std@@@3@$0A@@std@@@std@@QEAA@XZ
	??1?$_Hash@V?$_Umap_traits@V?$basic_string@DU?$char_traits@D@std@@V?$allocator@D@2@@std@@EV?$_Uhash_compare@V?$basic_string@DU?$char_traits@D@std@@V?$allocator@D@2@@std@@U?$hash@V?$basic_string@DU?$char_traits@D@std@@V?$allocator@D@2@@std@@@2@U?$equal_to@V?$basic_string@DU?$char_traits@D@std@@V?$allocator@D@2@@std@@@2@@2@V?$allocator@U?$pair@$$CBV?$basic_string@DU?$char_traits@D@std@@V?$allocator@D@2@@std@@E@std@@@2@$0A@@std@@@std@@QEAA@XZ
	??1?$_Hash@V?$_Umap_traits@V?$basic_string@DU?$char_traits@D@std@@V?$allocator@D@2@@std@@HV?$_Uhash_compare@V?$basic_string@DU?$char_traits@D@std@@V?$allocator@D@2@@std@@U?$hash@V?$basic_string@DU?$char_traits@D@std@@V?$allocator@D@2@@std@@@2@U?$equal_to@V?$basic_string@DU?$char_traits@D@std@@V?$allocator@D@2@@std@@@2@@2@V?$allocator@U?$pair@$$CBV?$basic_string@DU?$char_traits@D@std@@V?$allocator@D@2@@std@@H@std@@@2@$0A@@std@@@std@@QEAA@XZ
	??1?$_Hash@V?$_Umap_traits@V?$basic_string@DU?$char_traits@D@std@@V?$allocator@D@2@@std@@Ullama_lora_weight@@V?$_Uhash_compare@V?$basic_string@DU?$char_traits@D@std@@V?$allocator@D@2@@std@@U?$hash@V?$basic_string@DU?$char_traits@D@std@@V?$allocator@D@2@@std@@@2@U?$equal_to@V?$basic_string@DU?$char_traits@D@std@@V?$allocator@D@2@@std@@@2@@2@V?$allocator@U?$pair@$$CBV?$basic_string@DU?$char_traits@D@std@@V?$allocator@D@2@@std@@Ullama_lora_weight@@@std@@@2@$0A@@std@@@std@@QEAA@XZ
	??1?$_Hash@V?$_Umap_traits@V?$basic_string@DU?$char_traits@D@std@@V?$allocator@D@2@@std@@Ullama_model_kv_override@@V?$_Uhash_compare@V?$basic_string@DU?$char_traits@D@std@@V?$allocator@D@2@@std@@U?$hash@V?$basic_string@DU?$char_traits@D@std@@V?$allocator@D@2@@std@@@2@U?$equal_to@V?$basic_string@DU?$char_traits@D@std@@V?$allocator@D@2@@std@@@2@@2@V?$allocator@U?$pair@$$CBV?$basic_string@DU?$char_traits@D@std@@V?$allocator@D@2@@std@@Ullama_model_kv_override@@@std@@@2@$0A@@std@@@std@@QEAA@XZ
	??1?$_Hash@V?$_Umap_traits@V?$basic_string@DU?$char_traits@D@std@@V?$allocator@D@2@@std@@V12@V?$_Uhash_compare@V?$basic_string@DU?$char_traits@D@std@@V?$allocator@D@2@@std@@U?$hash@V?$basic_string@DU?$char_traits@D@std@@V?$allocator@D@2@@std@@@2@U?$equal_to@V?$basic_string@DU?$char_traits@D@std@@V?$allocator@D@2@@std@@@2@@2@V?$allocator@U?$pair@$$CBV?$basic_string@DU?$char_traits@D@std@@V?$allocator@D@2@@std@@V12@@std@@@2@$0A@@std@@@std@@QEAA@XZ
	??1?$_Hash@V?$_Uset_traits@IV?$_Uhash_compare@IU?$hash@I@std@@U?$equal_to@I@2@@std@@V?$allocator@I@2@$0A@@std@@@std@@QEAA@XZ
	??1?$_Hash_vec@V?$allocator@V?$_List_unchecked_const_iterator@V?$_List_val@U?$_List_simple_types@I@std@@@std@@U_Iterator_base0@2@@std@@@std@@@std@@QEAA@XZ
	??1?$_Hash_vec@V?$allocator@V?$_List_unchecked_iterator@V?$_List_val@U?$_List_simple_types@U?$pair@$$CBEV?$basic_string@DU?$char_traits@D@std@@V?$allocator@D@2@@std@@@std@@@std@@@std@@@std@@@std@@@std@@QEAA@XZ
	??1?$_Hash_vec@V?$allocator@V?$_List_unchecked_iterator@V?$_List_val@U?$_List_simple_types@U?$pair@$$CBHH@std@@@std@@@std@@@std@@@std@@@std@@QEAA@XZ
	??1?$_Hash_vec@V?$allocator@V?$_List_unchecked_iterator@V?$_List_val@U?$_List_simple_types@U?$pair@$$CBHV?$vector@HV?$allocator@H@std@@@std@@@std@@@std@@@std@@@std@@@std@@@std@@QEAA@XZ
	??1?$_Hash_vec@V?$allocator@V?$_List_unchecked_iterator@V?$_List_val@U?$_List_simple_types@U?$pair@$$CBIPEAUggml_backend_buffer@@@std@@@std@@@std@@@std@@@std@@@std@@QEAA@XZ
	??1?$_Hash_vec@V?$allocator@V?$_List_unchecked_iterator@V?$_List_val@U?$_List_simple_types@U?$pair@$$CBV?$basic_string@DU?$char_traits@D@std@@V?$allocator@D@2@@std@@E@std@@@std@@@std@@@std@@@std@@@std@@QEAA@XZ
	??1?$_Hash_vec@V?$allocator@V?$_List_unchecked_iterator@V?$_List_val@U?$_List_simple_types@U?$pair@$$CBV?$basic_string@DU?$char_traits@D@std@@V?$allocator@D@2@@std@@H@std@@@std@@@std@@@std@@@std@@@std@@QEAA@XZ
	??1?$_Hash_vec@V?$allocator@V?$_List_unchecked_iterator@V?$_List_val@U?$_List_simple_types@U?$pair@$$CBV?$basic_string@DU?$char_traits@D@std@@V?$allocator@D@2@@std@@Ullama_lora_weight@@@std@@@std@@@std@@@std@@@std@@@std@@QEAA@XZ
	??1?$_Hash_vec@V?$allocator@V?$_List_unchecked_iterator@V?$_List_val@U?$_List_simple_types@U?$pair@$$CBV?$basic_string@DU?$char_traits@D@std@@V?$allocator@D@2@@std@@Ullama_model_kv_override@@@std@@@std@@@std@@@std@@@std@@@std@@QEAA@XZ
	??1?$_Hash_vec@V?$allocator@V?$_List_unchecked_iterator@V?$_List_val@U?$_List_simple_types@U?$pair@$$CBV?$basic_string@DU?$char_traits@D@std@@V?$allocator@D@2@@std@@V12@@std@@@std@@@std@@@std@@@std@@@std@@QEAA@XZ
	??1?$_Hash_vec@V?$allocator@V?$_List_unchecked_iterator@V?$_List_val@U?$_List_simple_types@U?$pair@QEAUllama_lora_adapter@@M@std@@@std@@@std@@@std@@@std@@@std@@QEAA@XZ
	??1?$_InitialTaskHandle@XV<lambda_61d324d6c6ae299623b0a01e4b2f6764>@@U_TypeSelectorNoAsync@details@Concurrency@@@?$task@E@Concurrency@@UEAA@XZ
	??1?$_InitialTaskHandle@XV<lambda_f7036c9a115536b365ca4544394c825b>@@U_TypeSelectorNoAsync@details@Concurrency@@@?$task@E@Concurrency@@UEAA@XZ
	??1?$_List_node_emplace_op2@V?$allocator@U?$_List_node@IPEAX@std@@@std@@@std@@QEAA@XZ
	??1?$_List_node_emplace_op2@V?$allocator@U?$_List_node@U?$pair@$$CBEV?$basic_string@DU?$char_traits@D@std@@V?$allocator@D@2@@std@@@std@@PEAX@std@@@std@@@std@@QEAA@XZ
	??1?$_List_node_emplace_op2@V?$allocator@U?$_List_node@U?$pair@$$CBHH@std@@PEAX@std@@@std@@@std@@QEAA@XZ
	??1?$_List_node_emplace_op2@V?$allocator@U?$_List_node@U?$pair@$$CBHV?$vector@HV?$allocator@H@std@@@std@@@std@@PEAX@std@@@std@@@std@@QEAA@XZ
	??1?$_List_node_emplace_op2@V?$allocator@U?$_List_node@U?$pair@$$CBIPEAUggml_backend_buffer@@@std@@PEAX@std@@@std@@@std@@QEAA@XZ
	??1?$_List_node_emplace_op2@V?$allocator@U?$_List_node@U?$pair@$$CBV?$basic_string@DU?$char_traits@D@std@@V?$allocator@D@2@@std@@E@std@@PEAX@std@@@std@@@std@@QEAA@XZ
	??1?$_List_node_emplace_op2@V?$allocator@U?$_List_node@U?$pair@$$CBV?$basic_string@DU?$char_traits@D@std@@V?$allocator@D@2@@std@@H@std@@PEAX@std@@@std@@@std@@QEAA@XZ
	??1?$_List_node_emplace_op2@V?$allocator@U?$_List_node@U?$pair@$$CBV?$basic_string@DU?$char_traits@D@std@@V?$allocator@D@2@@std@@Ullama_lora_weight@@@std@@PEAX@std@@@std@@@std@@QEAA@XZ
	??1?$_List_node_emplace_op2@V?$allocator@U?$_List_node@U?$pair@$$CBV?$basic_string@DU?$char_traits@D@std@@V?$allocator@D@2@@std@@Ullama_model_kv_override@@@std@@PEAX@std@@@std@@@std@@QEAA@XZ
	??1?$_List_node_emplace_op2@V?$allocator@U?$_List_node@U?$pair@$$CBV?$basic_string@DU?$char_traits@D@std@@V?$allocator@D@2@@std@@V12@@std@@PEAX@std@@@std@@@std@@QEAA@XZ
	??1?$_List_node_emplace_op2@V?$allocator@U?$_List_node@U?$pair@QEAUllama_lora_adapter@@M@std@@PEAX@std@@@std@@@std@@QEAA@XZ
	??1?$_List_node_insert_op2@V?$allocator@U?$_List_node@U?$pair@$$CBHH@std@@PEAX@std@@@std@@@std@@QEAA@XZ
	??1?$_List_node_insert_op2@V?$allocator@U?$_List_node@U?$pair@$$CBHV?$vector@HV?$allocator@H@std@@@std@@@std@@PEAX@std@@@std@@@std@@QEAA@XZ
	??1?$_Matcher@PEBDDV?$regex_traits@D@std@@PEBD@std@@QEAA@XZ
	??1?$_Matcher@PEB_W_WV?$regex_traits@_W@std@@PEB_W@std@@QEAA@XZ
	??1?$_PPLTaskHandle@EU?$_InitialTaskHandle@XV<lambda_61d324d6c6ae299623b0a01e4b2f6764>@@U_TypeSelectorNoAsync@details@Concurrency@@@?$task@E@Concurrency@@U_TaskProcHandle@details@3@@details@Concurrency@@UEAA@XZ
	??1?$_PPLTaskHandle@EU?$_InitialTaskHandle@XV<lambda_f7036c9a115536b365ca4544394c825b>@@U_TypeSelectorNoAsync@details@Concurrency@@@?$task@E@Concurrency@@U_TaskProcHandle@details@3@@details@Concurrency@@UEAA@XZ
	??1?$_Packaged_state@$$A6A?AU?$pair@PEAUggml_tensor@@_N@std@@XZ@std@@UEAA@XZ
	??1?$_Parser@PEBDDV?$regex_traits@D@std@@@std@@QEAA@XZ
	??1?$_Parser@PEB_W_WV?$regex_traits@_W@std@@@std@@QEAA@XZ
	??1?$_Promise@U?$pair@PEAUggml_tensor@@_N@std@@@std@@QEAA@XZ
	??1?$_Ref_count_obj2@U?$_Task_impl@E@details@Concurrency@@@std@@UEAA@XZ
	??1?$_Ref_count_obj2@U_ExceptionHolder@details@Concurrency@@@std@@UEAA@XZ
	??1?$_Task_async_state@U?$pair@PEAUggml_tensor@@_N@std@@@std@@UEAA@XZ
	??1?$_Task_impl@E@details@Concurrency@@UEAA@XZ
	??1?$_Tgt_state_t@PEBD@std@@QEAA@XZ
	??1?$_Tgt_state_t@PEB_W@std@@QEAA@XZ
	??1?$_Tidy_guard@V?$_Builder@PEBDDV?$regex_traits@D@std@@@std@@@std@@QEAA@XZ
	??1?$_Tidy_guard@V?$_Builder@PEB_W_WV?$regex_traits@_W@std@@@std@@@std@@QEAA@XZ
	??1?$_Tidy_guard@V?$vector@NV?$allocator@N@std@@@std@@@std@@QEAA@XZ
	??1?$_Tidy_guard@V?$vector@V?$basic_string@DU?$char_traits@D@std@@V?$allocator@D@2@@std@@V?$allocator@V?$basic_string@DU?$char_traits@D@std@@V?$allocator@D@2@@std@@@2@@std@@@std@@QEAA@XZ
	??1?$_Tidy_guard@V?$vector@V?$vector@PEBUllama_grammar_element@@V?$allocator@PEBUllama_grammar_element@@@std@@@std@@V?$allocator@V?$vector@PEBUllama_grammar_element@@V?$allocator@PEBUllama_grammar_element@@@std@@@std@@@2@@std@@@std@@QEAA@XZ
	??1?$_Tidy_guard@V?$vector@V?$vector@Ullama_grammar_element@@V?$allocator@Ullama_grammar_element@@@std@@@std@@V?$allocator@V?$vector@Ullama_grammar_element@@V?$allocator@Ullama_grammar_element@@@std@@@std@@@2@@std@@@std@@QEAA@XZ
	??1?$_Tree@V?$_Tmap_traits@DUnaive_trie@@U?$less@D@std@@V?$allocator@U?$pair@$$CBDUnaive_trie@@@std@@@3@$0A@@std@@@std@@QEAA@XZ
	??1?$_Tree@V?$_Tmap_traits@HHU?$less@H@std@@V?$allocator@U?$pair@$$CBHH@std@@@2@$0A@@std@@@std@@QEAA@XZ
	??1?$_Tree@V?$_Tmap_traits@HV?$basic_string@DU?$char_traits@D@std@@V?$allocator@D@2@@std@@U?$less@H@2@V?$allocator@U?$pair@$$CBHV?$basic_string@DU?$char_traits@D@std@@V?$allocator@D@2@@std@@@std@@@2@$0A@@std@@@std@@QEAA@XZ
	??1?$_Tree@V?$_Tmap_traits@V?$basic_string@DU?$char_traits@D@std@@V?$allocator@D@2@@std@@HU?$less@V?$basic_string@DU?$char_traits@D@std@@V?$allocator@D@2@@std@@@2@V?$allocator@U?$pair@$$CBV?$basic_string@DU?$char_traits@D@std@@V?$allocator@D@2@@std@@H@std@@@2@$0A@@std@@@std@@QEAA@XZ
	??1?$_Tree@V?$_Tmap_traits@W4llama_rope_scaling_type@@PEBDU?$less@W4llama_rope_scaling_type@@@std@@V?$allocator@U?$pair@$$CBW4llama_rope_scaling_type@@PEBD@std@@@3@$0A@@std@@@std@@QEAA@XZ
	??1?$_Tree@V?$_Tmap_traits@W4llm_arch@@PEBDU?$less@W4llm_arch@@@std@@V?$allocator@U?$pair@$$CBW4llm_arch@@PEBD@std@@@3@$0A@@std@@@std@@QEAA@XZ
	??1?$_Tree@V?$_Tmap_traits@W4llm_arch@@V?$map@W4llm_tensor@@PEBDU?$less@W4llm_tensor@@@std@@V?$allocator@U?$pair@$$CBW4llm_tensor@@PEBD@std@@@3@@std@@U?$less@W4llm_arch@@@3@V?$allocator@U?$pair@$$CBW4llm_arch@@V?$map@W4llm_tensor@@PEBDU?$less@W4llm_tensor@@@std@@V?$allocator@U?$pair@$$CBW4llm_tensor@@PEBD@std@@@3@@std@@@std@@@3@$0A@@std@@@std@@QEAA@XZ
	??1?$_Tree@V?$_Tmap_traits@W4llm_kv@@PEBDU?$less@W4llm_kv@@@std@@V?$allocator@U?$pair@$$CBW4llm_kv@@PEBD@std@@@3@$0A@@std@@@std@@QEAA@XZ
	??1?$_Tree@V?$_Tmap_traits@W4llm_tensor@@PEBDU?$less@W4llm_tensor@@@std@@V?$allocator@U?$pair@$$CBW4llm_tensor@@PEBD@std@@@3@$0A@@std@@@std@@QEAA@XZ
	??1?$_Tree@V?$_Tmap_traits@W4llm_tensor@@Ullm_tensor_info@@U?$less@W4llm_tensor@@@std@@V?$allocator@U?$pair@$$CBW4llm_tensor@@Ullm_tensor_info@@@std@@@4@$0A@@std@@@std@@QEAA@XZ
	??1?$_Tree_head_scoped_ptr@V?$allocator@U?$_Tree_node@HPEAX@std@@@std@@V?$_Tree_val@U?$_Tree_simple_types@H@std@@@2@@std@@QEAA@XZ
	??1?$_Tree_head_scoped_ptr@V?$allocator@U?$_Tree_node@U?$pair@$$CBW4llm_tensor@@PEBD@std@@PEAX@std@@@std@@V?$_Tree_val@U?$_Tree_simple_types@U?$pair@$$CBW4llm_tensor@@PEBD@std@@@std@@@2@@std@@QEAA@XZ
	??1?$_Tree_temp_node_alloc@V?$allocator@U?$_Tree_node@U?$pair@$$CBDUnaive_trie@@@std@@PEAX@std@@@std@@@std@@QEAA@XZ
	??1?$_Tree_temp_node_alloc@V?$allocator@U?$_Tree_node@U?$pair@$$CBHV?$basic_string@DU?$char_traits@D@std@@V?$allocator@D@2@@std@@@std@@PEAX@std@@@std@@@std@@QEAA@XZ
	??1?$_Tree_temp_node_alloc@V?$allocator@U?$_Tree_node@U?$pair@$$CBV?$basic_string@DU?$char_traits@D@std@@V?$allocator@D@2@@std@@H@std@@PEAX@std@@@std@@@std@@QEAA@XZ
	??1?$_Tree_temp_node_alloc@V?$allocator@U?$_Tree_node@U?$pair@$$CBV?$basic_string@DU?$char_traits@D@std@@V?$allocator@D@2@@std@@U?$pair@HH@2@@std@@PEAX@std@@@std@@@std@@QEAA@XZ
	??1?$_Tree_temp_node_alloc@V?$allocator@U?$_Tree_node@U?$pair@$$CBV?$basic_string@DU?$char_traits@D@std@@V?$allocator@D@2@@std@@Ullama_lora_weight@@@std@@PEAX@std@@@std@@@std@@QEAA@XZ
	??1?$_Tree_temp_node_alloc@V?$allocator@U?$_Tree_node@U?$pair@$$CBV?$basic_string@DU?$char_traits@D@std@@V?$allocator@D@2@@std@@Ullama_tensor_weight@llama_model_loader@@@std@@PEAX@std@@@std@@@std@@QEAA@XZ
	??1?$_Tree_temp_node_alloc@V?$allocator@U?$_Tree_node@U?$pair@$$CBW4llm_arch@@V?$map@W4llm_tensor@@PEBDU?$less@W4llm_tensor@@@std@@V?$allocator@U?$pair@$$CBW4llm_tensor@@PEBD@std@@@3@@std@@@std@@PEAX@std@@@std@@@std@@QEAA@XZ
	??1?$_Uninitialized_backout_al@V?$allocator@U?$pair@PEAUggml_context@@V?$unordered_map@IPEAUggml_backend_buffer@@U?$hash@I@std@@U?$equal_to@I@3@V?$allocator@U?$pair@$$CBIPEAUggml_backend_buffer@@@std@@@3@@std@@@std@@@std@@@std@@QEAA@XZ
	??1?$_Uninitialized_backout_al@V?$allocator@Ullama_kv_cell@@@std@@@std@@QEAA@XZ
	??1?$_Uninitialized_backout_al@V?$allocator@V?$basic_string@DU?$char_traits@D@std@@V?$allocator@D@2@@std@@@std@@@std@@QEAA@XZ
	??1?$_Uninitialized_backout_al@V?$allocator@V?$set@HU?$less@H@std@@V?$allocator@H@2@@std@@@std@@@std@@QEAA@XZ
	??1?$_Uninitialized_backout_al@V?$allocator@V?$vector@PEBUllama_grammar_element@@V?$allocator@PEBUllama_grammar_element@@@std@@@std@@@std@@@std@@QEAA@XZ
	??1?$_Uninitialized_backout_al@V?$allocator@V?$vector@Ullama_grammar_element@@V?$allocator@Ullama_grammar_element@@@std@@@std@@@std@@@std@@QEAA@XZ
	??1?$_Vb_val@V?$allocator@_N@std@@@std@@QEAA@XZ
	??1?$basic_filebuf@DU?$char_traits@D@std@@@std@@UEAA@XZ
	??1?$basic_ofstream@DU?$char_traits@D@std@@@std@@UEAA@XZ
	??1?$basic_regex@DV?$regex_traits@D@std@@@std@@QEAA@XZ
	??1?$basic_regex@_WV?$regex_traits@_W@std@@@std@@QEAA@XZ
	??1?$basic_string@DU?$char_traits@D@std@@V?$allocator@D@2@@std@@QEAA@XZ
	??1?$basic_string@_WU?$char_traits@_W@std@@V?$allocator@_W@2@@std@@QEAA@XZ
	??1?$basic_stringbuf@DU?$char_traits@D@std@@V?$allocator@D@2@@std@@UEAA@XZ
	??1?$basic_stringstream@DU?$char_traits@D@std@@V?$allocator@D@2@@std@@UEAA@XZ
	??1?$codecvt_utf8@_W$0BAPPPP@$0A@@std@@UEAA@XZ
	??1?$collate@D@std@@MEAA@XZ
	??1?$collate@_W@std@@MEAA@XZ
	??1?$forward_list@Ufragment_buffer_variant@@V?$allocator@Ufragment_buffer_variant@@@std@@@std@@QEAA@XZ
	??1?$function@$$A6AEXZ@std@@QEAA@XZ
	??1?$function@$$A6AII@Z@std@@QEAA@XZ
	??1?$function@$$A6AXPEAUggml_tensor@@PEBDH@Z@std@@QEAA@XZ
	??1?$function@$$A6AXXZ@std@@QEAA@XZ
	??1?$future@U?$pair@PEAUggml_tensor@@_N@std@@@std@@QEAA@XZ
	??1?$list@IV?$allocator@I@std@@@std@@QEAA@XZ
	??1?$list@U?$pair@$$CBEV?$basic_string@DU?$char_traits@D@std@@V?$allocator@D@2@@std@@@std@@V?$allocator@U?$pair@$$CBEV?$basic_string@DU?$char_traits@D@std@@V?$allocator@D@2@@std@@@std@@@2@@std@@QEAA@XZ
	??1?$list@U?$pair@$$CBHH@std@@V?$allocator@U?$pair@$$CBHH@std@@@2@@std@@QEAA@XZ
	??1?$list@U?$pair@$$CBHV?$vector@HV?$allocator@H@std@@@std@@@std@@V?$allocator@U?$pair@$$CBHV?$vector@HV?$allocator@H@std@@@std@@@std@@@2@@std@@QEAA@XZ
	??1?$list@U?$pair@$$CBIPEAUggml_backend_buffer@@@std@@V?$allocator@U?$pair@$$CBIPEAUggml_backend_buffer@@@std@@@2@@std@@QEAA@XZ
	??1?$list@U?$pair@$$CBV?$basic_string@DU?$char_traits@D@std@@V?$allocator@D@2@@std@@E@std@@V?$allocator@U?$pair@$$CBV?$basic_string@DU?$char_traits@D@std@@V?$allocator@D@2@@std@@E@std@@@2@@std@@QEAA@XZ
	??1?$list@U?$pair@$$CBV?$basic_string@DU?$char_traits@D@std@@V?$allocator@D@2@@std@@H@std@@V?$allocator@U?$pair@$$CBV?$basic_string@DU?$char_traits@D@std@@V?$allocator@D@2@@std@@H@std@@@2@@std@@QEAA@XZ
	??1?$list@U?$pair@$$CBV?$basic_string@DU?$char_traits@D@std@@V?$allocator@D@2@@std@@Ullama_lora_weight@@@std@@V?$allocator@U?$pair@$$CBV?$basic_string@DU?$char_traits@D@std@@V?$allocator@D@2@@std@@Ullama_lora_weight@@@std@@@2@@std@@QEAA@XZ
	??1?$list@U?$pair@$$CBV?$basic_string@DU?$char_traits@D@std@@V?$allocator@D@2@@std@@Ullama_model_kv_override@@@std@@V?$allocator@U?$pair@$$CBV?$basic_string@DU?$char_traits@D@std@@V?$allocator@D@2@@std@@Ullama_model_kv_override@@@std@@@2@@std@@QEAA@XZ
	??1?$list@U?$pair@$$CBV?$basic_string@DU?$char_traits@D@std@@V?$allocator@D@2@@std@@V12@@std@@V?$allocator@U?$pair@$$CBV?$basic_string@DU?$char_traits@D@std@@V?$allocator@D@2@@std@@V12@@std@@@2@@std@@QEAA@XZ
	??1?$list@U?$pair@QEAUllama_lora_adapter@@M@std@@V?$allocator@U?$pair@QEAUllama_lora_adapter@@M@std@@@2@@std@@QEAA@XZ
	??1?$lock_guard@Vmutex@std@@@std@@QEAA@XZ
	??1?$map@IV?$basic_string@DU?$char_traits@D@std@@V?$allocator@D@2@@std@@U?$less@I@2@V?$allocator@U?$pair@$$CBIV?$basic_string@DU?$char_traits@D@std@@V?$allocator@D@2@@std@@@std@@@2@@std@@QEAA@XZ
	??1?$map@PEAUggml_backend_buffer_type@@PEAUggml_context@@U?$less@PEAUggml_backend_buffer_type@@@std@@V?$allocator@U?$pair@QEAUggml_backend_buffer_type@@PEAUggml_context@@@std@@@4@@std@@QEAA@XZ
	??1?$map@PEAUggml_backend_device@@V?$vector@U?$pair@PEAUggml_backend_device@@PEAUggml_backend_buffer_type@@@std@@V?$allocator@U?$pair@PEAUggml_backend_device@@PEAUggml_backend_buffer_type@@@std@@@2@@std@@U?$less@PEAUggml_backend_device@@@3@V?$allocator@U?$pair@QEAUggml_backend_device@@V?$vector@U?$pair@PEAUggml_backend_device@@PEAUggml_backend_buffer_type@@@std@@V?$allocator@U?$pair@PEAUggml_backend_device@@PEAUggml_backend_buffer_type@@@std@@@2@@std@@@std@@@3@@std@@QEAA@XZ
	??1?$map@U?$pair@V?$basic_string@DU?$char_traits@D@std@@V?$allocator@D@2@@std@@V12@@std@@HU?$less@U?$pair@V?$basic_string@DU?$char_traits@D@std@@V?$allocator@D@2@@std@@V12@@std@@@2@V?$allocator@U?$pair@$$CBU?$pair@V?$basic_string@DU?$char_traits@D@std@@V?$allocator@D@2@@std@@V12@@std@@H@std@@@2@@std@@QEAA@XZ
	??1?$map@V?$basic_string@DU?$char_traits@D@std@@V?$allocator@D@2@@std@@Ullama_lora_weight@@U?$less@V?$basic_string@DU?$char_traits@D@std@@V?$allocator@D@2@@std@@@2@V?$allocator@U?$pair@$$CBV?$basic_string@DU?$char_traits@D@std@@V?$allocator@D@2@@std@@Ullama_lora_weight@@@std@@@2@@std@@QEAA@XZ
	??1?$map@V?$basic_string@DU?$char_traits@D@std@@V?$allocator@D@2@@std@@Ullama_tensor_weight@llama_model_loader@@Uweight_name_comparer@4@V?$allocator@U?$pair@$$CBV?$basic_string@DU?$char_traits@D@std@@V?$allocator@D@2@@std@@Ullama_tensor_weight@llama_model_loader@@@std@@@2@@std@@QEAA@XZ
	??1?$map@W4ggml_type@@IU?$less@W4ggml_type@@@std@@V?$allocator@U?$pair@$$CBW4ggml_type@@I@std@@@3@@std@@QEAA@XZ
	??1?$map@W4llm_tensor@@PEBDU?$less@W4llm_tensor@@@std@@V?$allocator@U?$pair@$$CBW4llm_tensor@@PEBD@std@@@3@@std@@QEAA@XZ
	??1?$match_results@PEBDV?$allocator@V?$sub_match@PEBD@std@@@std@@@std@@QEAA@XZ
	??1?$match_results@PEB_WV?$allocator@V?$sub_match@PEB_W@std@@@std@@@std@@QEAA@XZ
	??1?$pair@$$CBEV?$basic_string@DU?$char_traits@D@std@@V?$allocator@D@2@@std@@@std@@QEAA@XZ
	??1?$pair@$$CBHV?$basic_string@DU?$char_traits@D@std@@V?$allocator@D@2@@std@@@std@@QEAA@XZ
	??1?$pair@$$CBIV?$basic_string@DU?$char_traits@D@std@@V?$allocator@D@2@@std@@@std@@QEAA@XZ
	??1?$pair@$$CBV?$basic_string@DU?$char_traits@D@std@@V?$allocator@D@2@@std@@H@std@@QEAA@XZ
	??1?$pair@$$CBV?$basic_string@DU?$char_traits@D@std@@V?$allocator@D@2@@std@@Ullama_model_kv_override@@@std@@QEAA@XZ
	??1?$pair@$$CBW4llm_arch@@V?$map@W4llm_tensor@@PEBDU?$less@W4llm_tensor@@@std@@V?$allocator@U?$pair@$$CBW4llm_tensor@@PEBD@std@@@3@@std@@@std@@QEAA@XZ
	??1?$pair@DUnaive_trie@@@std@@QEAA@XZ
	??1?$pair@V?$basic_string@DU?$char_traits@D@std@@V?$allocator@D@2@@std@@V12@@std@@QEAA@XZ
	??1?$pair@V?$vector@IV?$allocator@I@std@@@std@@Ullama_partial_utf8@@@std@@QEAA@XZ
	??1?$priority_queue@Ullm_bigram_spm@@V?$vector@Ullm_bigram_spm@@V?$allocator@Ullm_bigram_spm@@@std@@@std@@Ucomparator@1@@std@@QEAA@XZ
	??1?$regex_iterator@PEBDDV?$regex_traits@D@std@@@std@@QEAA@XZ
	??1?$regex_iterator@PEB_W_WV?$regex_traits@_W@std@@@std@@QEAA@XZ
	??1?$regex_traits@D@std@@QEAA@XZ
	??1?$regex_traits@_W@std@@QEAA@XZ
	??1?$ring_buffer@H@@QEAA@XZ
	??1?$shared_ptr@U_ExceptionHolder@details@Concurrency@@@std@@QEAA@XZ
	??1?$shared_ptr@U_Task_impl_base@details@Concurrency@@@std@@QEAA@XZ
	??1?$shared_ptr@Uscheduler_interface@Concurrency@@@std@@QEAA@XZ
	??1?$task@E@Concurrency@@QEAA@XZ
	??1?$task@X@Concurrency@@QEAA@XZ
	??1?$unique_lock@Vmutex@std@@@std@@QEAA@XZ
	??1?$unique_ptr@U_TaskProcHandle@details@Concurrency@@U?$default_delete@U_TaskProcHandle@details@Concurrency@@@std@@@std@@QEAA@XZ
	??1?$unique_ptr@Uggml_backend_buffer@@Uggml_backend_buffer_deleter@@@std@@QEAA@XZ
	??1?$unique_ptr@Uggml_context@@Uggml_context_deleter@@@std@@QEAA@XZ
	??1?$unique_ptr@Ugguf_context@@Ugguf_context_deleter@@@std@@QEAA@XZ
	??1?$unique_ptr@Ullama_mlock@@U?$default_delete@Ullama_mlock@@@std@@@std@@QEAA@XZ
	??1?$unique_ptr@Ullama_mmap@@U?$default_delete@Ullama_mmap@@@std@@@std@@QEAA@XZ
	??1?$unique_ptr@V_Facet_base@std@@U?$default_delete@V_Facet_base@std@@@2@@std@@QEAA@XZ
	??1?$unique_ptr@V_Node_assert@std@@U?$default_delete@V_Node_assert@std@@@2@@std@@QEAA@XZ
	??1?$unique_ptr@V_PPLTaskChore@_DefaultPPLTaskScheduler@details@Concurrency@@U?$default_delete@V_PPLTaskChore@_DefaultPPLTaskScheduler@details@Concurrency@@@std@@@std@@QEAA@XZ
	??1?$unordered_map@EV?$basic_string@DU?$char_traits@D@std@@V?$allocator@D@2@@std@@U?$hash@E@2@U?$equal_to@E@2@V?$allocator@U?$pair@$$CBEV?$basic_string@DU?$char_traits@D@std@@V?$allocator@D@2@@std@@@std@@@2@@std@@QEAA@XZ
	??1?$unordered_map@HHU?$hash@H@std@@U?$equal_to@H@2@V?$allocator@U?$pair@$$CBHH@std@@@2@@std@@QEAA@XZ
	??1?$unordered_map@IPEAUggml_backend_buffer@@U?$hash@I@std@@U?$equal_to@I@3@V?$allocator@U?$pair@$$CBIPEAUggml_backend_buffer@@@std@@@3@@std@@QEAA@XZ
	??1?$unordered_map@PEAUllama_lora_adapter@@MU?$hash@PEAUllama_lora_adapter@@@std@@U?$equal_to@PEAUllama_lora_adapter@@@3@V?$allocator@U?$pair@QEAUllama_lora_adapter@@M@std@@@3@@std@@QEAA@XZ
	??1?$unordered_map@V?$basic_string@DU?$char_traits@D@std@@V?$allocator@D@2@@std@@EU?$hash@V?$basic_string@DU?$char_traits@D@std@@V?$allocator@D@2@@std@@@2@U?$equal_to@V?$basic_string@DU?$char_traits@D@std@@V?$allocator@D@2@@std@@@2@V?$allocator@U?$pair@$$CBV?$basic_string@DU?$char_traits@D@std@@V?$allocator@D@2@@std@@E@std@@@2@@std@@QEAA@XZ
	??1?$unordered_map@V?$basic_string@DU?$char_traits@D@std@@V?$allocator@D@2@@std@@HU?$hash@V?$basic_string@DU?$char_traits@D@std@@V?$allocator@D@2@@std@@@2@U?$equal_to@V?$basic_string@DU?$char_traits@D@std@@V?$allocator@D@2@@std@@@2@V?$allocator@U?$pair@$$CBV?$basic_string@DU?$char_traits@D@std@@V?$allocator@D@2@@std@@H@std@@@2@@std@@QEAA@XZ
	??1?$unordered_map@V?$basic_string@DU?$char_traits@D@std@@V?$allocator@D@2@@std@@Ullama_lora_weight@@U?$hash@V?$basic_string@DU?$char_traits@D@std@@V?$allocator@D@2@@std@@@2@U?$equal_to@V?$basic_string@DU?$char_traits@D@std@@V?$allocator@D@2@@std@@@2@V?$allocator@U?$pair@$$CBV?$basic_string@DU?$char_traits@D@std@@V?$allocator@D@2@@std@@Ullama_lora_weight@@@std@@@2@@std@@QEAA@XZ
	??1?$unordered_map@V?$basic_string@DU?$char_traits@D@std@@V?$allocator@D@2@@std@@Ullama_model_kv_override@@U?$hash@V?$basic_string@DU?$char_traits@D@std@@V?$allocator@D@2@@std@@@2@U?$equal_to@V?$basic_string@DU?$char_traits@D@std@@V?$allocator@D@2@@std@@@2@V?$allocator@U?$pair@$$CBV?$basic_string@DU?$char_traits@D@std@@V?$allocator@D@2@@std@@Ullama_model_kv_override@@@std@@@2@@std@@QEAA@XZ
	??1?$unordered_map@V?$basic_string@DU?$char_traits@D@std@@V?$allocator@D@2@@std@@V12@U?$hash@V?$basic_string@DU?$char_traits@D@std@@V?$allocator@D@2@@std@@@2@U?$equal_to@V?$basic_string@DU?$char_traits@D@std@@V?$allocator@D@2@@std@@@2@V?$allocator@U?$pair@$$CBV?$basic_string@DU?$char_traits@D@std@@V?$allocator@D@2@@std@@V12@@std@@@2@@std@@QEAA@XZ
	??1?$unordered_multimap@HV?$vector@HV?$allocator@H@std@@@std@@U?$hash@H@2@U?$equal_to@H@2@V?$allocator@U?$pair@$$CBHV?$vector@HV?$allocator@H@std@@@std@@@std@@@2@@std@@QEAA@XZ
	??1?$vector@CV?$allocator@C@std@@@std@@QEAA@XZ
	??1?$vector@DV?$allocator@D@std@@@std@@QEAA@XZ
	??1?$vector@EV?$allocator@E@std@@@std@@QEAA@XZ
	??1?$vector@HV?$allocator@H@std@@@std@@QEAA@XZ
	??1?$vector@IV?$allocator@I@std@@@std@@QEAA@XZ
	??1?$vector@MV?$allocator@M@std@@@std@@QEAA@XZ
	??1?$vector@NV?$allocator@N@std@@@std@@QEAA@XZ
	??1?$vector@PEAHV?$allocator@PEAH@std@@@std@@QEAA@XZ
	??1?$vector@PEAUggml_backend_buffer@@V?$allocator@PEAUggml_backend_buffer@@@std@@@std@@QEAA@XZ
	??1?$vector@PEAUggml_backend_device@@V?$allocator@PEAUggml_backend_device@@@std@@@std@@QEAA@XZ
	??1?$vector@PEAUggml_backend_event@@V?$allocator@PEAUggml_backend_event@@@std@@@std@@QEAA@XZ
	??1?$vector@PEAUllama_token_data@@V?$allocator@PEAUllama_token_data@@@std@@@std@@QEAA@XZ
	??1?$vector@PEAXV?$allocator@PEAX@std@@@std@@QEAA@XZ
	??1?$vector@PEBUllama_grammar_element@@V?$allocator@PEBUllama_grammar_element@@@std@@@std@@QEAA@XZ
	??1?$vector@PEBUllama_tensor_weight@llama_model_loader@@V?$allocator@PEBUllama_tensor_weight@llama_model_loader@@@std@@@std@@QEAA@XZ
	??1?$vector@U?$no_init@E@@V?$allocator@U?$no_init@E@@@std@@@std@@QEAA@XZ
	??1?$vector@U?$no_init@M@@V?$allocator@U?$no_init@M@@@std@@@std@@QEAA@XZ
	??1?$vector@U?$pair@II@std@@V?$allocator@U?$pair@II@std@@@2@@std@@QEAA@XZ
	??1?$vector@U?$pair@PEAUggml_backend@@P6AXPEAU1@H@Z@std@@V?$allocator@U?$pair@PEAUggml_backend@@P6AXPEAU1@H@Z@std@@@2@@std@@QEAA@XZ
	??1?$vector@U?$pair@PEAUggml_backend_device@@PEAUggml_backend_buffer_type@@@std@@V?$allocator@U?$pair@PEAUggml_backend_device@@PEAUggml_backend_buffer_type@@@std@@@2@@std@@QEAA@XZ
	??1?$vector@U?$pair@PEAUggml_context@@V?$unordered_map@IPEAUggml_backend_buffer@@U?$hash@I@std@@U?$equal_to@I@3@V?$allocator@U?$pair@$$CBIPEAUggml_backend_buffer@@@std@@@3@@std@@@std@@V?$allocator@U?$pair@PEAUggml_context@@V?$unordered_map@IPEAUggml_backend_buffer@@U?$hash@I@std@@U?$equal_to@I@3@V?$allocator@U?$pair@$$CBIPEAUggml_backend_buffer@@@std@@@3@@std@@@std@@@2@@std@@QEAA@XZ
	??1?$vector@U?$pair@V?$basic_string@DU?$char_traits@D@std@@V?$allocator@D@2@@std@@PEAUggml_tensor@@@std@@V?$allocator@U?$pair@V?$basic_string@DU?$char_traits@D@std@@V?$allocator@D@2@@std@@PEAUggml_tensor@@@std@@@2@@std@@QEAA@XZ
	??1?$vector@U?$pair@V?$vector@IV?$allocator@I@std@@@std@@Ullama_partial_utf8@@@std@@V?$allocator@U?$pair@V?$vector@IV?$allocator@I@std@@@std@@Ullama_partial_utf8@@@std@@@2@@std@@QEAA@XZ
	??1?$vector@U?$pair@W4llm_kv@@AEAH@std@@V?$allocator@U?$pair@W4llm_kv@@AEAH@std@@@2@@std@@QEAA@XZ
	??1?$vector@U?$pair@_K_K@std@@V?$allocator@U?$pair@_K_K@std@@@2@@std@@QEAA@XZ
	??1?$vector@U_Loop_vals_t@std@@V?$allocator@U_Loop_vals_t@std@@@2@@std@@QEAA@XZ
	??1?$vector@Ubest_tokenization@llm_tokenizer_ugm_session@@V?$allocator@Ubest_tokenization@llm_tokenizer_ugm_session@@@std@@@std@@QEAA@XZ
	??1?$vector@Ulayer_dev@llama_model@@V?$allocator@Ulayer_dev@llama_model@@@std@@@std@@QEAA@XZ
	??1?$vector@Ullama_grammar_candidate@@V?$allocator@Ullama_grammar_candidate@@@std@@@std@@QEAA@XZ
	??1?$vector@Ullama_grammar_element@@V?$allocator@Ullama_grammar_element@@@std@@@std@@QEAA@XZ
	??1?$vector@Ullama_kv_cell@@V?$allocator@Ullama_kv_cell@@@std@@@std@@QEAA@XZ
	??1?$vector@Ullama_layer@@V?$allocator@Ullama_layer@@@std@@@std@@QEAA@XZ
	??1?$vector@Ullama_token_data@@V?$allocator@Ullama_token_data@@@std@@@std@@QEAA@XZ
	??1?$vector@Ullm_bigram_spm@@V?$allocator@Ullm_bigram_spm@@@std@@@std@@QEAA@XZ
	??1?$vector@Ullm_symbol@@V?$allocator@Ullm_symbol@@@std@@@std@@QEAA@XZ
	??1?$vector@Utoken_data@llama_vocab@@V?$allocator@Utoken_data@llama_vocab@@@std@@@std@@QEAA@XZ
	??1?$vector@V?$basic_string@DU?$char_traits@D@std@@V?$allocator@D@2@@std@@V?$allocator@V?$basic_string@DU?$char_traits@D@std@@V?$allocator@D@2@@std@@@2@@std@@QEAA@XZ
	??1?$vector@V?$future@U?$pair@PEAUggml_tensor@@_N@std@@@std@@V?$allocator@V?$future@U?$pair@PEAUggml_tensor@@_N@std@@@std@@@2@@std@@QEAA@XZ
	??1?$vector@V?$set@HU?$less@H@std@@V?$allocator@H@2@@std@@V?$allocator@V?$set@HU?$less@H@std@@V?$allocator@H@2@@std@@@2@@std@@QEAA@XZ
	??1?$vector@V?$unique_ptr@Uggml_backend@@Uggml_backend_deleter@@@std@@V?$allocator@V?$unique_ptr@Uggml_backend@@Uggml_backend_deleter@@@std@@@2@@std@@QEAA@XZ
	??1?$vector@V?$unique_ptr@Uggml_backend_buffer@@Uggml_backend_buffer_deleter@@@std@@V?$allocator@V?$unique_ptr@Uggml_backend_buffer@@Uggml_backend_buffer_deleter@@@std@@@2@@std@@QEAA@XZ
	??1?$vector@V?$unique_ptr@Uggml_context@@Uggml_context_deleter@@@std@@V?$allocator@V?$unique_ptr@Uggml_context@@Uggml_context_deleter@@@std@@@2@@std@@QEAA@XZ
	??1?$vector@V?$unique_ptr@Ugguf_context@@Ugguf_context_deleter@@@std@@V?$allocator@V?$unique_ptr@Ugguf_context@@Ugguf_context_deleter@@@std@@@2@@std@@QEAA@XZ
	??1?$vector@V?$unique_ptr@Ullama_file@@U?$default_delete@Ullama_file@@@std@@@std@@V?$allocator@V?$unique_ptr@Ullama_file@@U?$default_delete@Ullama_file@@@std@@@std@@@2@@std@@QEAA@XZ
	??1?$vector@V?$unique_ptr@Ullama_mlock@@U?$default_delete@Ullama_mlock@@@std@@@std@@V?$allocator@V?$unique_ptr@Ullama_mlock@@U?$default_delete@Ullama_mlock@@@std@@@std@@@2@@std@@QEAA@XZ
	??1?$vector@V?$unique_ptr@Ullama_mmap@@U?$default_delete@Ullama_mmap@@@std@@@std@@V?$allocator@V?$unique_ptr@Ullama_mmap@@U?$default_delete@Ullama_mmap@@@std@@@std@@@2@@std@@QEAA@XZ
	??1?$vector@V?$vector@PEBUllama_grammar_element@@V?$allocator@PEBUllama_grammar_element@@@std@@@std@@V?$allocator@V?$vector@PEBUllama_grammar_element@@V?$allocator@PEBUllama_grammar_element@@@std@@@std@@@2@@std@@QEAA@XZ
	??1?$vector@V?$vector@Ullama_grammar_element@@V?$allocator@Ullama_grammar_element@@@std@@@std@@V?$allocator@V?$vector@Ullama_grammar_element@@V?$allocator@Ullama_grammar_element@@@std@@@std@@@2@@std@@QEAA@XZ
	??1?$vector@Vthread@std@@V?$allocator@Vthread@std@@@2@@std@@QEAA@XZ
	??1?$vector@_JV?$allocator@_J@std@@@std@@QEAA@XZ
	??1?$vector@_KV?$allocator@_K@std@@@std@@QEAA@XZ
	??1?$vector@_NV?$allocator@_N@std@@@std@@QEAA@XZ
	??1?$vector@_WV?$allocator@_W@std@@@std@@QEAA@XZ
	??1?$weak_ptr@U_Task_impl_base@details@Concurrency@@@std@@QEAA@XZ
	??1?$wstring_convert@V?$codecvt_utf8@_W$0BAPPPP@$0A@@std@@_WV?$allocator@_W@2@V?$allocator@D@2@@std@@UEAA@XZ
	??1_CancellationTokenRegistration@details@Concurrency@@MEAA@XZ
	??1_Clear_guard@?$_Hash@V?$_Umap_traits@HHV?$_Uhash_compare@HU?$hash@H@std@@U?$equal_to@H@2@@std@@V?$allocator@U?$pair@$$CBHH@std@@@2@$0A@@std@@@std@@QEAA@XZ
	??1_Clear_guard@?$_Hash@V?$_Umap_traits@HV?$vector@HV?$allocator@H@std@@@std@@V?$_Uhash_compare@HU?$hash@H@std@@U?$equal_to@H@2@@2@V?$allocator@U?$pair@$$CBHV?$vector@HV?$allocator@H@std@@@std@@@std@@@2@$00@std@@@std@@QEAA@XZ
	??1_ContextCallback@details@Concurrency@@QEAA@XZ
	??1_ExceptionHolder@details@Concurrency@@QEAA@XZ
	??1_Guard_type@?1???$_Global_new@V?$_Func_impl_no_alloc@V<lambda_052e919cc0e5399df76dff3972c0cac1>@@E$$V@std@@AEBV<lambda_052e919cc0e5399df76dff3972c0cac1>@@@std@@YAPEAV?$_Func_impl_no_alloc@V<lambda_052e919cc0e5399df76dff3972c0cac1>@@E$$V@1@AEBV<lambda_052e919cc0e5399df76dff3972c0cac1>@@@Z@QEAA@XZ
	??1_Guard_type@?1???$_Global_new@V?$_Func_impl_no_alloc@V<lambda_052e919cc0e5399df76dff3972c0cac1>@@E$$V@std@@V<lambda_052e919cc0e5399df76dff3972c0cac1>@@@std@@YAPEAV?$_Func_impl_no_alloc@V<lambda_052e919cc0e5399df76dff3972c0cac1>@@E$$V@1@$$QEAV<lambda_052e919cc0e5399df76dff3972c0cac1>@@@Z@QEAA@XZ
	??1_Holder@_TaskProcThunk@details@Concurrency@@QEAA@XZ
	??1_Node_base@std@@UEAA@XZ
	??1_RefCounter@details@Concurrency@@UEAA@XZ
	??1_Ref_count_base@std@@UEAA@XZ
	??1_Sentry_base@?$basic_ostream@DU?$char_traits@D@std@@@std@@QEAA@XZ
	??1_TaskCreationCallstack@details@Concurrency@@QEAA@XZ
	??1_TaskProcHandle@details@Concurrency@@UEAA@XZ
	??1_TaskWorkItemRAIILogger@details@Concurrency@@QEAA@XZ
	??1_Task_impl_base@details@Concurrency@@UEAA@XZ
	??1bad_array_new_length@std@@UEAA@XZ
	??1bad_cast@std@@UEAA@XZ
	??1cancellation_token@Concurrency@@QEAA@XZ
	??1error_category@std@@UEAA@XZ
	??1exception@std@@UEAA@XZ
	??1exception_ptr@std@@QEAA@XZ
	??1future_error@std@@UEAA@XZ
	??1invalid_argument@std@@UEAA@XZ
	??1invalid_operation@Concurrency@@UEAA@XZ
	??1llama_batch_allocr@@QEAA@XZ
	??1llama_context@@QEAA@XZ
	??1llama_control_vector@@QEAA@XZ
	??1llama_data_read@@UEAA@XZ
	??1llama_data_read_file@@UEAA@XZ
	??1llama_data_write@@UEAA@XZ
	??1llama_data_write_file@@UEAA@XZ
	??1llama_file@@QEAA@XZ
	??1llama_grammar_parser@@QEAA@XZ
	??1llama_kv_cache@@QEAA@XZ
	??1llama_kv_slot_restorer@@QEAA@XZ
	??1llama_model@@QEAA@XZ
	??1llama_model_loader@@QEAA@XZ
	??1llama_sampler_grammar@@QEAA@XZ
	??1llama_sbatch@@QEAA@XZ
	??1llama_vocab@@QEAA@XZ
	??1llm_bigram_bpe@@QEAA@XZ
	??1llm_tokenizer@@UEAA@XZ
	??1llm_tokenizer_bpe_session@@QEAA@XZ
	??1llm_tokenizer_spm_session@@QEAA@XZ
	??1locale@std@@QEAA@XZ
	??1naive_trie@@QEAA@XZ
	??1range_error@std@@UEAA@XZ
	??1runtime_error@std@@UEAA@XZ
	??1scheduler_ptr@Concurrency@@QEAA@XZ
	??1sentry@?$basic_ostream@DU?$char_traits@D@std@@@std@@QEAA@XZ
	??1system_error@std@@UEAA@XZ
	??1task_options@Concurrency@@QEAA@XZ
	??2@YAPEAX_KPEAX@Z
	??4?$_Hash@V?$_Umap_traits@HHV?$_Uhash_compare@HU?$hash@H@std@@U?$equal_to@H@2@@std@@V?$allocator@U?$pair@$$CBHH@std@@@2@$0A@@std@@@std@@QEAAAEAV01@AEBV01@@Z
	??4?$_Tgt_state_t@PEBD@std@@QEAAAEAV01@AEBV01@@Z
	??4?$_Tgt_state_t@PEB_W@std@@QEAAAEAV01@AEBV01@@Z
	??4?$basic_string@DU?$char_traits@D@std@@V?$allocator@D@2@@std@@QEAAAEAV01@$$QEAV01@@Z
	??4?$shared_ptr@U?$_Task_impl@E@details@Concurrency@@@std@@QEAAAEAV01@$$QEAV01@@Z
	??4?$vector@HV?$allocator@H@std@@@std@@QEAAAEAV01@AEBV01@@Z
	??4?$vector@U?$pair@PEAUggml_backend_device@@PEAUggml_backend_buffer_type@@@std@@V?$allocator@U?$pair@PEAUggml_backend_device@@PEAUggml_backend_buffer_type@@@std@@@2@@std@@QEAAAEAV01@$$QEAV01@@Z
	??A?$map@HV?$vector@MV?$allocator@M@std@@@std@@U?$less@H@2@V?$allocator@U?$pair@$$CBHV?$vector@MV?$allocator@M@std@@@std@@@std@@@2@@std@@QEAAAEAV?$vector@MV?$allocator@M@std@@@1@AEBH@Z
	??A?$map@PEAUggml_backend_buffer_type@@PEAUggml_context@@U?$less@PEAUggml_backend_buffer_type@@@std@@V?$allocator@U?$pair@QEAUggml_backend_buffer_type@@PEAUggml_context@@@std@@@4@@std@@QEAAAEAPEAUggml_context@@AEBQEAUggml_backend_buffer_type@@@Z
	??A?$map@V?$basic_string@DU?$char_traits@D@std@@V?$allocator@D@2@@std@@Ullama_lora_weight@@U?$less@V?$basic_string@DU?$char_traits@D@std@@V?$allocator@D@2@@std@@@2@V?$allocator@U?$pair@$$CBV?$basic_string@DU?$char_traits@D@std@@V?$allocator@D@2@@std@@Ullama_lora_weight@@@std@@@2@@std@@QEAAAEAUllama_lora_weight@@AEBV?$basic_string@DU?$char_traits@D@std@@V?$allocator@D@2@@1@@Z
	??B?$atomic@J@std@@QEBAJXZ
	??C?$_List_const_iterator@V?$_List_val@U?$_List_simple_types@U?$pair@$$CBV?$basic_string@DU?$char_traits@D@std@@V?$allocator@D@2@@std@@V?$vector@MV?$allocator@M@std@@@2@@std@@@std@@@std@@@std@@QEBAPEBU?$pair@$$CBV?$basic_string@DU?$char_traits@D@std@@V?$allocator@D@2@@std@@V?$vector@MV?$allocator@M@std@@@2@@1@XZ
	??E?$_Tree_unchecked_const_iterator@V?$_Tree_val@U?$_Tree_simple_types@U?$pair@$$CBV?$basic_string@DU?$char_traits@D@std@@V?$allocator@D@2@@std@@H@std@@@std@@@std@@U_Iterator_base0@2@@std@@QEAAAEAV01@XZ
	??E?$_Tree_unchecked_const_iterator@V?$_Tree_val@U?$_Tree_simple_types@U?$pair@$$CBW4llama_rope_scaling_type@@PEBD@std@@@std@@@std@@U_Iterator_base0@2@@std@@QEAAAEAV01@XZ
	??E?$_Tree_unchecked_const_iterator@V?$_Tree_val@U?$_Tree_simple_types@U?$pair@$$CBW4llm_arch@@PEBD@std@@@std@@@std@@U_Iterator_base0@2@@std@@QEAAAEAV01@XZ
	??H?$_Vb_iterator@U?$_Wrap_alloc@V?$allocator@I@std@@@std@@@std@@QEBA?AV01@_J@Z
	??R<lambda_0e64988457575224279dcb6d61e61bdd>@@QEBA@XZ
	??R<lambda_2fa3e3d11fb97352afa77a4a13bfb543>@@QEBA@XZ
	??R<lambda_599776d2e896321baf21ade0885a88bc>@@QEBAPEAUggml_backend@@PEBD@Z
	??R<lambda_dbe0312d54f1cfd9e2926868c057ca79>@@QEBA@_K0@Z
	??R?$less@V?$basic_string@DU?$char_traits@D@std@@V?$allocator@D@2@@std@@@std@@QEBA_NAEBV?$basic_string@DU?$char_traits@D@std@@V?$allocator@D@2@@1@0@Z
	??R?$mersenne_twister@I$0CA@$0CHA@$0BIN@$0BP@$0JJAILANP@$0L@$06$0JNCMFGIA@$0P@$0OPMGAAAA@$0BC@@std@@QEAAIXZ
	??RLLM_KV@@QEBA?AV?$basic_string@DU?$char_traits@D@std@@V?$allocator@D@2@@std@@W4llm_kv@@@Z
	??RLLM_TN@@QEBA?AULLM_TN_IMPL@@W4llm_tensor@@HH@Z
	??RLLM_TN@@QEBA?AULLM_TN_IMPL@@W4llm_tensor@@PEBDHH@Z
	??Rweight_name_comparer@llama_model_loader@@QEBA_NAEBV?$basic_string@DU?$char_traits@D@std@@V?$allocator@D@2@@std@@0@Z
	??_7?$_Associated_state@U?$pair@PEAUggml_tensor@@_N@std@@@std@@6B@
	??_7?$_CancellationTokenCallback@V<lambda_be3e5d9dce35d2c8dbfa8485373731d5>@@@details@Concurrency@@6B@
	??_7?$_Deferred_async_state@U?$pair@PEAUggml_tensor@@_N@std@@@std@@6B@
	??_7?$_Func_impl_no_alloc@V<lambda_052e919cc0e5399df76dff3972c0cac1>@@E$$V@std@@6B@
	??_7?$_Func_impl_no_alloc@V<lambda_2fa3e3d11fb97352afa77a4a13bfb543>@@X$$V@std@@6B@
	??_7?$_Func_impl_no_alloc@V<lambda_61d324d6c6ae299623b0a01e4b2f6764>@@X$$V@std@@6B@
	??_7?$_Func_impl_no_alloc@V<lambda_763529b0c7473cbc215a52d189ac9b18>@@X$$V@std@@6B@
	??_7?$_Func_impl_no_alloc@V<lambda_f25c37099038263181b5186a3fa41b37>@@X$$V@std@@6B@
	??_7?$_Func_impl_no_alloc@V<lambda_f7036c9a115536b365ca4544394c825b>@@X$$V@std@@6B@
	??_7?$_Func_impl_no_alloc@V?$_Fake_no_copy_callable_adapter@V<lambda_3f39357f5ebcd3550b555fa53c33d10a>@@@std@@U?$pair@PEAUggml_tensor@@_N@2@$$V@std@@6B@
	??_7?$_Func_impl_no_alloc@V?$_Fake_no_copy_callable_adapter@V<lambda_e3b97c3ad3d076d7964efd5d963695f6>@@@std@@U?$pair@PEAUggml_tensor@@_N@2@$$V@std@@6B@
	??_7?$_InitialTaskHandle@XV<lambda_61d324d6c6ae299623b0a01e4b2f6764>@@U_TypeSelectorNoAsync@details@Concurrency@@@?$task@E@Concurrency@@6B@
	??_7?$_InitialTaskHandle@XV<lambda_f7036c9a115536b365ca4544394c825b>@@U_TypeSelectorNoAsync@details@Concurrency@@@?$task@E@Concurrency@@6B@
	??_7?$_Node_class@DV?$regex_traits@D@std@@@std@@6B@
	??_7?$_Node_class@_WV?$regex_traits@_W@std@@@std@@6B@
	??_7?$_Node_str@D@std@@6B@
	??_7?$_Node_str@_W@std@@6B@
	??_7?$_PPLTaskHandle@EU?$_InitialTaskHandle@XV<lambda_61d324d6c6ae299623b0a01e4b2f6764>@@U_TypeSelectorNoAsync@details@Concurrency@@@?$task@E@Concurrency@@U_TaskProcHandle@details@3@@details@Concurrency@@6B@
	??_7?$_PPLTaskHandle@EU?$_InitialTaskHandle@XV<lambda_f7036c9a115536b365ca4544394c825b>@@U_TypeSelectorNoAsync@details@Concurrency@@@?$task@E@Concurrency@@U_TaskProcHandle@details@3@@details@Concurrency@@6B@
	??_7?$_Packaged_state@$$A6A?AU?$pair@PEAUggml_tensor@@_N@std@@XZ@std@@6B@
	??_7?$_Ref_count_obj2@U?$_Task_impl@E@details@Concurrency@@@std@@6B@
	??_7?$_Ref_count_obj2@U_ExceptionHolder@details@Concurrency@@@std@@6B@
	??_7?$_Task_async_state@U?$pair@PEAUggml_tensor@@_N@std@@@std@@6B@
	??_7?$_Task_impl@E@details@Concurrency@@6B@
	??_7?$basic_filebuf@DU?$char_traits@D@std@@@std@@6B@
	??_7?$basic_ofstream@DU?$char_traits@D@std@@@std@@6B@
	??_7?$basic_stringbuf@DU?$char_traits@D@std@@V?$allocator@D@2@@std@@6B@
	??_7?$basic_stringstream@DU?$char_traits@D@std@@V?$allocator@D@2@@std@@6B@
	??_7?$codecvt_utf8@_W$0BAPPPP@$0A@@std@@6B@
	??_7?$collate@D@std@@6B@
	??_7?$collate@_W@std@@6B@
	??_7?$wstring_convert@V?$codecvt_utf8@_W$0BAPPPP@$0A@@std@@_WV?$allocator@_W@2@V?$allocator@D@2@@std@@6B@
	??_7_CancellationTokenRegistration@details@Concurrency@@6B@
	??_7_DefaultPPLTaskScheduler@details@Concurrency@@6B@
	??_7_Future_error_category2@std@@6B@
	??_7_Generic_error_category@std@@6B@
	??_7_Node_assert@std@@6B@
	??_7_Node_back@std@@6B@
	??_7_Node_base@std@@6B@
	??_7_Node_capture@std@@6B@
	??_7_Node_end_group@std@@6B@
	??_7_Node_end_rep@std@@6B@
	??_7_Node_endif@std@@6B@
	??_7_Node_if@std@@6B@
	??_7_Node_rep@std@@6B@
	??_7_RefCounter@details@Concurrency@@6B@
	??_7_Root_node@std@@6B@
	??_7_System_error@std@@6B@
	??_7_TaskProcHandle@details@Concurrency@@6B@
	??_7_Task_impl_base@details@Concurrency@@6B@
	??_7bad_alloc@std@@6B@
	??_7bad_array_new_length@std@@6B@
	??_7bad_cast@std@@6B@
	??_7exception@std@@6B@
	??_7future_error@std@@6B@
	??_7invalid_argument@std@@6B@
	??_7invalid_operation@Concurrency@@6B@
	??_7llama_data_read@@6B@
	??_7llama_data_read_buffer@@6B@
	??_7llama_data_read_file@@6B@
	??_7llama_data_write@@6B@
	??_7llama_data_write_buffer@@6B@
	??_7llama_data_write_dummy@@6B@
	??_7llama_data_write_file@@6B@
	??_7llm_tokenizer@@6B@
	??_7llm_tokenizer_bpe@@6B@
	??_7llm_tokenizer_rwkv@@6B@
	??_7llm_tokenizer_spm@@6B@
	??_7llm_tokenizer_ugm@@6B@
	??_7llm_tokenizer_wpm@@6B@
	??_7logic_error@std@@6B@
	??_7range_error@std@@6B@
	??_7runtime_error@std@@6B@
	??_7system_error@std@@6B@
	??_D?$basic_ofstream@DU?$char_traits@D@std@@@std@@QEAAXXZ
	??_D?$basic_stringstream@DU?$char_traits@D@std@@V?$allocator@D@2@@std@@QEAAXXZ
	??__F_S_scheduler@?1??_GetStaticAmbientSchedulerStorage@details@Concurrency@@YAPEAV?$shared_ptr@Uscheduler_interface@Concurrency@@@std@@XZ@YAXXZ
	?GetErrorMessageWin32@llama_file@@AEBA?AV?$basic_string@DU?$char_traits@D@std@@V?$allocator@D@2@@std@@K@Z
	?_Add_backreference@?$_Builder@PEBDDV?$regex_traits@D@std@@@std@@QEAAXI@Z
	?_Add_backreference@?$_Builder@PEB_W_WV?$regex_traits@_W@std@@@std@@QEAAXI@Z
	?_Add_bol@?$_Builder@PEBDDV?$regex_traits@D@std@@@std@@QEAAXXZ
	?_Add_bol@?$_Builder@PEB_W_WV?$regex_traits@_W@std@@@std@@QEAAXXZ
	?_Add_char@?$_Builder@PEBDDV?$regex_traits@D@std@@@std@@QEAAXD@Z
	?_Add_char@?$_Builder@PEB_W_WV?$regex_traits@_W@std@@@std@@QEAAX_W@Z
	?_Add_char_to_array@?$_Builder@PEBDDV?$regex_traits@D@std@@@std@@AEAAXD@Z
	?_Add_char_to_array@?$_Builder@PEB_W_WV?$regex_traits@_W@std@@@std@@AEAAX_W@Z
	?_Add_char_to_bitmap@?$_Builder@PEBDDV?$regex_traits@D@std@@@std@@AEAAXD@Z
	?_Add_char_to_bitmap@?$_Builder@PEB_W_WV?$regex_traits@_W@std@@@std@@AEAAX_W@Z
	?_Add_char_to_class@?$_Builder@PEBDDV?$regex_traits@D@std@@@std@@QEAAXD@Z
	?_Add_char_to_class@?$_Builder@PEB_W_WV?$regex_traits@_W@std@@@std@@QEAAX_W@Z
	?_Add_class@?$_Builder@PEBDDV?$regex_traits@D@std@@@std@@QEAAXXZ
	?_Add_class@?$_Builder@PEB_W_WV?$regex_traits@_W@std@@@std@@QEAAXXZ
	?_Add_coll@?$_Builder@PEBDDV?$regex_traits@D@std@@@std@@QEAAXPEBD0_J@Z
	?_Add_coll@?$_Builder@PEB_W_WV?$regex_traits@_W@std@@@std@@QEAAXPEB_W0_J@Z
	?_Add_dot@?$_Builder@PEBDDV?$regex_traits@D@std@@@std@@QEAAXXZ
	?_Add_dot@?$_Builder@PEB_W_WV?$regex_traits@_W@std@@@std@@QEAAXXZ
	?_Add_elts@?$_Builder@PEBDDV?$regex_traits@D@std@@@std@@AEAAXPEAV?$_Node_class@DV?$regex_traits@D@std@@@2@F_N@Z
	?_Add_elts@?$_Builder@PEB_W_WV?$regex_traits@_W@std@@@std@@AEAAXPEAV?$_Node_class@_WV?$regex_traits@_W@std@@@2@F_N@Z
	?_Add_eol@?$_Builder@PEBDDV?$regex_traits@D@std@@@std@@QEAAXXZ
	?_Add_eol@?$_Builder@PEB_W_WV?$regex_traits@_W@std@@@std@@QEAAXXZ
	?_Add_equiv@?$_Builder@PEBDDV?$regex_traits@D@std@@@std@@QEAAXPEBD0_J@Z
	?_Add_equiv@?$_Builder@PEB_W_WV?$regex_traits@_W@std@@@std@@QEAAXPEB_W0_J@Z
	?_Add_named_class@?$_Builder@PEBDDV?$regex_traits@D@std@@@std@@QEAAXF_N@Z
	?_Add_named_class@?$_Builder@PEB_W_WV?$regex_traits@_W@std@@@std@@QEAAXF_N@Z
	?_Add_range@?$_Builder@PEBDDV?$regex_traits@D@std@@@std@@QEAAXDD@Z
	?_Add_range@?$_Builder@PEB_W_WV?$regex_traits@_W@std@@@std@@QEAAX_W0@Z
	?_Add_rep@?$_Builder@PEBDDV?$regex_traits@D@std@@@std@@QEAAXHH_N@Z
	?_Add_rep@?$_Builder@PEB_W_WV?$regex_traits@_W@std@@@std@@QEAAXHH_N@Z
	?_Add_str_node@?$_Builder@PEBDDV?$regex_traits@D@std@@@std@@AEAAXXZ
	?_Add_str_node@?$_Builder@PEB_W_WV?$regex_traits@_W@std@@@std@@AEAAXXZ
	?_Add_wbound@?$_Builder@PEBDDV?$regex_traits@D@std@@@std@@QEAAXXZ
	?_Add_wbound@?$_Builder@PEB_W_WV?$regex_traits@_W@std@@@std@@QEAAXXZ
	?_Alternative@?$_Parser@PEBDDV?$regex_traits@D@std@@@std@@AEAA_NXZ
	?_Alternative@?$_Parser@PEB_W_WV?$regex_traits@_W@std@@@std@@AEAA_NXZ
	?_Assign_grow@?$_Hash_vec@V?$allocator@V?$_List_unchecked_const_iterator@V?$_List_val@U?$_List_simple_types@I@std@@@std@@U_Iterator_base0@2@@std@@@std@@@std@@QEAAX_KV?$_List_unchecked_const_iterator@V?$_List_val@U?$_List_simple_types@I@std@@@std@@U_Iterator_base0@2@@2@@Z
	?_Assign_grow@?$_Hash_vec@V?$allocator@V?$_List_unchecked_iterator@V?$_List_val@U?$_List_simple_types@U?$pair@$$CBEV?$basic_string@DU?$char_traits@D@std@@V?$allocator@D@2@@std@@@std@@@std@@@std@@@std@@@std@@@std@@QEAAX_KV?$_List_unchecked_iterator@V?$_List_val@U?$_List_simple_types@U?$pair@$$CBEV?$basic_string@DU?$char_traits@D@std@@V?$allocator@D@2@@std@@@std@@@std@@@std@@@2@@Z
	?_Assign_grow@?$_Hash_vec@V?$allocator@V?$_List_unchecked_iterator@V?$_List_val@U?$_List_simple_types@U?$pair@$$CBHH@std@@@std@@@std@@@std@@@std@@@std@@QEAAX_KV?$_List_unchecked_iterator@V?$_List_val@U?$_List_simple_types@U?$pair@$$CBHH@std@@@std@@@std@@@2@@Z
	?_Assign_grow@?$_Hash_vec@V?$allocator@V?$_List_unchecked_iterator@V?$_List_val@U?$_List_simple_types@U?$pair@$$CBHV?$vector@HV?$allocator@H@std@@@std@@@std@@@std@@@std@@@std@@@std@@@std@@QEAAX_KV?$_List_unchecked_iterator@V?$_List_val@U?$_List_simple_types@U?$pair@$$CBHV?$vector@HV?$allocator@H@std@@@std@@@std@@@std@@@std@@@2@@Z
	?_Assign_grow@?$_Hash_vec@V?$allocator@V?$_List_unchecked_iterator@V?$_List_val@U?$_List_simple_types@U?$pair@$$CBIPEAUggml_backend_buffer@@@std@@@std@@@std@@@std@@@std@@@std@@QEAAX_KV?$_List_unchecked_iterator@V?$_List_val@U?$_List_simple_types@U?$pair@$$CBIPEAUggml_backend_buffer@@@std@@@std@@@std@@@2@@Z
	?_Assign_grow@?$_Hash_vec@V?$allocator@V?$_List_unchecked_iterator@V?$_List_val@U?$_List_simple_types@U?$pair@$$CBV?$basic_string@DU?$char_traits@D@std@@V?$allocator@D@2@@std@@E@std@@@std@@@std@@@std@@@std@@@std@@QEAAX_KV?$_List_unchecked_iterator@V?$_List_val@U?$_List_simple_types@U?$pair@$$CBV?$basic_string@DU?$char_traits@D@std@@V?$allocator@D@2@@std@@E@std@@@std@@@std@@@2@@Z
	?_Assign_grow@?$_Hash_vec@V?$allocator@V?$_List_unchecked_iterator@V?$_List_val@U?$_List_simple_types@U?$pair@$$CBV?$basic_string@DU?$char_traits@D@std@@V?$allocator@D@2@@std@@H@std@@@std@@@std@@@std@@@std@@@std@@QEAAX_KV?$_List_unchecked_iterator@V?$_List_val@U?$_List_simple_types@U?$pair@$$CBV?$basic_string@DU?$char_traits@D@std@@V?$allocator@D@2@@std@@H@std@@@std@@@std@@@2@@Z
	?_Assign_grow@?$_Hash_vec@V?$allocator@V?$_List_unchecked_iterator@V?$_List_val@U?$_List_simple_types@U?$pair@$$CBV?$basic_string@DU?$char_traits@D@std@@V?$allocator@D@2@@std@@Ullama_lora_weight@@@std@@@std@@@std@@@std@@@std@@@std@@QEAAX_KV?$_List_unchecked_iterator@V?$_List_val@U?$_List_simple_types@U?$pair@$$CBV?$basic_string@DU?$char_traits@D@std@@V?$allocator@D@2@@std@@Ullama_lora_weight@@@std@@@std@@@std@@@2@@Z
	?_Assign_grow@?$_Hash_vec@V?$allocator@V?$_List_unchecked_iterator@V?$_List_val@U?$_List_simple_types@U?$pair@$$CBV?$basic_string@DU?$char_traits@D@std@@V?$allocator@D@2@@std@@Ullama_model_kv_override@@@std@@@std@@@std@@@std@@@std@@@std@@QEAAX_KV?$_List_unchecked_iterator@V?$_List_val@U?$_List_simple_types@U?$pair@$$CBV?$basic_string@DU?$char_traits@D@std@@V?$allocator@D@2@@std@@Ullama_model_kv_override@@@std@@@std@@@std@@@2@@Z
	?_Assign_grow@?$_Hash_vec@V?$allocator@V?$_List_unchecked_iterator@V?$_List_val@U?$_List_simple_types@U?$pair@$$CBV?$basic_string@DU?$char_traits@D@std@@V?$allocator@D@2@@std@@V12@@std@@@std@@@std@@@std@@@std@@@std@@QEAAX_KV?$_List_unchecked_iterator@V?$_List_val@U?$_List_simple_types@U?$pair@$$CBV?$basic_string@DU?$char_traits@D@std@@V?$allocator@D@2@@std@@V12@@std@@@std@@@std@@@2@@Z
	?_Assign_grow@?$_Hash_vec@V?$allocator@V?$_List_unchecked_iterator@V?$_List_val@U?$_List_simple_types@U?$pair@QEAUllama_lora_adapter@@M@std@@@std@@@std@@@std@@@std@@@std@@QEAAX_KV?$_List_unchecked_iterator@V?$_List_val@U?$_List_simple_types@U?$pair@QEAUllama_lora_adapter@@M@std@@@std@@@std@@@2@@Z
	?_AtomEscape@?$_Parser@PEBDDV?$regex_traits@D@std@@@std@@AEAAXXZ
	?_AtomEscape@?$_Parser@PEB_W_WV?$regex_traits@_W@std@@@std@@AEAAXXZ
	?_Beg_expr@?$_Builder@PEBDDV?$regex_traits@D@std@@@std@@AEBA_NPEAV_Node_base@2@@Z
	?_Beg_expr@?$_Builder@PEBDDV?$regex_traits@D@std@@@std@@QEBA_NXZ
	?_Beg_expr@?$_Builder@PEB_W_WV?$regex_traits@_W@std@@@std@@AEBA_NPEAV_Node_base@2@@Z
	?_Beg_expr@?$_Builder@PEB_W_WV?$regex_traits@_W@std@@@std@@QEBA_NXZ
	?_Begin_assert_group@?$_Builder@PEBDDV?$regex_traits@D@std@@@std@@QEAAPEAV_Node_base@2@_N@Z
	?_Begin_assert_group@?$_Builder@PEB_W_WV?$regex_traits@_W@std@@@std@@QEAAPEAV_Node_base@2@_N@Z
	?_Begin_capture_group@?$_Builder@PEBDDV?$regex_traits@D@std@@@std@@QEAAPEAV_Node_base@2@I@Z
	?_Begin_capture_group@?$_Builder@PEB_W_WV?$regex_traits@_W@std@@@std@@QEAAPEAV_Node_base@2@I@Z
	?_Begin_group@?$_Builder@PEBDDV?$regex_traits@D@std@@@std@@QEAAPEAV_Node_base@2@XZ
	?_Begin_group@?$_Builder@PEB_W_WV?$regex_traits@_W@std@@@std@@QEAAPEAV_Node_base@2@XZ
	?_Begin_if@?$_Builder@PEBDDV?$regex_traits@D@std@@@std@@QEAAPEAV_Node_base@2@PEAV32@@Z
	?_Begin_if@?$_Builder@PEB_W_WV?$regex_traits@_W@std@@@std@@QEAAPEAV_Node_base@2@PEAV32@@Z
	?_Better_match@?$_Matcher@PEBDDV?$regex_traits@D@std@@PEBD@std@@AEAA_NXZ
	?_Better_match@?$_Matcher@PEB_W_WV?$regex_traits@_W@std@@PEB_W@std@@AEAA_NXZ
	?_Bridge@_TaskProcThunk@details@Concurrency@@SAXPEAX@Z
	?_Buy_nonzero@?$vector@MV?$allocator@M@std@@@std@@AEAAX_K@Z
	?_Buy_nonzero@?$vector@PEBUllama_grammar_element@@V?$allocator@PEBUllama_grammar_element@@@std@@@std@@AEAAX_K@Z
	?_Buy_nonzero@?$vector@V?$basic_string@DU?$char_traits@D@std@@V?$allocator@D@2@@std@@V?$allocator@V?$basic_string@DU?$char_traits@D@std@@V?$allocator@D@2@@std@@@2@@std@@AEAAX_K@Z
	?_Buy_nonzero@?$vector@V?$vector@Ullama_grammar_element@@V?$allocator@Ullama_grammar_element@@@std@@@std@@V?$allocator@V?$vector@Ullama_grammar_element@@V?$allocator@Ullama_grammar_element@@@std@@@std@@@2@@std@@AEAAX_K@Z
	?_Buy_raw@?$vector@DV?$allocator@D@std@@@std@@AEAAX_K@Z
	?_Buy_raw@?$vector@HV?$allocator@H@std@@@std@@AEAAX_K@Z
	?_Buy_raw@?$vector@IV?$allocator@I@std@@@std@@AEAAX_K@Z
	?_Buy_raw@?$vector@PEAXV?$allocator@PEAX@std@@@std@@AEAAX_K@Z
	?_Buy_raw@?$vector@U_Grp_t@?$_Tgt_state_t@PEBD@std@@V?$allocator@U_Grp_t@?$_Tgt_state_t@PEBD@std@@@3@@std@@AEAAX_K@Z
	?_Buy_raw@?$vector@U_Grp_t@?$_Tgt_state_t@PEB_W@std@@V?$allocator@U_Grp_t@?$_Tgt_state_t@PEB_W@std@@@3@@std@@AEAAX_K@Z
	?_Buy_raw@?$vector@Ullama_grammar_element@@V?$allocator@Ullama_grammar_element@@@std@@@std@@AEAAX_K@Z
	?_Buy_raw@?$vector@V?$basic_string@DU?$char_traits@D@std@@V?$allocator@D@2@@std@@V?$allocator@V?$basic_string@DU?$char_traits@D@std@@V?$allocator@D@2@@std@@@2@@std@@AEAAX_K@Z
	?_Calculate_loop_simplicity@std@@YAXPEAV_Node_base@1@0PEAV_Node_rep@1@@Z
	?_Call_immediate@?$_Packaged_state@$$A6A?AU?$pair@PEAUggml_tensor@@_N@std@@XZ@std@@QEAAXXZ
	?_Callback@_PPLTaskChore@_DefaultPPLTaskScheduler@details@Concurrency@@CAXPEAX@Z
	?_CancelAndRunContinuations@?$_Task_impl@E@details@Concurrency@@UEAA_N_N00AEBV?$shared_ptr@U_ExceptionHolder@details@Concurrency@@@std@@@Z
	?_CancelWithException@_Task_impl_base@details@Concurrency@@QEAA_NAEBVexception_ptr@std@@@Z
	?_Change_array@?$vector@EV?$allocator@E@std@@@std@@AEAAXQEAE_K1@Z
	?_Change_array@?$vector@HV?$allocator@H@std@@@std@@AEAAXQEAH_K1@Z
	?_Change_array@?$vector@IV?$allocator@I@std@@@std@@AEAAXQEAI_K1@Z
	?_Change_array@?$vector@NV?$allocator@N@std@@@std@@AEAAXQEAN_K1@Z
	?_Change_array@?$vector@PEAUggml_tensor@@V?$allocator@PEAUggml_tensor@@@std@@@std@@AEAAXQEAPEAUggml_tensor@@_K1@Z
	?_Change_array@?$vector@PEAUllama_token_data@@V?$allocator@PEAUllama_token_data@@@std@@@std@@AEAAXQEAPEAUllama_token_data@@_K1@Z
	?_Change_array@?$vector@PEAXV?$allocator@PEAX@std@@@std@@AEAAXQEAPEAX_K1@Z
	?_Change_array@?$vector@PEBUllama_grammar_element@@V?$allocator@PEBUllama_grammar_element@@@std@@@std@@AEAAXQEAPEBUllama_grammar_element@@_K1@Z
	?_Change_array@?$vector@PEBUllama_tensor_weight@llama_model_loader@@V?$allocator@PEBUllama_tensor_weight@llama_model_loader@@@std@@@std@@AEAAXQEAPEBUllama_tensor_weight@llama_model_loader@@_K1@Z
	?_Change_array@?$vector@U?$pair@II@std@@V?$allocator@U?$pair@II@std@@@2@@std@@AEAAXQEAU?$pair@II@2@_K1@Z
	?_Change_array@?$vector@U?$pair@PEAUggml_backend_device@@PEAUggml_backend_buffer_type@@@std@@V?$allocator@U?$pair@PEAUggml_backend_device@@PEAUggml_backend_buffer_type@@@std@@@2@@std@@AEAAXQEAU?$pair@PEAUggml_backend_device@@PEAUggml_backend_buffer_type@@@2@_K1@Z
	?_Change_array@?$vector@U?$pair@PEAUggml_context@@V?$unordered_map@IPEAUggml_backend_buffer@@U?$hash@I@std@@U?$equal_to@I@3@V?$allocator@U?$pair@$$CBIPEAUggml_backend_buffer@@@std@@@3@@std@@@std@@V?$allocator@U?$pair@PEAUggml_context@@V?$unordered_map@IPEAUggml_backend_buffer@@U?$hash@I@std@@U?$equal_to@I@3@V?$allocator@U?$pair@$$CBIPEAUggml_backend_buffer@@@std@@@3@@std@@@std@@@2@@std@@AEAAXQEAU?$pair@PEAUggml_context@@V?$unordered_map@IPEAUggml_backend_buffer@@U?$hash@I@std@@U?$equal_to@I@3@V?$allocator@U?$pair@$$CBIPEAUggml_backend_buffer@@@std@@@3@@std@@@2@_K1@Z
	?_Change_array@?$vector@U?$pair@V?$vector@IV?$allocator@I@std@@@std@@Ullama_partial_utf8@@@std@@V?$allocator@U?$pair@V?$vector@IV?$allocator@I@std@@@std@@Ullama_partial_utf8@@@std@@@2@@std@@AEAAXQEAU?$pair@V?$vector@IV?$allocator@I@std@@@std@@Ullama_partial_utf8@@@2@_K1@Z
	?_Change_array@?$vector@U?$pair@_K_K@std@@V?$allocator@U?$pair@_K_K@std@@@2@@std@@AEAAXQEAU?$pair@_K_K@2@_K1@Z
	?_Change_array@?$vector@Ullama_grammar_candidate@@V?$allocator@Ullama_grammar_candidate@@@std@@@std@@AEAAXQEAUllama_grammar_candidate@@_K1@Z
	?_Change_array@?$vector@Ullama_grammar_element@@V?$allocator@Ullama_grammar_element@@@std@@@std@@AEAAXQEAUllama_grammar_element@@_K1@Z
	?_Change_array@?$vector@Ullama_sbatch_seq@@V?$allocator@Ullama_sbatch_seq@@@std@@@std@@AEAAXQEAUllama_sbatch_seq@@_K1@Z
	?_Change_array@?$vector@Ullama_token_data@@V?$allocator@Ullama_token_data@@@std@@@std@@AEAAXQEAUllama_token_data@@_K1@Z
	?_Change_array@?$vector@Ullm_symbol@@V?$allocator@Ullm_symbol@@@std@@@std@@AEAAXQEAUllm_symbol@@_K1@Z
	?_Change_array@?$vector@V?$basic_string@DU?$char_traits@D@std@@V?$allocator@D@2@@std@@V?$allocator@V?$basic_string@DU?$char_traits@D@std@@V?$allocator@D@2@@std@@@2@@std@@AEAAXQEAV?$basic_string@DU?$char_traits@D@std@@V?$allocator@D@2@@2@_K1@Z
	?_Change_array@?$vector@V?$unique_ptr@Uggml_backend_buffer@@Uggml_backend_buffer_deleter@@@std@@V?$allocator@V?$unique_ptr@Uggml_backend_buffer@@Uggml_backend_buffer_deleter@@@std@@@2@@std@@AEAAXQEAV?$unique_ptr@Uggml_backend_buffer@@Uggml_backend_buffer_deleter@@@2@_K1@Z
	?_Change_array@?$vector@V?$unique_ptr@Uggml_context@@Uggml_context_deleter@@@std@@V?$allocator@V?$unique_ptr@Uggml_context@@Uggml_context_deleter@@@std@@@2@@std@@AEAAXQEAV?$unique_ptr@Uggml_context@@Uggml_context_deleter@@@2@_K1@Z
	?_Change_array@?$vector@V?$unique_ptr@Ullama_mlock@@U?$default_delete@Ullama_mlock@@@std@@@std@@V?$allocator@V?$unique_ptr@Ullama_mlock@@U?$default_delete@Ullama_mlock@@@std@@@std@@@2@@std@@AEAAXQEAV?$unique_ptr@Ullama_mlock@@U?$default_delete@Ullama_mlock@@@std@@@2@_K1@Z
	?_Change_array@?$vector@V?$unique_ptr@Ullama_mmap@@U?$default_delete@Ullama_mmap@@@std@@@std@@V?$allocator@V?$unique_ptr@Ullama_mmap@@U?$default_delete@Ullama_mmap@@@std@@@std@@@2@@std@@AEAAXQEAV?$unique_ptr@Ullama_mmap@@U?$default_delete@Ullama_mmap@@@std@@@2@_K1@Z
	?_Change_array@?$vector@V?$vector@PEBUllama_grammar_element@@V?$allocator@PEBUllama_grammar_element@@@std@@@std@@V?$allocator@V?$vector@PEBUllama_grammar_element@@V?$allocator@PEBUllama_grammar_element@@@std@@@std@@@2@@std@@AEAAXQEAV?$vector@PEBUllama_grammar_element@@V?$allocator@PEBUllama_grammar_element@@@std@@@2@_K1@Z
	?_Change_array@?$vector@Vthread@std@@V?$allocator@Vthread@std@@@2@@std@@AEAAXQEAVthread@2@_K1@Z
	?_Change_array@?$vector@_KV?$allocator@_K@std@@@std@@AEAAXQEA_K_K1@Z
	?_Char_to_elts@?$_Builder@PEBDDV?$regex_traits@D@std@@@std@@AEAAXPEBD0_JPEAPEAU?$_Sequence@D@2@@Z
	?_Char_to_elts@?$_Builder@PEB_W_WV?$regex_traits@_W@std@@@std@@AEAAXPEB_W0_JPEAPEAU?$_Sequence@_W@2@@Z
	?_CharacterClass@?$_Parser@PEBDDV?$regex_traits@D@std@@@std@@AEAAXXZ
	?_CharacterClass@?$_Parser@PEB_W_WV?$regex_traits@_W@std@@@std@@AEAAXXZ
	?_CharacterClassEscape@?$_Parser@PEBDDV?$regex_traits@D@std@@@std@@AEAA_N_N@Z
	?_CharacterClassEscape@?$_Parser@PEB_W_WV?$regex_traits@_W@std@@@std@@AEAA_N_N@Z
	?_CharacterEscape@?$_Parser@PEBDDV?$regex_traits@D@std@@@std@@AEAA_NXZ
	?_CharacterEscape@?$_Parser@PEB_W_WV?$regex_traits@_W@std@@@std@@AEAA_NXZ
	?_ClassAtom@?$_Parser@PEBDDV?$regex_traits@D@std@@@std@@AEAA?AW4_Prs_ret@2@XZ
	?_ClassAtom@?$_Parser@PEB_W_WV?$regex_traits@_W@std@@@std@@AEAA?AW4_Prs_ret@2@XZ
	?_ClassEscape@?$_Parser@PEBDDV?$regex_traits@D@std@@@std@@AEAA?AW4_Prs_ret@2@_N@Z
	?_ClassEscape@?$_Parser@PEB_W_WV?$regex_traits@_W@std@@@std@@AEAA?AW4_Prs_ret@2@_N@Z
	?_ClassRanges@?$_Parser@PEBDDV?$regex_traits@D@std@@@std@@AEAAXXZ
	?_ClassRanges@?$_Parser@PEB_W_WV?$regex_traits@_W@std@@@std@@AEAAXXZ
	?_Clear_and_reserve_geometric@?$vector@HV?$allocator@H@std@@@std@@AEAAX_K@Z
	?_Compile@?$_Parser@PEBDDV?$regex_traits@D@std@@@std@@QEAAPEAV_Root_node@2@XZ
	?_Compile@?$_Parser@PEB_W_WV?$regex_traits@_W@std@@@std@@QEAAPEAV_Root_node@2@XZ
	?_Complete@_TaskCollectionBaseImpl@details@Concurrency@@QEAAXXZ
	?_Copy@?$_Func_impl_no_alloc@V<lambda_052e919cc0e5399df76dff3972c0cac1>@@E$$V@std@@EEBAPEAV?$_Func_base@E$$V@2@PEAX@Z
	?_Copy@?$_Func_impl_no_alloc@V<lambda_2fa3e3d11fb97352afa77a4a13bfb543>@@X$$V@std@@EEBAPEAV?$_Func_base@X$$V@2@PEAX@Z
	?_Copy@?$_Func_impl_no_alloc@V<lambda_61d324d6c6ae299623b0a01e4b2f6764>@@X$$V@std@@EEBAPEAV?$_Func_base@X$$V@2@PEAX@Z
	?_Copy@?$_Func_impl_no_alloc@V<lambda_763529b0c7473cbc215a52d189ac9b18>@@X$$V@std@@EEBAPEAV?$_Func_base@X$$V@2@PEAX@Z
	?_Copy@?$_Func_impl_no_alloc@V<lambda_f25c37099038263181b5186a3fa41b37>@@X$$V@std@@EEBAPEAV?$_Func_base@X$$V@2@PEAX@Z
	?_Copy@?$_Func_impl_no_alloc@V<lambda_f7036c9a115536b365ca4544394c825b>@@X$$V@std@@EEBAPEAV?$_Func_base@X$$V@2@PEAX@Z
	?_Copy@?$_Func_impl_no_alloc@V?$_Fake_no_copy_callable_adapter@V<lambda_3f39357f5ebcd3550b555fa53c33d10a>@@@std@@U?$pair@PEAUggml_tensor@@_N@2@$$V@std@@EEBAPEAV?$_Func_base@U?$pair@PEAUggml_tensor@@_N@std@@$$V@2@PEAX@Z
	?_Copy@?$_Func_impl_no_alloc@V?$_Fake_no_copy_callable_adapter@V<lambda_e3b97c3ad3d076d7964efd5d963695f6>@@@std@@U?$pair@PEAUggml_tensor@@_N@2@$$V@std@@EEBAPEAV?$_Func_base@U?$pair@PEAUggml_tensor@@_N@std@@$$V@2@PEAX@Z
	?_CreateImpl@?$task@E@Concurrency@@QEAAXPEAV_CancellationTokenState@details@2@Uscheduler_ptr@2@@Z
	?_Deallocate_for_capacity@?$basic_string@DU?$char_traits@D@std@@V?$allocator@D@2@@std@@CAXAEAV?$allocator@D@2@QEAD_K@Z
	?_DecimalDigits@?$_Parser@PEBDDV?$regex_traits@D@std@@@std@@AEAA_NW4error_type@regex_constants@2@@Z
	?_DecimalDigits@?$_Parser@PEB_W_WV?$regex_traits@_W@std@@@std@@AEAA_NW4error_type@regex_constants@2@@Z
	?_Delete_this@?$_Func_impl_no_alloc@V<lambda_052e919cc0e5399df76dff3972c0cac1>@@E$$V@std@@EEAAX_N@Z
	?_Delete_this@?$_Func_impl_no_alloc@V<lambda_2fa3e3d11fb97352afa77a4a13bfb543>@@X$$V@std@@EEAAX_N@Z
	?_Delete_this@?$_Func_impl_no_alloc@V<lambda_61d324d6c6ae299623b0a01e4b2f6764>@@X$$V@std@@EEAAX_N@Z
	?_Delete_this@?$_Func_impl_no_alloc@V<lambda_763529b0c7473cbc215a52d189ac9b18>@@X$$V@std@@EEAAX_N@Z
	?_Delete_this@?$_Func_impl_no_alloc@V<lambda_f25c37099038263181b5186a3fa41b37>@@X$$V@std@@EEAAX_N@Z
	?_Delete_this@?$_Func_impl_no_alloc@V<lambda_f7036c9a115536b365ca4544394c825b>@@X$$V@std@@EEAAX_N@Z
	?_Delete_this@?$_Func_impl_no_alloc@V?$_Fake_no_copy_callable_adapter@V<lambda_3f39357f5ebcd3550b555fa53c33d10a>@@@std@@U?$pair@PEAUggml_tensor@@_N@2@$$V@std@@EEAAX_N@Z
	?_Delete_this@?$_Func_impl_no_alloc@V?$_Fake_no_copy_callable_adapter@V<lambda_e3b97c3ad3d076d7964efd5d963695f6>@@@std@@U?$pair@PEAUggml_tensor@@_N@2@$$V@std@@EEAAX_N@Z
	?_Delete_this@?$_Ref_count_obj2@U?$_Task_impl@E@details@Concurrency@@@std@@EEAAXXZ
	?_Delete_this@?$_Ref_count_obj2@U_ExceptionHolder@details@Concurrency@@@std@@EEAAXXZ
	?_DeregisterCallback@_CancellationTokenState@details@Concurrency@@QEAAXPEAV_CancellationTokenRegistration@23@@Z
	?_Desired_grow_bucket_count@?$_Hash@V?$_Umap_traits@HHV?$_Uhash_compare@HU?$hash@H@std@@U?$equal_to@H@2@@std@@V?$allocator@U?$pair@$$CBHH@std@@@2@$0A@@std@@@std@@IEBA_K_K@Z
	?_Desired_grow_bucket_count@?$_Hash@V?$_Umap_traits@HV?$vector@HV?$allocator@H@std@@@std@@V?$_Uhash_compare@HU?$hash@H@std@@U?$equal_to@H@2@@2@V?$allocator@U?$pair@$$CBHV?$vector@HV?$allocator@H@std@@@std@@@std@@@2@$00@std@@@std@@IEBA_K_K@Z
	?_Destroy@?$_Ref_count_obj2@U?$_Task_impl@E@details@Concurrency@@@std@@EEAAXXZ
	?_Destroy@?$_Ref_count_obj2@U_ExceptionHolder@details@Concurrency@@@std@@EEAAXXZ
	?_Destroy@_RefCounter@details@Concurrency@@MEAAXXZ
	?_Disjunction@?$_Parser@PEBDDV?$regex_traits@D@std@@@std@@AEAAXXZ
	?_Disjunction@?$_Parser@PEB_W_WV?$regex_traits@_W@std@@@std@@AEAAXXZ
	?_Do_assert_group@?$_Parser@PEBDDV?$regex_traits@D@std@@@std@@AEAAX_N@Z
	?_Do_assert_group@?$_Parser@PEB_W_WV?$regex_traits@_W@std@@@std@@AEAAX_N@Z
	?_Do_call@?$_Func_impl_no_alloc@V<lambda_052e919cc0e5399df76dff3972c0cac1>@@E$$V@std@@EEAAEXZ
	?_Do_call@?$_Func_impl_no_alloc@V<lambda_2fa3e3d11fb97352afa77a4a13bfb543>@@X$$V@std@@EEAAXXZ
	?_Do_call@?$_Func_impl_no_alloc@V<lambda_61d324d6c6ae299623b0a01e4b2f6764>@@X$$V@std@@EEAAXXZ
	?_Do_call@?$_Func_impl_no_alloc@V<lambda_763529b0c7473cbc215a52d189ac9b18>@@X$$V@std@@EEAAXXZ
	?_Do_call@?$_Func_impl_no_alloc@V<lambda_f25c37099038263181b5186a3fa41b37>@@X$$V@std@@EEAAXXZ
	?_Do_call@?$_Func_impl_no_alloc@V<lambda_f7036c9a115536b365ca4544394c825b>@@X$$V@std@@EEAAXXZ
	?_Do_call@?$_Func_impl_no_alloc@V?$_Fake_no_copy_callable_adapter@V<lambda_3f39357f5ebcd3550b555fa53c33d10a>@@@std@@U?$pair@PEAUggml_tensor@@_N@2@$$V@std@@EEAA?AU?$pair@PEAUggml_tensor@@_N@2@XZ
	?_Do_call@?$_Func_impl_no_alloc@V?$_Fake_no_copy_callable_adapter@V<lambda_e3b97c3ad3d076d7964efd5d963695f6>@@@std@@U?$pair@PEAUggml_tensor@@_N@2@$$V@std@@EEAA?AU?$pair@PEAUggml_tensor@@_N@2@XZ
	?_Do_capture_group@?$_Parser@PEBDDV?$regex_traits@D@std@@@std@@AEAAXXZ
	?_Do_capture_group@?$_Parser@PEB_W_WV?$regex_traits@_W@std@@@std@@AEAAXXZ
	?_Do_class@?$_Matcher@PEBDDV?$regex_traits@D@std@@PEBD@std@@AEAA_NPEAV_Node_base@2@@Z
	?_Do_class@?$_Matcher@PEB_W_WV?$regex_traits@_W@std@@PEB_W@std@@AEAA_NPEAV_Node_base@2@@Z
	?_Do_digits@?$_Parser@PEBDDV?$regex_traits@D@std@@@std@@AEAAHHHW4error_type@regex_constants@2@@Z
	?_Do_digits@?$_Parser@PEB_W_WV?$regex_traits@_W@std@@@std@@AEAAHHHW4error_type@regex_constants@2@@Z
	?_Do_ex_class@?$_Parser@PEBDDV?$regex_traits@D@std@@@std@@AEAAXW4_Meta_type@2@@Z
	?_Do_ex_class@?$_Parser@PEB_W_WV?$regex_traits@_W@std@@@std@@AEAAXW4_Meta_type@2@@Z
	?_Do_ffn@?$_Parser@PEBDDV?$regex_traits@D@std@@@std@@AEAA_ND@Z
	?_Do_ffn@?$_Parser@PEB_W_WV?$regex_traits@_W@std@@@std@@AEAA_N_W@Z
	?_Do_ffnx@?$_Parser@PEBDDV?$regex_traits@D@std@@@std@@AEAA_ND@Z
	?_Do_ffnx@?$_Parser@PEB_W_WV?$regex_traits@_W@std@@@std@@AEAA_N_W@Z
	?_Do_if@?$_Matcher@PEBDDV?$regex_traits@D@std@@PEBD@std@@AEAA_NPEAV_Node_if@2@@Z
	?_Do_if@?$_Matcher@PEB_W_WV?$regex_traits@_W@std@@PEB_W@std@@AEAA_NPEAV_Node_if@2@@Z
	?_Do_noncapture_group@?$_Parser@PEBDDV?$regex_traits@D@std@@@std@@AEAAXXZ
	?_Do_noncapture_group@?$_Parser@PEB_W_WV?$regex_traits@_W@std@@@std@@AEAAXXZ
	?_Do_notify@?$_Associated_state@U?$pair@PEAUggml_tensor@@_N@std@@@std@@EEAAXPEAV?$unique_lock@Vmutex@std@@@2@_N@Z
	?_Do_rep0@?$_Matcher@PEBDDV?$regex_traits@D@std@@PEBD@std@@AEAA_NPEAV_Node_rep@2@_N@Z
	?_Do_rep0@?$_Matcher@PEB_W_WV?$regex_traits@_W@std@@PEB_W@std@@AEAA_NPEAV_Node_rep@2@_N@Z
	?_Do_rep@?$_Matcher@PEBDDV?$regex_traits@D@std@@PEBD@std@@AEAA_NPEAV_Node_rep@2@_NH@Z
	?_Do_rep@?$_Matcher@PEB_W_WV?$regex_traits@_W@std@@PEB_W@std@@AEAA_NPEAV_Node_rep@2@_NH@Z
	?_Else_if@?$_Builder@PEBDDV?$regex_traits@D@std@@@std@@QEAAXPEAV_Node_base@2@0@Z
	?_Else_if@?$_Builder@PEB_W_WV?$regex_traits@_W@std@@@std@@QEAAXPEAV_Node_base@2@0@Z
	?_End_assert_group@?$_Builder@PEBDDV?$regex_traits@D@std@@@std@@QEAAXPEAV_Node_base@2@@Z
	?_End_assert_group@?$_Builder@PEB_W_WV?$regex_traits@_W@std@@@std@@QEAAXPEAV_Node_base@2@@Z
	?_End_group@?$_Builder@PEBDDV?$regex_traits@D@std@@@std@@QEAAXPEAV_Node_base@2@@Z
	?_End_group@?$_Builder@PEB_W_WV?$regex_traits@_W@std@@@std@@QEAAXPEAV_Node_base@2@@Z
	?_End_pattern@?$_Builder@PEBDDV?$regex_traits@D@std@@@std@@QEAAPEAV_Root_node@2@XZ
	?_End_pattern@?$_Builder@PEB_W_WV?$regex_traits@_W@std@@@std@@QEAAPEAV_Root_node@2@XZ
	?_Endwrite@?$basic_filebuf@DU?$char_traits@D@std@@@std@@IEAA_NXZ
	?_Erase@?$_Tree@V?$_Tset_traits@HU?$less@H@std@@V?$allocator@H@2@$0A@@std@@@std@@AEAA_KU?$pair@PEAU?$_Tree_node@HPEAX@std@@PEAU12@@2@@Z
	?_Error@?$_Parser@PEBDDV?$regex_traits@D@std@@@std@@AEAAXW4error_type@regex_constants@2@@Z
	?_Error@?$_Parser@PEB_W_WV?$regex_traits@_W@std@@@std@@AEAAXW4error_type@regex_constants@2@@Z
	?_Exec@?$_CancellationTokenCallback@V<lambda_be3e5d9dce35d2c8dbfa8485373731d5>@@@details@Concurrency@@MEAAXXZ
	?_Expect@?$_Parser@PEBDDV?$regex_traits@D@std@@@std@@AEAAXW4_Meta_type@2@W4error_type@regex_constants@2@@Z
	?_Expect@?$_Parser@PEB_W_WV?$regex_traits@_W@std@@@std@@AEAAXW4_Meta_type@2@W4error_type@regex_constants@2@@Z
	?_Extract@?$_Tree_val@U?$_Tree_simple_types@H@std@@@std@@QEAAPEAU?$_Tree_node@HPEAX@2@V?$_Tree_unchecked_const_iterator@V?$_Tree_val@U?$_Tree_simple_types@H@std@@@std@@U_Iterator_base0@2@@2@@Z
	?_Extract@?$_Tree_val@U?$_Tree_simple_types@PEAUllama_lora_adapter@@@std@@@std@@QEAAPEAU?$_Tree_node@PEAUllama_lora_adapter@@PEAX@2@V?$_Tree_unchecked_const_iterator@V?$_Tree_val@U?$_Tree_simple_types@PEAUllama_lora_adapter@@@std@@@std@@U_Iterator_base0@2@@2@@Z
	?_FinalizeAndRunContinuations@?$_Task_impl@E@details@Concurrency@@QEAAXE@Z
	?_Forced_rehash@?$_Hash@V?$_Umap_traits@EV?$basic_string@DU?$char_traits@D@std@@V?$allocator@D@2@@std@@V?$_Uhash_compare@EU?$hash@E@std@@U?$equal_to@E@2@@2@V?$allocator@U?$pair@$$CBEV?$basic_string@DU?$char_traits@D@std@@V?$allocator@D@2@@std@@@std@@@2@$0A@@std@@@std@@IEAAX_K@Z
	?_Forced_rehash@?$_Hash@V?$_Umap_traits@HHV?$_Uhash_compare@HU?$hash@H@std@@U?$equal_to@H@2@@std@@V?$allocator@U?$pair@$$CBHH@std@@@2@$0A@@std@@@std@@IEAAX_K@Z
	?_Forced_rehash@?$_Hash@V?$_Umap_traits@HV?$vector@HV?$allocator@H@std@@@std@@V?$_Uhash_compare@HU?$hash@H@std@@U?$equal_to@H@2@@2@V?$allocator@U?$pair@$$CBHV?$vector@HV?$allocator@H@std@@@std@@@std@@@2@$00@std@@@std@@IEAAX_K@Z
	?_Forced_rehash@?$_Hash@V?$_Umap_traits@IPEAUggml_backend_buffer@@V?$_Uhash_compare@IU?$hash@I@std@@U?$equal_to@I@2@@std@@V?$allocator@U?$pair@$$CBIPEAUggml_backend_buffer@@@std@@@3@$0A@@std@@@std@@IEAAX_K@Z
	?_Forced_rehash@?$_Hash@V?$_Umap_traits@PEAUllama_lora_adapter@@MV?$_Uhash_compare@PEAUllama_lora_adapter@@U?$hash@PEAUllama_lora_adapter@@@std@@U?$equal_to@PEAUllama_lora_adapter@@@3@@std@@V?$allocator@U?$pair@QEAUllama_lora_adapter@@M@std@@@3@$0A@@std@@@std@@IEAAX_K@Z
	?_Forced_rehash@?$_Hash@V?$_Umap_traits@V?$basic_string@DU?$char_traits@D@std@@V?$allocator@D@2@@std@@EV?$_Uhash_compare@V?$basic_string@DU?$char_traits@D@std@@V?$allocator@D@2@@std@@U?$hash@V?$basic_string@DU?$char_traits@D@std@@V?$allocator@D@2@@std@@@2@U?$equal_to@V?$basic_string@DU?$char_traits@D@std@@V?$allocator@D@2@@std@@@2@@2@V?$allocator@U?$pair@$$CBV?$basic_string@DU?$char_traits@D@std@@V?$allocator@D@2@@std@@E@std@@@2@$0A@@std@@@std@@IEAAX_K@Z
	?_Forced_rehash@?$_Hash@V?$_Umap_traits@V?$basic_string@DU?$char_traits@D@std@@V?$allocator@D@2@@std@@HV?$_Uhash_compare@V?$basic_string@DU?$char_traits@D@std@@V?$allocator@D@2@@std@@U?$hash@V?$basic_string@DU?$char_traits@D@std@@V?$allocator@D@2@@std@@@2@U?$equal_to@V?$basic_string@DU?$char_traits@D@std@@V?$allocator@D@2@@std@@@2@@2@V?$allocator@U?$pair@$$CBV?$basic_string@DU?$char_traits@D@std@@V?$allocator@D@2@@std@@H@std@@@2@$0A@@std@@@std@@IEAAX_K@Z
	?_Forced_rehash@?$_Hash@V?$_Umap_traits@V?$basic_string@DU?$char_traits@D@std@@V?$allocator@D@2@@std@@Ullama_lora_weight@@V?$_Uhash_compare@V?$basic_string@DU?$char_traits@D@std@@V?$allocator@D@2@@std@@U?$hash@V?$basic_string@DU?$char_traits@D@std@@V?$allocator@D@2@@std@@@2@U?$equal_to@V?$basic_string@DU?$char_traits@D@std@@V?$allocator@D@2@@std@@@2@@2@V?$allocator@U?$pair@$$CBV?$basic_string@DU?$char_traits@D@std@@V?$allocator@D@2@@std@@Ullama_lora_weight@@@std@@@2@$0A@@std@@@std@@IEAAX_K@Z
	?_Forced_rehash@?$_Hash@V?$_Umap_traits@V?$basic_string@DU?$char_traits@D@std@@V?$allocator@D@2@@std@@Ullama_model_kv_override@@V?$_Uhash_compare@V?$basic_string@DU?$char_traits@D@std@@V?$allocator@D@2@@std@@U?$hash@V?$basic_string@DU?$char_traits@D@std@@V?$allocator@D@2@@std@@@2@U?$equal_to@V?$basic_string@DU?$char_traits@D@std@@V?$allocator@D@2@@std@@@2@@2@V?$allocator@U?$pair@$$CBV?$basic_string@DU?$char_traits@D@std@@V?$allocator@D@2@@std@@Ullama_model_kv_override@@@std@@@2@$0A@@std@@@std@@IEAAX_K@Z
	?_Forced_rehash@?$_Hash@V?$_Umap_traits@V?$basic_string@DU?$char_traits@D@std@@V?$allocator@D@2@@std@@V12@V?$_Uhash_compare@V?$basic_string@DU?$char_traits@D@std@@V?$allocator@D@2@@std@@U?$hash@V?$basic_string@DU?$char_traits@D@std@@V?$allocator@D@2@@std@@@2@U?$equal_to@V?$basic_string@DU?$char_traits@D@std@@V?$allocator@D@2@@std@@@2@@2@V?$allocator@U?$pair@$$CBV?$basic_string@DU?$char_traits@D@std@@V?$allocator@D@2@@std@@V12@@std@@@2@$0A@@std@@@std@@IEAAX_K@Z
	?_Forced_rehash@?$_Hash@V?$_Uset_traits@IV?$_Uhash_compare@IU?$hash@I@std@@U?$equal_to@I@2@@std@@V?$allocator@I@2@$0A@@std@@@std@@IEAAX_K@Z
	?_Get@?$_Func_impl_no_alloc@V<lambda_052e919cc0e5399df76dff3972c0cac1>@@E$$V@std@@EEBAPEBXXZ
	?_Get@?$_Func_impl_no_alloc@V<lambda_2fa3e3d11fb97352afa77a4a13bfb543>@@X$$V@std@@EEBAPEBXXZ
	?_Get@?$_Func_impl_no_alloc@V<lambda_61d324d6c6ae299623b0a01e4b2f6764>@@X$$V@std@@EEBAPEBXXZ
	?_Get@?$_Func_impl_no_alloc@V<lambda_763529b0c7473cbc215a52d189ac9b18>@@X$$V@std@@EEBAPEBXXZ
	?_Get@?$_Func_impl_no_alloc@V<lambda_f25c37099038263181b5186a3fa41b37>@@X$$V@std@@EEBAPEBXXZ
	?_Get@?$_Func_impl_no_alloc@V<lambda_f7036c9a115536b365ca4544394c825b>@@X$$V@std@@EEBAPEBXXZ
	?_Get@?$_Func_impl_no_alloc@V?$_Fake_no_copy_callable_adapter@V<lambda_3f39357f5ebcd3550b555fa53c33d10a>@@@std@@U?$pair@PEAUggml_tensor@@_N@2@$$V@std@@EEBAPEBXXZ
	?_Get@?$_Func_impl_no_alloc@V?$_Fake_no_copy_callable_adapter@V<lambda_e3b97c3ad3d076d7964efd5d963695f6>@@@std@@U?$pair@PEAUggml_tensor@@_N@2@$$V@std@@EEBAPEBXXZ
	?_Get_bmax@?$_Builder@PEBDDV?$regex_traits@D@std@@@std@@AEBAIXZ
	?_Get_bmax@?$_Builder@PEB_W_WV?$regex_traits@_W@std@@@std@@AEBAIXZ
	?_Get_deleter@_Ref_count_base@std@@UEBAPEAXAEBVtype_info@@@Z
	?_Get_ncap@?$_Matcher@PEBDDV?$regex_traits@D@std@@PEBD@std@@AEBAIXZ
	?_Get_ncap@?$_Matcher@PEB_W_WV?$regex_traits@_W@std@@PEB_W@std@@AEBAIXZ
	?_Get_tmax@?$_Builder@PEBDDV?$regex_traits@D@std@@@std@@AEBAIXZ
	?_Get_tmax@?$_Builder@PEB_W_WV?$regex_traits@_W@std@@@std@@AEBAIXZ
	?_Get_value@?$_Associated_state@U?$pair@PEAUggml_tensor@@_N@std@@@std@@UEAAAEAU?$pair@PEAUggml_tensor@@_N@2@_N@Z
	?_Get_value@?$_Task_async_state@U?$pair@PEAUggml_tensor@@_N@std@@@std@@UEAAAEAU?$pair@PEAUggml_tensor@@_N@2@_N@Z
	?_Getmark@?$_Builder@PEBDDV?$regex_traits@D@std@@@std@@QEBAPEAV_Node_base@2@XZ
	?_Getmark@?$_Builder@PEB_W_WV?$regex_traits@_W@std@@@std@@QEBAPEAV_Node_base@2@XZ
	?_HasUserException@_Task_impl_base@details@Concurrency@@QEAA_NXZ
	?_Has_deferred_function@?$_Associated_state@U?$pair@PEAUggml_tensor@@_N@std@@@std@@EEBA_NXZ
	?_Has_deferred_function@?$_Deferred_async_state@U?$pair@PEAUggml_tensor@@_N@std@@@std@@EEBA_NXZ
	?_HexDigits@?$_Parser@PEBDDV?$regex_traits@D@std@@@std@@AEAAXH@Z
	?_HexDigits@?$_Parser@PEB_W_WV?$regex_traits@_W@std@@@std@@AEAAXH@Z
	?_IdentityEscape@?$_Parser@PEBDDV?$regex_traits@D@std@@@std@@AEAA_NXZ
	?_IdentityEscape@?$_Parser@PEB_W_WV?$regex_traits@_W@std@@@std@@AEAA_NXZ
	?_Init@?$basic_filebuf@DU?$char_traits@D@std@@@std@@IEAAXPEAU_iobuf@@W4_Initfl@12@@Z
	?_Init@param_type@?$discrete_distribution@H@std@@QEAAX_N@Z
	?_Insert_node@?$_Builder@PEBDDV?$regex_traits@D@std@@@std@@CAXPEAV_Node_base@2@0@Z
	?_Insert_node@?$_Builder@PEB_W_WV?$regex_traits@_W@std@@@std@@CAXPEAV_Node_base@2@0@Z
	?_Insert_node@?$_Tree_val@U?$_Tree_simple_types@H@std@@@std@@QEAAPEAU?$_Tree_node@HPEAX@2@U?$_Tree_id@PEAU?$_Tree_node@HPEAX@std@@@2@QEAU32@@Z
	?_Insert_node@?$_Tree_val@U?$_Tree_simple_types@PEAUllama_lora_adapter@@@std@@@std@@QEAAPEAU?$_Tree_node@PEAUllama_lora_adapter@@PEAX@2@U?$_Tree_id@PEAU?$_Tree_node@PEAUllama_lora_adapter@@PEAX@std@@@2@QEAU32@@Z
	?_Insert_node@?$_Tree_val@U?$_Tree_simple_types@U?$pair@$$CBDUnaive_trie@@@std@@@std@@@std@@QEAAPEAU?$_Tree_node@U?$pair@$$CBDUnaive_trie@@@std@@PEAX@2@U?$_Tree_id@PEAU?$_Tree_node@U?$pair@$$CBDUnaive_trie@@@std@@PEAX@std@@@2@QEAU32@@Z
	?_Insert_node@?$_Tree_val@U?$_Tree_simple_types@U?$pair@$$CBHH@std@@@std@@@std@@QEAAPEAU?$_Tree_node@U?$pair@$$CBHH@std@@PEAX@2@U?$_Tree_id@PEAU?$_Tree_node@U?$pair@$$CBHH@std@@PEAX@std@@@2@QEAU32@@Z
	?_Insert_node@?$_Tree_val@U?$_Tree_simple_types@U?$pair@$$CBHV?$basic_string@DU?$char_traits@D@std@@V?$allocator@D@2@@std@@@std@@@std@@@std@@QEAAPEAU?$_Tree_node@U?$pair@$$CBHV?$basic_string@DU?$char_traits@D@std@@V?$allocator@D@2@@std@@@std@@PEAX@2@U?$_Tree_id@PEAU?$_Tree_node@U?$pair@$$CBHV?$basic_string@DU?$char_traits@D@std@@V?$allocator@D@2@@std@@@std@@PEAX@std@@@2@QEAU32@@Z
	?_Insert_node@?$_Tree_val@U?$_Tree_simple_types@U?$pair@$$CBHV?$vector@MV?$allocator@M@std@@@std@@@std@@@std@@@std@@QEAAPEAU?$_Tree_node@U?$pair@$$CBHV?$vector@MV?$allocator@M@std@@@std@@@std@@PEAX@2@U?$_Tree_id@PEAU?$_Tree_node@U?$pair@$$CBHV?$vector@MV?$allocator@M@std@@@std@@@std@@PEAX@std@@@2@QEAU32@@Z
	?_Insert_node@?$_Tree_val@U?$_Tree_simple_types@U?$pair@$$CBIV?$basic_string@DU?$char_traits@D@std@@V?$allocator@D@2@@std@@@std@@@std@@@std@@QEAAPEAU?$_Tree_node@U?$pair@$$CBIV?$basic_string@DU?$char_traits@D@std@@V?$allocator@D@2@@std@@@std@@PEAX@2@U?$_Tree_id@PEAU?$_Tree_node@U?$pair@$$CBIV?$basic_string@DU?$char_traits@D@std@@V?$allocator@D@2@@std@@@std@@PEAX@std@@@2@QEAU32@@Z
	?_Insert_node@?$_Tree_val@U?$_Tree_simple_types@U?$pair@$$CBU?$pair@V?$basic_string@DU?$char_traits@D@std@@V?$allocator@D@2@@std@@V12@@std@@H@std@@@std@@@std@@QEAAPEAU?$_Tree_node@U?$pair@$$CBU?$pair@V?$basic_string@DU?$char_traits@D@std@@V?$allocator@D@2@@std@@V12@@std@@H@std@@PEAX@2@U?$_Tree_id@PEAU?$_Tree_node@U?$pair@$$CBU?$pair@V?$basic_string@DU?$char_traits@D@std@@V?$allocator@D@2@@std@@V12@@std@@H@std@@PEAX@std@@@2@QEAU32@@Z
	?_Insert_node@?$_Tree_val@U?$_Tree_simple_types@U?$pair@$$CBV?$basic_string@DU?$char_traits@D@std@@V?$allocator@D@2@@std@@H@std@@@std@@@std@@QEAAPEAU?$_Tree_node@U?$pair@$$CBV?$basic_string@DU?$char_traits@D@std@@V?$allocator@D@2@@std@@H@std@@PEAX@2@U?$_Tree_id@PEAU?$_Tree_node@U?$pair@$$CBV?$basic_string@DU?$char_traits@D@std@@V?$allocator@D@2@@std@@H@std@@PEAX@std@@@2@QEAU32@@Z
	?_Insert_node@?$_Tree_val@U?$_Tree_simple_types@U?$pair@$$CBV?$basic_string@DU?$char_traits@D@std@@V?$allocator@D@2@@std@@I@std@@@std@@@std@@QEAAPEAU?$_Tree_node@U?$pair@$$CBV?$basic_string@DU?$char_traits@D@std@@V?$allocator@D@2@@std@@I@std@@PEAX@2@U?$_Tree_id@PEAU?$_Tree_node@U?$pair@$$CBV?$basic_string@DU?$char_traits@D@std@@V?$allocator@D@2@@std@@I@std@@PEAX@std@@@2@QEAU32@@Z
	?_Insert_node@?$_Tree_val@U?$_Tree_simple_types@U?$pair@$$CBV?$basic_string@DU?$char_traits@D@std@@V?$allocator@D@2@@std@@U?$pair@HH@2@@std@@@std@@@std@@QEAAPEAU?$_Tree_node@U?$pair@$$CBV?$basic_string@DU?$char_traits@D@std@@V?$allocator@D@2@@std@@U?$pair@HH@2@@std@@PEAX@2@U?$_Tree_id@PEAU?$_Tree_node@U?$pair@$$CBV?$basic_string@DU?$char_traits@D@std@@V?$allocator@D@2@@std@@U?$pair@HH@2@@std@@PEAX@std@@@2@QEAU32@@Z
	?_Insert_node@?$_Tree_val@U?$_Tree_simple_types@U?$pair@$$CBV?$basic_string@DU?$char_traits@D@std@@V?$allocator@D@2@@std@@Ullama_lora_weight@@@std@@@std@@@std@@QEAAPEAU?$_Tree_node@U?$pair@$$CBV?$basic_string@DU?$char_traits@D@std@@V?$allocator@D@2@@std@@Ullama_lora_weight@@@std@@PEAX@2@U?$_Tree_id@PEAU?$_Tree_node@U?$pair@$$CBV?$basic_string@DU?$char_traits@D@std@@V?$allocator@D@2@@std@@Ullama_lora_weight@@@std@@PEAX@std@@@2@QEAU32@@Z
	?_Insert_node@?$_Tree_val@U?$_Tree_simple_types@U?$pair@$$CBV?$basic_string@DU?$char_traits@D@std@@V?$allocator@D@2@@std@@Ullama_tensor_weight@llama_model_loader@@@std@@@std@@@std@@QEAAPEAU?$_Tree_node@U?$pair@$$CBV?$basic_string@DU?$char_traits@D@std@@V?$allocator@D@2@@std@@Ullama_tensor_weight@llama_model_loader@@@std@@PEAX@2@U?$_Tree_id@PEAU?$_Tree_node@U?$pair@$$CBV?$basic_string@DU?$char_traits@D@std@@V?$allocator@D@2@@std@@Ullama_tensor_weight@llama_model_loader@@@std@@PEAX@std@@@2@QEAU32@@Z
	?_Insert_node@?$_Tree_val@U?$_Tree_simple_types@U?$pair@$$CBW4ggml_type@@I@std@@@std@@@std@@QEAAPEAU?$_Tree_node@U?$pair@$$CBW4ggml_type@@I@std@@PEAX@2@U?$_Tree_id@PEAU?$_Tree_node@U?$pair@$$CBW4ggml_type@@I@std@@PEAX@std@@@2@QEAU32@@Z
	?_Insert_node@?$_Tree_val@U?$_Tree_simple_types@U?$pair@$$CBW4llama_rope_scaling_type@@PEBD@std@@@std@@@std@@QEAAPEAU?$_Tree_node@U?$pair@$$CBW4llama_rope_scaling_type@@PEBD@std@@PEAX@2@U?$_Tree_id@PEAU?$_Tree_node@U?$pair@$$CBW4llama_rope_scaling_type@@PEBD@std@@PEAX@std@@@2@QEAU32@@Z
	?_Insert_node@?$_Tree_val@U?$_Tree_simple_types@U?$pair@$$CBW4llm_arch@@PEBD@std@@@std@@@std@@QEAAPEAU?$_Tree_node@U?$pair@$$CBW4llm_arch@@PEBD@std@@PEAX@2@U?$_Tree_id@PEAU?$_Tree_node@U?$pair@$$CBW4llm_arch@@PEBD@std@@PEAX@std@@@2@QEAU32@@Z
	?_Insert_node@?$_Tree_val@U?$_Tree_simple_types@U?$pair@$$CBW4llm_arch@@V?$map@W4llm_tensor@@PEBDU?$less@W4llm_tensor@@@std@@V?$allocator@U?$pair@$$CBW4llm_tensor@@PEBD@std@@@3@@std@@@std@@@std@@@std@@QEAAPEAU?$_Tree_node@U?$pair@$$CBW4llm_arch@@V?$map@W4llm_tensor@@PEBDU?$less@W4llm_tensor@@@std@@V?$allocator@U?$pair@$$CBW4llm_tensor@@PEBD@std@@@3@@std@@@std@@PEAX@2@U?$_Tree_id@PEAU?$_Tree_node@U?$pair@$$CBW4llm_arch@@V?$map@W4llm_tensor@@PEBDU?$less@W4llm_tensor@@@std@@V?$allocator@U?$pair@$$CBW4llm_tensor@@PEBD@std@@@3@@std@@@std@@PEAX@std@@@2@QEAU32@@Z
	?_Insert_node@?$_Tree_val@U?$_Tree_simple_types@U?$pair@$$CBW4llm_kv@@PEBD@std@@@std@@@std@@QEAAPEAU?$_Tree_node@U?$pair@$$CBW4llm_kv@@PEBD@std@@PEAX@2@U?$_Tree_id@PEAU?$_Tree_node@U?$pair@$$CBW4llm_kv@@PEBD@std@@PEAX@std@@@2@QEAU32@@Z
	?_Insert_node@?$_Tree_val@U?$_Tree_simple_types@U?$pair@$$CBW4llm_tensor@@PEBD@std@@@std@@@std@@QEAAPEAU?$_Tree_node@U?$pair@$$CBW4llm_tensor@@PEBD@std@@PEAX@2@U?$_Tree_id@PEAU?$_Tree_node@U?$pair@$$CBW4llm_tensor@@PEBD@std@@PEAX@std@@@2@QEAU32@@Z
	?_Insert_node@?$_Tree_val@U?$_Tree_simple_types@U?$pair@$$CBW4llm_tensor@@Ullm_tensor_info@@@std@@@std@@@std@@QEAAPEAU?$_Tree_node@U?$pair@$$CBW4llm_tensor@@Ullm_tensor_info@@@std@@PEAX@2@U?$_Tree_id@PEAU?$_Tree_node@U?$pair@$$CBW4llm_tensor@@Ullm_tensor_info@@@std@@PEAX@std@@@2@QEAU32@@Z
	?_Insert_node@?$_Tree_val@U?$_Tree_simple_types@U?$pair@QEAUggml_backend_buffer_type@@PEAUggml_context@@@std@@@std@@@std@@QEAAPEAU?$_Tree_node@U?$pair@QEAUggml_backend_buffer_type@@PEAUggml_context@@@std@@PEAX@2@U?$_Tree_id@PEAU?$_Tree_node@U?$pair@QEAUggml_backend_buffer_type@@PEAUggml_context@@@std@@PEAX@std@@@2@QEAU32@@Z
	?_Insert_node@?$_Tree_val@U?$_Tree_simple_types@U?$pair@QEAUggml_backend_device@@V?$vector@U?$pair@PEAUggml_backend_device@@PEAUggml_backend_buffer_type@@@std@@V?$allocator@U?$pair@PEAUggml_backend_device@@PEAUggml_backend_buffer_type@@@std@@@2@@std@@@std@@@std@@@std@@QEAAPEAU?$_Tree_node@U?$pair@QEAUggml_backend_device@@V?$vector@U?$pair@PEAUggml_backend_device@@PEAUggml_backend_buffer_type@@@std@@V?$allocator@U?$pair@PEAUggml_backend_device@@PEAUggml_backend_buffer_type@@@std@@@2@@std@@@std@@PEAX@2@U?$_Tree_id@PEAU?$_Tree_node@U?$pair@QEAUggml_backend_device@@V?$vector@U?$pair@PEAUggml_backend_device@@PEAUggml_backend_buffer_type@@@std@@V?$allocator@U?$pair@PEAUggml_backend_device@@PEAUggml_backend_buffer_type@@@std@@@2@@std@@@std@@PEAX@std@@@2@QEAU32@@Z
	?_Insert_x@?$vector@_NV?$allocator@_N@std@@@std@@QEAA_KV?$_Vb_const_iterator@U?$_Wrap_alloc@V?$allocator@I@std@@@std@@@2@_K@Z
	?_Invoke@_CancellationTokenRegistration@details@Concurrency@@AEAAXXZ
	?_IsIdentityEscape@?$_Parser@PEBDDV?$regex_traits@D@std@@@std@@AEBA_NXZ
	?_IsIdentityEscape@?$_Parser@PEB_W_WV?$regex_traits@_W@std@@@std@@AEBA_NXZ
	?_Is_esc@?$_Parser@PEBDDV?$regex_traits@D@std@@@std@@AEBA_NXZ
	?_Is_esc@?$_Parser@PEB_W_WV?$regex_traits@_W@std@@@std@@AEBA_NXZ
	?_Is_wbound@?$_Matcher@PEBDDV?$regex_traits@D@std@@PEBD@std@@AEBA_NXZ
	?_Is_wbound@?$_Matcher@PEB_W_WV?$regex_traits@_W@std@@PEB_W@std@@AEBA_NXZ
	?_Link_node@?$_Builder@PEBDDV?$regex_traits@D@std@@@std@@AEAAPEAV_Node_base@2@PEAV32@@Z
	?_Link_node@?$_Builder@PEB_W_WV?$regex_traits@_W@std@@@std@@AEAAPEAV_Node_base@2@PEAV32@@Z
	?_Lock@?$basic_filebuf@DU?$char_traits@D@std@@@std@@UEAAXXZ
	?_Lrotate@?$_Tree_val@U?$_Tree_simple_types@H@std@@@std@@QEAAXPEAU?$_Tree_node@HPEAX@2@@Z
	?_Lrotate@?$_Tree_val@U?$_Tree_simple_types@PEAUllama_lora_adapter@@@std@@@std@@QEAAXPEAU?$_Tree_node@PEAUllama_lora_adapter@@PEAX@2@@Z
	?_Maklocwcs@std@@YAPEA_WPEB_W@Z
	?_Mark_final@?$_Builder@PEBDDV?$regex_traits@D@std@@@std@@QEAAXXZ
	?_Mark_final@?$_Builder@PEB_W_WV?$regex_traits@_W@std@@@std@@QEAAXXZ
	?_Match_pat@?$_Matcher@PEBDDV?$regex_traits@D@std@@PEBD@std@@AEAA_NPEAV_Node_base@2@@Z
	?_Match_pat@?$_Matcher@PEB_W_WV?$regex_traits@_W@std@@PEB_W@std@@AEAA_NPEAV_Node_base@2@@Z
	?_Move@?$_Func_impl_no_alloc@V<lambda_052e919cc0e5399df76dff3972c0cac1>@@E$$V@std@@EEAAPEAV?$_Func_base@E$$V@2@PEAX@Z
	?_Move@?$_Func_impl_no_alloc@V<lambda_2fa3e3d11fb97352afa77a4a13bfb543>@@X$$V@std@@EEAAPEAV?$_Func_base@X$$V@2@PEAX@Z
	?_Move@?$_Func_impl_no_alloc@V<lambda_61d324d6c6ae299623b0a01e4b2f6764>@@X$$V@std@@EEAAPEAV?$_Func_base@X$$V@2@PEAX@Z
	?_Move@?$_Func_impl_no_alloc@V<lambda_763529b0c7473cbc215a52d189ac9b18>@@X$$V@std@@EEAAPEAV?$_Func_base@X$$V@2@PEAX@Z
	?_Move@?$_Func_impl_no_alloc@V<lambda_f25c37099038263181b5186a3fa41b37>@@X$$V@std@@EEAAPEAV?$_Func_base@X$$V@2@PEAX@Z
	?_Move@?$_Func_impl_no_alloc@V<lambda_f7036c9a115536b365ca4544394c825b>@@X$$V@std@@EEAAPEAV?$_Func_base@X$$V@2@PEAX@Z
	?_Move@?$_Func_impl_no_alloc@V?$_Fake_no_copy_callable_adapter@V<lambda_3f39357f5ebcd3550b555fa53c33d10a>@@@std@@U?$pair@PEAUggml_tensor@@_N@2@$$V@std@@EEAAPEAV?$_Func_base@U?$pair@PEAUggml_tensor@@_N@std@@$$V@2@PEAX@Z
	?_Move@?$_Func_impl_no_alloc@V?$_Fake_no_copy_callable_adapter@V<lambda_e3b97c3ad3d076d7964efd5d963695f6>@@@std@@U?$pair@PEAUggml_tensor@@_N@2@$$V@std@@EEAAPEAV?$_Func_base@U?$pair@PEAUggml_tensor@@_N@std@@$$V@2@PEAX@Z
	?_Negate@?$_Builder@PEBDDV?$regex_traits@D@std@@@std@@QEAAXXZ
	?_Negate@?$_Builder@PEB_W_WV?$regex_traits@_W@std@@@std@@QEAAXXZ
	?_New_node@?$_Builder@PEBDDV?$regex_traits@D@std@@@std@@AEAAPEAV_Node_base@2@W4_Node_type@2@@Z
	?_New_node@?$_Builder@PEB_W_WV?$regex_traits@_W@std@@@std@@AEAAPEAV_Node_base@2@W4_Node_type@2@@Z
	?_Next@?$_Parser@PEBDDV?$regex_traits@D@std@@@std@@AEAAXXZ
	?_Next@?$_Parser@PEB_W_WV?$regex_traits@_W@std@@@std@@AEAAXXZ
	?_NoCallOnDefaultTask_ErrorImpl@_DefaultTaskHelper@details@Concurrency@@SAXXZ
	?_OctalDigits@?$_Parser@PEBDDV?$regex_traits@D@std@@@std@@AEAA_NXZ
	?_OctalDigits@?$_Parser@PEB_W_WV?$regex_traits@_W@std@@@std@@AEAA_NXZ
	?_Perform@?$_Init_func_transformer@X@Concurrency@@SA?AV?$function@$$A6AEXZ@std@@V?$function@$$A6AXXZ@4@@Z
	?_Quantifier@?$_Parser@PEBDDV?$regex_traits@D@std@@@std@@AEAAXXZ
	?_Quantifier@?$_Parser@PEB_W_WV?$regex_traits@_W@std@@@std@@AEAAXXZ
	?_RegisterCallback@_CancellationTokenState@details@Concurrency@@QEAAXPEAV_CancellationTokenRegistration@23@@Z
	?_RegisterCancellation@_Task_impl_base@details@Concurrency@@QEAAXV?$weak_ptr@U_Task_impl_base@details@Concurrency@@@std@@@Z
	?_Rehash_for_1@?$_Hash@V?$_Umap_traits@IPEAUggml_backend_buffer@@V?$_Uhash_compare@IU?$hash@I@std@@U?$equal_to@I@2@@std@@V?$allocator@U?$pair@$$CBIPEAUggml_backend_buffer@@@std@@@3@$0A@@std@@@std@@IEAAXXZ
	?_Reset_back@?$basic_filebuf@DU?$char_traits@D@std@@@std@@AEAAXXZ
	?_Resize@?$match_results@PEBDV?$allocator@V?$sub_match@PEBD@std@@@std@@@std@@QEAAXI@Z
	?_Resize@?$match_results@PEB_WV?$allocator@V?$sub_match@PEB_W@std@@@std@@@std@@QEAAXI@Z
	?_RethrowUserException@_ExceptionHolder@details@Concurrency@@QEAAXXZ
	?_Rrotate@?$_Tree_val@U?$_Tree_simple_types@H@std@@@std@@QEAAXPEAU?$_Tree_node@HPEAX@2@@Z
	?_Rrotate@?$_Tree_val@U?$_Tree_simple_types@PEAUllama_lora_adapter@@@std@@@std@@QEAAXPEAU?$_Tree_node@PEAUllama_lora_adapter@@PEAX@2@@Z
	?_RunChoreBridge@_TaskProcHandle@details@Concurrency@@SAXPEAX@Z
	?_RunTaskContinuations@_Task_impl_base@details@Concurrency@@QEAAXXZ
	?_Run_deferred_function@?$_Associated_state@U?$pair@PEAUggml_tensor@@_N@std@@@std@@EEAAXAEAV?$unique_lock@Vmutex@std@@@2@@Z
	?_Run_deferred_function@?$_Deferred_async_state@U?$pair@PEAUggml_tensor@@_N@std@@@std@@EEAAXAEAV?$unique_lock@Vmutex@std@@@2@@Z
	?_ScheduleContinuationTask@_Task_impl_base@details@Concurrency@@QEAAXPEAU_ContinuationTaskHandleBase@23@@Z
	?_ScheduleFuncWithAutoInline@details@Concurrency@@YAXAEBV?$function@$$A6AXXZ@std@@W4_TaskInliningMode@12@@Z
	?_ScheduleTask@_Task_impl_base@details@Concurrency@@QEAAXPEAU_TaskProcHandle@23@W4_TaskInliningMode@23@@Z
	?_Set_exception@?$_Associated_state@U?$pair@PEAUggml_tensor@@_N@std@@@std@@QEAAXVexception_ptr@2@_N@Z
	?_Setlong@?$_Builder@PEBDDV?$regex_traits@D@std@@@std@@QEAAXXZ
	?_Setlong@?$_Builder@PEB_W_WV?$regex_traits@_W@std@@@std@@QEAAXXZ
	?_Skip@?$_Matcher@PEBDDV?$regex_traits@D@std@@PEBD@std@@QEAAPEBDPEBD0PEAV_Node_base@2@@Z
	?_Skip@?$_Matcher@PEB_W_WV?$regex_traits@_W@std@@PEB_W@std@@QEAAPEB_WPEB_W0PEAV_Node_base@2@@Z
	?_Target_type@?$_Func_impl_no_alloc@V<lambda_052e919cc0e5399df76dff3972c0cac1>@@E$$V@std@@EEBAAEBVtype_info@@XZ
	?_Target_type@?$_Func_impl_no_alloc@V<lambda_2fa3e3d11fb97352afa77a4a13bfb543>@@X$$V@std@@EEBAAEBVtype_info@@XZ
	?_Target_type@?$_Func_impl_no_alloc@V<lambda_61d324d6c6ae299623b0a01e4b2f6764>@@X$$V@std@@EEBAAEBVtype_info@@XZ
	?_Target_type@?$_Func_impl_no_alloc@V<lambda_763529b0c7473cbc215a52d189ac9b18>@@X$$V@std@@EEBAAEBVtype_info@@XZ
	?_Target_type@?$_Func_impl_no_alloc@V<lambda_f25c37099038263181b5186a3fa41b37>@@X$$V@std@@EEBAAEBVtype_info@@XZ
	?_Target_type@?$_Func_impl_no_alloc@V<lambda_f7036c9a115536b365ca4544394c825b>@@X$$V@std@@EEBAAEBVtype_info@@XZ
	?_Target_type@?$_Func_impl_no_alloc@V?$_Fake_no_copy_callable_adapter@V<lambda_3f39357f5ebcd3550b555fa53c33d10a>@@@std@@U?$pair@PEAUggml_tensor@@_N@2@$$V@std@@EEBAAEBVtype_info@@XZ
	?_Target_type@?$_Func_impl_no_alloc@V?$_Fake_no_copy_callable_adapter@V<lambda_e3b97c3ad3d076d7964efd5d963695f6>@@@std@@U?$pair@PEAUggml_tensor@@_N@2@$$V@std@@EEBAAEBVtype_info@@XZ
	?_Throw_bad_array_new_length@std@@YAXXZ
	?_Throw_bad_cast@std@@YAXXZ
	?_Throw_future_error2@std@@YAXW4future_errc@1@@Z
	?_Throw_range_error@std@@YAXQEBD@Z
	?_Throw_system_error@std@@YAXW4errc@1@@Z
	?_Throw_tree_length_error@std@@YAXXZ
	?_Tidy@?$_Builder@PEBDDV?$regex_traits@D@std@@@std@@QEAAXXZ
	?_Tidy@?$_Builder@PEB_W_WV?$regex_traits@_W@std@@@std@@QEAAXXZ
	?_Tidy@?$basic_regex@DV?$regex_traits@D@std@@@std@@AEAAXXZ
	?_Tidy@?$basic_regex@_WV?$regex_traits@_W@std@@@std@@AEAAXXZ
	?_Tidy@?$vector@NV?$allocator@N@std@@@std@@AEAAXXZ
	?_Tidy@?$vector@Ubest_tokenization@llm_tokenizer_ugm_session@@V?$allocator@Ubest_tokenization@llm_tokenizer_ugm_session@@@std@@@std@@AEAAXXZ
	?_Tidy@?$vector@Ullama_grammar_candidate@@V?$allocator@Ullama_grammar_candidate@@@std@@@std@@AEAAXXZ
	?_Tidy@?$vector@Ullama_token_data@@V?$allocator@Ullama_token_data@@@std@@@std@@AEAAXXZ
	?_Tidy@?$vector@Ullm_bigram_bpe@@V?$allocator@Ullm_bigram_bpe@@@std@@@std@@AEAAXXZ
	?_Tidy@?$vector@V?$basic_string@DU?$char_traits@D@std@@V?$allocator@D@2@@std@@V?$allocator@V?$basic_string@DU?$char_traits@D@std@@V?$allocator@D@2@@std@@@2@@std@@AEAAXXZ
	?_Tidy@?$vector@V?$sub_match@PEBD@std@@V?$allocator@V?$sub_match@PEBD@std@@@2@@std@@AEAAXXZ
	?_Tidy@?$vector@V?$sub_match@PEB_W@std@@V?$allocator@V?$sub_match@PEB_W@std@@@2@@std@@AEAAXXZ
	?_Tidy@?$vector@V?$unique_ptr@Ugguf_context@@Ugguf_context_deleter@@@std@@V?$allocator@V?$unique_ptr@Ugguf_context@@Ugguf_context_deleter@@@std@@@2@@std@@AEAAXXZ
	?_Tidy@?$vector@V?$vector@PEBUllama_grammar_element@@V?$allocator@PEBUllama_grammar_element@@@std@@@std@@V?$allocator@V?$vector@PEBUllama_grammar_element@@V?$allocator@PEBUllama_grammar_element@@@std@@@std@@@2@@std@@AEAAXXZ
	?_Tidy@?$vector@V?$vector@Ullama_grammar_element@@V?$allocator@Ullama_grammar_element@@@std@@@std@@V?$allocator@V?$vector@Ullama_grammar_element@@V?$allocator@Ullama_grammar_element@@@std@@@std@@@2@@std@@AEAAXXZ
	?_Tidy_deallocate@?$basic_string@DU?$char_traits@D@std@@V?$allocator@D@2@@std@@AEAAXXZ
	?_Tidy_deallocate@?$basic_string@_WU?$char_traits@_W@std@@V?$allocator@_W@2@@std@@AEAAXXZ
	?_Trans@?$_Parser@PEBDDV?$regex_traits@D@std@@@std@@AEAAXXZ
	?_Trans@?$_Parser@PEB_W_WV?$regex_traits@_W@std@@@std@@AEAAXXZ
	?_TransitionedToStarted@?$_Task_impl@E@details@Concurrency@@QEAA_NXZ
	?_Trim@?$vector@_NV?$allocator@_N@std@@@std@@QEAAX_K@Z
	?_Unchecked_erase@?$_Hash@V?$_Umap_traits@HHV?$_Uhash_compare@HU?$hash@H@std@@U?$equal_to@H@2@@std@@V?$allocator@U?$pair@$$CBHH@std@@@2@$0A@@std@@@std@@AEAAPEAU?$_List_node@U?$pair@$$CBHH@std@@PEAX@2@PEAU32@QEAU32@@Z
	?_Unchecked_erase@?$_Hash@V?$_Umap_traits@HV?$vector@HV?$allocator@H@std@@@std@@V?$_Uhash_compare@HU?$hash@H@std@@U?$equal_to@H@2@@2@V?$allocator@U?$pair@$$CBHV?$vector@HV?$allocator@H@std@@@std@@@std@@@2@$00@std@@@std@@AEAAPEAU?$_List_node@U?$pair@$$CBHV?$vector@HV?$allocator@H@std@@@std@@@std@@PEAX@2@PEAU32@QEAU32@@Z
	?_Unchecked_erase@?$_Hash@V?$_Umap_traits@PEAUllama_lora_adapter@@MV?$_Uhash_compare@PEAUllama_lora_adapter@@U?$hash@PEAUllama_lora_adapter@@@std@@U?$equal_to@PEAUllama_lora_adapter@@@3@@std@@V?$allocator@U?$pair@QEAUllama_lora_adapter@@M@std@@@3@$0A@@std@@@std@@AEAAPEAU?$_List_node@U?$pair@QEAUllama_lora_adapter@@M@std@@PEAX@2@PEAU32@QEAU32@@Z
	?_Unlock@?$basic_filebuf@DU?$char_traits@D@std@@@std@@UEAAXXZ
	?_Wait@?$_Associated_state@U?$pair@PEAUggml_tensor@@_N@std@@@std@@UEAAXXZ
	?_Wait@?$_Task_async_state@U?$pair@PEAUggml_tensor@@_N@std@@@std@@UEAAXXZ
	?_Wait@_TaskCollectionBaseImpl@details@Concurrency@@QEAAXXZ
	?_Wait@_Task_impl_base@details@Concurrency@@QEAA?AW4task_group_status@3@XZ
	?_Wrapped_disjunction@?$_Parser@PEBDDV?$regex_traits@D@std@@@std@@AEAA_NXZ
	?_Wrapped_disjunction@?$_Parser@PEB_W_WV?$regex_traits@_W@std@@@std@@AEAA_NXZ
	?_Xlen@?$vector@_NV?$allocator@_N@std@@@std@@SAXXZ
	?_Xlen_string@std@@YAXXZ
	?_Xlength@?$vector@CV?$allocator@C@std@@@std@@CAXXZ
	?_Xlength@?$vector@DV?$allocator@D@std@@@std@@CAXXZ
	?_Xlength@?$vector@EV?$allocator@E@std@@@std@@CAXXZ
	?_Xlength@?$vector@HV?$allocator@H@std@@@std@@CAXXZ
	?_Xlength@?$vector@IV?$allocator@I@std@@@std@@CAXXZ
	?_Xlength@?$vector@MV?$allocator@M@std@@@std@@CAXXZ
	?_Xlength@?$vector@NV?$allocator@N@std@@@std@@CAXXZ
	?_Xlength@?$vector@PEAHV?$allocator@PEAH@std@@@std@@CAXXZ
	?_Xlength@?$vector@PEAUggml_backend@@V?$allocator@PEAUggml_backend@@@std@@@std@@CAXXZ
	?_Xlength@?$vector@PEAUggml_backend_buffer@@V?$allocator@PEAUggml_backend_buffer@@@std@@@std@@CAXXZ
	?_Xlength@?$vector@PEAUggml_backend_buffer_type@@V?$allocator@PEAUggml_backend_buffer_type@@@std@@@std@@CAXXZ
	?_Xlength@?$vector@PEAUggml_backend_device@@V?$allocator@PEAUggml_backend_device@@@std@@@std@@CAXXZ
	?_Xlength@?$vector@PEAUggml_backend_event@@V?$allocator@PEAUggml_backend_event@@@std@@@std@@CAXXZ
	?_Xlength@?$vector@PEAUggml_tensor@@V?$allocator@PEAUggml_tensor@@@std@@@std@@CAXXZ
	?_Xlength@?$vector@PEAUllama_sampler@@V?$allocator@PEAUllama_sampler@@@std@@@std@@CAXXZ
	?_Xlength@?$vector@PEAUllama_token_data@@V?$allocator@PEAUllama_token_data@@@std@@@std@@CAXXZ
	?_Xlength@?$vector@PEAXV?$allocator@PEAX@std@@@std@@CAXXZ
	?_Xlength@?$vector@PEBUllama_chat_message@@V?$allocator@PEBUllama_chat_message@@@std@@@std@@CAXXZ
	?_Xlength@?$vector@PEBUllama_grammar_element@@V?$allocator@PEBUllama_grammar_element@@@std@@@std@@CAXXZ
	?_Xlength@?$vector@PEBUllama_tensor_weight@llama_model_loader@@V?$allocator@PEBUllama_tensor_weight@llama_model_loader@@@std@@@std@@CAXXZ
	?_Xlength@?$vector@U?$no_init@E@@V?$allocator@U?$no_init@E@@@std@@@std@@CAXXZ
	?_Xlength@?$vector@U?$no_init@M@@V?$allocator@U?$no_init@M@@@std@@@std@@CAXXZ
	?_Xlength@?$vector@U?$pair@II@std@@V?$allocator@U?$pair@II@std@@@2@@std@@CAXXZ
	?_Xlength@?$vector@U?$pair@PEAUggml_backend@@P6AXPEAU1@H@Z@std@@V?$allocator@U?$pair@PEAUggml_backend@@P6AXPEAU1@H@Z@std@@@2@@std@@CAXXZ
	?_Xlength@?$vector@U?$pair@PEAUggml_backend_device@@PEAUggml_backend_buffer_type@@@std@@V?$allocator@U?$pair@PEAUggml_backend_device@@PEAUggml_backend_buffer_type@@@std@@@2@@std@@CAXXZ
	?_Xlength@?$vector@U?$pair@PEAUggml_context@@V?$unordered_map@IPEAUggml_backend_buffer@@U?$hash@I@std@@U?$equal_to@I@3@V?$allocator@U?$pair@$$CBIPEAUggml_backend_buffer@@@std@@@3@@std@@@std@@V?$allocator@U?$pair@PEAUggml_context@@V?$unordered_map@IPEAUggml_backend_buffer@@U?$hash@I@std@@U?$equal_to@I@3@V?$allocator@U?$pair@$$CBIPEAUggml_backend_buffer@@@std@@@3@@std@@@std@@@2@@std@@CAXXZ
	?_Xlength@?$vector@U?$pair@V?$basic_string@DU?$char_traits@D@std@@V?$allocator@D@2@@std@@PEAUggml_tensor@@@std@@V?$allocator@U?$pair@V?$basic_string@DU?$char_traits@D@std@@V?$allocator@D@2@@std@@PEAUggml_tensor@@@std@@@2@@std@@CAXXZ
	?_Xlength@?$vector@U?$pair@V?$vector@IV?$allocator@I@std@@@std@@Ullama_partial_utf8@@@std@@V?$allocator@U?$pair@V?$vector@IV?$allocator@I@std@@@std@@Ullama_partial_utf8@@@std@@@2@@std@@CAXXZ
	?_Xlength@?$vector@U?$pair@_K_K@std@@V?$allocator@U?$pair@_K_K@std@@@2@@std@@CAXXZ
	?_Xlength@?$vector@U_Grp_t@?$_Tgt_state_t@PEBD@std@@V?$allocator@U_Grp_t@?$_Tgt_state_t@PEBD@std@@@3@@std@@CAXXZ
	?_Xlength@?$vector@U_Grp_t@?$_Tgt_state_t@PEB_W@std@@V?$allocator@U_Grp_t@?$_Tgt_state_t@PEB_W@std@@@3@@std@@CAXXZ
	?_Xlength@?$vector@U_Loop_vals_t@std@@V?$allocator@U_Loop_vals_t@std@@@2@@std@@CAXXZ
	?_Xlength@?$vector@Ubest_tokenization@llm_tokenizer_ugm_session@@V?$allocator@Ubest_tokenization@llm_tokenizer_ugm_session@@@std@@@std@@CAXXZ
	?_Xlength@?$vector@Ulayer_dev@llama_model@@V?$allocator@Ulayer_dev@llama_model@@@std@@@std@@CAXXZ
	?_Xlength@?$vector@Ullama_grammar_candidate@@V?$allocator@Ullama_grammar_candidate@@@std@@@std@@CAXXZ
	?_Xlength@?$vector@Ullama_grammar_element@@V?$allocator@Ullama_grammar_element@@@std@@@std@@CAXXZ
	?_Xlength@?$vector@Ullama_kv_cell@@V?$allocator@Ullama_kv_cell@@@std@@@std@@CAXXZ
	?_Xlength@?$vector@Ullama_layer@@V?$allocator@Ullama_layer@@@std@@@std@@CAXXZ
	?_Xlength@?$vector@Ullama_logit_bias@@V?$allocator@Ullama_logit_bias@@@std@@@std@@CAXXZ
	?_Xlength@?$vector@Ullama_sbatch_seq@@V?$allocator@Ullama_sbatch_seq@@@std@@@std@@CAXXZ
	?_Xlength@?$vector@Ullama_token_data@@V?$allocator@Ullama_token_data@@@std@@@std@@CAXXZ
	?_Xlength@?$vector@Ullm_bigram_bpe@@V?$allocator@Ullm_bigram_bpe@@@std@@@std@@CAXXZ
	?_Xlength@?$vector@Ullm_bigram_spm@@V?$allocator@Ullm_bigram_spm@@@std@@@std@@CAXXZ
	?_Xlength@?$vector@Ullm_symbol@@V?$allocator@Ullm_symbol@@@std@@@std@@CAXXZ
	?_Xlength@?$vector@Utoken_data@llama_vocab@@V?$allocator@Utoken_data@llama_vocab@@@std@@@std@@CAXXZ
	?_Xlength@?$vector@V?$basic_string@DU?$char_traits@D@std@@V?$allocator@D@2@@std@@V?$allocator@V?$basic_string@DU?$char_traits@D@std@@V?$allocator@D@2@@std@@@2@@std@@CAXXZ
	?_Xlength@?$vector@V?$future@U?$pair@PEAUggml_tensor@@_N@std@@@std@@V?$allocator@V?$future@U?$pair@PEAUggml_tensor@@_N@std@@@std@@@2@@std@@CAXXZ
	?_Xlength@?$vector@V?$set@HU?$less@H@std@@V?$allocator@H@2@@std@@V?$allocator@V?$set@HU?$less@H@std@@V?$allocator@H@2@@std@@@2@@std@@CAXXZ
	?_Xlength@?$vector@V?$sub_match@PEBD@std@@V?$allocator@V?$sub_match@PEBD@std@@@2@@std@@CAXXZ
	?_Xlength@?$vector@V?$sub_match@PEB_W@std@@V?$allocator@V?$sub_match@PEB_W@std@@@2@@std@@CAXXZ
	?_Xlength@?$vector@V?$unique_ptr@Uggml_backend@@Uggml_backend_deleter@@@std@@V?$allocator@V?$unique_ptr@Uggml_backend@@Uggml_backend_deleter@@@std@@@2@@std@@CAXXZ
	?_Xlength@?$vector@V?$unique_ptr@Uggml_backend_buffer@@Uggml_backend_buffer_deleter@@@std@@V?$allocator@V?$unique_ptr@Uggml_backend_buffer@@Uggml_backend_buffer_deleter@@@std@@@2@@std@@CAXXZ
	?_Xlength@?$vector@V?$unique_ptr@Uggml_context@@Uggml_context_deleter@@@std@@V?$allocator@V?$unique_ptr@Uggml_context@@Uggml_context_deleter@@@std@@@2@@std@@CAXXZ
	?_Xlength@?$vector@V?$unique_ptr@Ullama_file@@U?$default_delete@Ullama_file@@@std@@@std@@V?$allocator@V?$unique_ptr@Ullama_file@@U?$default_delete@Ullama_file@@@std@@@std@@@2@@std@@CAXXZ
	?_Xlength@?$vector@V?$unique_ptr@Ullama_mlock@@U?$default_delete@Ullama_mlock@@@std@@@std@@V?$allocator@V?$unique_ptr@Ullama_mlock@@U?$default_delete@Ullama_mlock@@@std@@@std@@@2@@std@@CAXXZ
	?_Xlength@?$vector@V?$unique_ptr@Ullama_mmap@@U?$default_delete@Ullama_mmap@@@std@@@std@@V?$allocator@V?$unique_ptr@Ullama_mmap@@U?$default_delete@Ullama_mmap@@@std@@@std@@@2@@std@@CAXXZ
	?_Xlength@?$vector@V?$vector@PEBUllama_grammar_element@@V?$allocator@PEBUllama_grammar_element@@@std@@@std@@V?$allocator@V?$vector@PEBUllama_grammar_element@@V?$allocator@PEBUllama_grammar_element@@@std@@@std@@@2@@std@@CAXXZ
	?_Xlength@?$vector@V?$vector@Ullama_grammar_element@@V?$allocator@Ullama_grammar_element@@@std@@@std@@V?$allocator@V?$vector@Ullama_grammar_element@@V?$allocator@Ullama_grammar_element@@@std@@@std@@@2@@std@@CAXXZ
	?_Xlength@?$vector@Vthread@std@@V?$allocator@Vthread@std@@@2@@std@@CAXXZ
	?_Xlength@?$vector@_JV?$allocator@_J@std@@@std@@CAXXZ
	?_Xlength@?$vector@_KV?$allocator@_K@std@@@std@@CAXXZ
	?_Xlength@?$vector@_WV?$allocator@_W@std@@@std@@CAXXZ
	?_Xran@?$_String_val@U?$_Simple_types@D@std@@@std@@SAXXZ
	?_Xrange@?$vector@PEAUggml_backend_device@@V?$allocator@PEAUggml_backend_device@@@std@@@std@@CAXXZ
	?_Xrange@?$vector@U?$pair@_K_K@std@@V?$allocator@U?$pair@_K_K@std@@@2@@std@@CAXXZ
	?_Xrange@?$vector@Ulayer_dev@llama_model@@V?$allocator@Ulayer_dev@llama_model@@@std@@@std@@CAXXZ
	?_Xrange@?$vector@Utoken_data@llama_vocab@@V?$allocator@Utoken_data@llama_vocab@@@std@@@std@@CAXXZ
	?_Xrange@?$vector@V?$basic_string@DU?$char_traits@D@std@@V?$allocator@D@2@@std@@V?$allocator@V?$basic_string@DU?$char_traits@D@std@@V?$allocator@D@2@@std@@@2@@std@@CAXXZ
	?_Xrange@?$vector@V?$unique_ptr@Ullama_file@@U?$default_delete@Ullama_file@@@std@@@std@@V?$allocator@V?$unique_ptr@Ullama_file@@U?$default_delete@Ullama_file@@@std@@@std@@@2@@std@@CAXXZ
	?_Xrange@?$vector@V?$unique_ptr@Ullama_mlock@@U?$default_delete@Ullama_mlock@@@std@@@std@@V?$allocator@V?$unique_ptr@Ullama_mlock@@U?$default_delete@Ullama_mlock@@@std@@@std@@@2@@std@@CAXXZ
	?_Xrange@?$vector@V?$unique_ptr@Ullama_mmap@@U?$default_delete@Ullama_mmap@@@std@@@std@@V?$allocator@V?$unique_ptr@Ullama_mmap@@U?$default_delete@Ullama_mmap@@@std@@@std@@@2@@std@@CAXXZ
	?_Xrange@?$vector@_JV?$allocator@_J@std@@@std@@CAXXZ
	?add_new_bigram@llm_tokenizer_bpe_session@@AEAAXHH@Z
	?add_rule@llama_grammar_parser@@QEAAXIAEBV?$vector@Ullama_grammar_element@@V?$allocator@Ullama_grammar_element@@@std@@@std@@@Z
	?add_seq_to_ubatch@llama_sbatch@@QEAAXAEAUllama_ubatch@@AEAUllama_sbatch_seq@@_K@Z
	?allocate@?$allocator@U?$_List_node@U?$pair@$$CBIPEAUggml_backend_buffer@@@std@@PEAX@std@@@std@@QEAAPEAU?$_List_node@U?$pair@$$CBIPEAUggml_backend_buffer@@@std@@PEAX@2@_K@Z
	?allocate@?$allocator@U?$_Tree_node@U?$pair@$$CBHH@std@@PEAX@std@@@std@@QEAAPEAU?$_Tree_node@U?$pair@$$CBHH@std@@PEAX@2@_K@Z
	?allocate@?$allocator@U?$_Tree_node@U?$pair@$$CBHV?$basic_string@DU?$char_traits@D@std@@V?$allocator@D@2@@std@@@std@@PEAX@std@@@std@@QEAAPEAU?$_Tree_node@U?$pair@$$CBHV?$basic_string@DU?$char_traits@D@std@@V?$allocator@D@2@@std@@@std@@PEAX@2@_K@Z
	?allocate@?$allocator@U?$_Tree_node@U?$pair@$$CBV?$basic_string@DU?$char_traits@D@std@@V?$allocator@D@2@@std@@H@std@@PEAX@std@@@std@@QEAAPEAU?$_Tree_node@U?$pair@$$CBV?$basic_string@DU?$char_traits@D@std@@V?$allocator@D@2@@std@@H@std@@PEAX@2@_K@Z
	?allocate@?$allocator@U?$_Tree_node@U?$pair@$$CBV?$basic_string@DU?$char_traits@D@std@@V?$allocator@D@2@@std@@U?$pair@HH@2@@std@@PEAX@std@@@std@@QEAAPEAU?$_Tree_node@U?$pair@$$CBV?$basic_string@DU?$char_traits@D@std@@V?$allocator@D@2@@std@@U?$pair@HH@2@@std@@PEAX@2@_K@Z
	?allocate@?$allocator@U?$_Tree_node@U?$pair@$$CBW4ggml_type@@I@std@@PEAX@std@@@std@@QEAAPEAU?$_Tree_node@U?$pair@$$CBW4ggml_type@@I@std@@PEAX@2@_K@Z
	?allocate@?$allocator@U?$_Tree_node@U?$pair@QEAUggml_backend_buffer_type@@PEAUggml_context@@@std@@PEAX@std@@@std@@QEAAPEAU?$_Tree_node@U?$pair@QEAUggml_backend_buffer_type@@PEAUggml_context@@@std@@PEAX@2@_K@Z
	?append@?$basic_string@DU?$char_traits@D@std@@V?$allocator@D@2@@std@@QEAAAEAV12@QEBD_K@Z
	?append_pooling@llm_build_context@@QEAAPEAUggml_cgraph@@PEAU2@@Z
	?assign@?$basic_string@DU?$char_traits@D@std@@V?$allocator@D@2@@std@@QEAAAEAV12@QEBD_K@Z
	?assign@?$vector@NV?$allocator@N@std@@@std@@QEAAX_KAEBN@Z
	?at@?$unordered_map@IPEAUggml_backend_buffer@@U?$hash@I@std@@U?$equal_to@I@3@V?$allocator@U?$pair@$$CBIPEAUggml_backend_buffer@@@std@@@3@@std@@QEAAAEAPEAUggml_backend_buffer@@AEBI@Z
	?at@?$unordered_map@V?$basic_string@DU?$char_traits@D@std@@V?$allocator@D@2@@std@@HU?$hash@V?$basic_string@DU?$char_traits@D@std@@V?$allocator@D@2@@std@@@2@U?$equal_to@V?$basic_string@DU?$char_traits@D@std@@V?$allocator@D@2@@std@@@2@V?$allocator@U?$pair@$$CBV?$basic_string@DU?$char_traits@D@std@@V?$allocator@D@2@@std@@H@std@@@2@@std@@QEBAAEBHAEBV?$basic_string@DU?$char_traits@D@std@@V?$allocator@D@2@@2@@Z
	?build_arctic@llm_build_context@@QEAAPEAUggml_cgraph@@XZ
	?build_baichuan@llm_build_context@@QEAAPEAUggml_cgraph@@XZ
	?build_bert@llm_build_context@@QEAAPEAUggml_cgraph@@XZ
	?build_bitnet@llm_build_context@@QEAAPEAUggml_cgraph@@XZ
	?build_bloom@llm_build_context@@QEAAPEAUggml_cgraph@@XZ
	?build_chameleon@llm_build_context@@QEAAPEAUggml_cgraph@@XZ
	?build_chatglm@llm_build_context@@QEAAPEAUggml_cgraph@@XZ
	?build_codeshell@llm_build_context@@QEAAPEAUggml_cgraph@@XZ
	?build_command_r@llm_build_context@@QEAAPEAUggml_cgraph@@XZ
	?build_dbrx@llm_build_context@@QEAAPEAUggml_cgraph@@XZ
	?build_deepseek2@llm_build_context@@QEAAPEAUggml_cgraph@@XZ
	?build_defrag@llm_build_context@@QEAAPEAUggml_cgraph@@AEBV?$vector@IV?$allocator@I@std@@@std@@@Z
	?build_exaone@llm_build_context@@QEAAPEAUggml_cgraph@@XZ
	?build_falcon@llm_build_context@@QEAAPEAUggml_cgraph@@XZ
	?build_gemma2@llm_build_context@@QEAAPEAUggml_cgraph@@XZ
	?build_gemma@llm_build_context@@QEAAPEAUggml_cgraph@@XZ
	?build_gpt2@llm_build_context@@QEAAPEAUggml_cgraph@@XZ
	?build_gptneox@llm_build_context@@QEAAPEAUggml_cgraph@@XZ
	?build_grok@llm_build_context@@QEAAPEAUggml_cgraph@@XZ
	?build_inp_KQ_mask@llm_build_context@@QEAAPEAUggml_tensor@@_N@Z
	?build_inp_KQ_mask_swa@llm_build_context@@QEAAPEAUggml_tensor@@_N@Z
	?build_inp_cls@llm_build_context@@QEAAPEAUggml_tensor@@XZ
	?build_inp_out_ids@llm_build_context@@QEAAPEAUggml_tensor@@XZ
	?build_inp_pos@llm_build_context@@QEAAPEAUggml_tensor@@XZ
	?build_inp_s_copy@llm_build_context@@QEAAPEAUggml_tensor@@XZ
	?build_inp_s_mask@llm_build_context@@QEAAPEAUggml_tensor@@XZ
	?build_internlm2@llm_build_context@@QEAAPEAUggml_cgraph@@XZ
	?build_jais@llm_build_context@@QEAAPEAUggml_cgraph@@XZ
	?build_k_shift@llm_build_context@@QEAAPEAUggml_cgraph@@XZ
	?build_llama@llm_build_context@@QEAAPEAUggml_cgraph@@XZ
	?build_mamba@llm_build_context@@QEAAPEAUggml_cgraph@@XZ
	?build_minicpm3@llm_build_context@@QEAAPEAUggml_cgraph@@XZ
	?build_minicpm@llm_build_context@@QEAAPEAUggml_cgraph@@XZ
	?build_mpt@llm_build_context@@QEAAPEAUggml_cgraph@@XZ
	?build_nemotron@llm_build_context@@QEAAPEAUggml_cgraph@@XZ
	?build_olmo2@llm_build_context@@QEAAPEAUggml_cgraph@@XZ
	?build_olmo@llm_build_context@@QEAAPEAUggml_cgraph@@XZ
	?build_olmoe@llm_build_context@@QEAAPEAUggml_cgraph@@XZ
	?build_openelm@llm_build_context@@QEAAPEAUggml_cgraph@@XZ
	?build_orion@llm_build_context@@QEAAPEAUggml_cgraph@@XZ
	?build_phi2@llm_build_context@@QEAAPEAUggml_cgraph@@XZ
	?build_phi3@llm_build_context@@QEAAPEAUggml_cgraph@@XZ
	?build_plamo@llm_build_context@@QEAAPEAUggml_cgraph@@XZ
	?build_qwen2@llm_build_context@@QEAAPEAUggml_cgraph@@XZ
	?build_qwen2moe@llm_build_context@@QEAAPEAUggml_cgraph@@XZ
	?build_qwen@llm_build_context@@QEAAPEAUggml_cgraph@@XZ
	?build_refact@llm_build_context@@QEAAPEAUggml_cgraph@@XZ
	?build_rwkv6@llm_build_context@@QEAAPEAUggml_cgraph@@XZ
	?build_stablelm@llm_build_context@@QEAAPEAUggml_cgraph@@XZ
	?build_starcoder2@llm_build_context@@QEAAPEAUggml_cgraph@@XZ
	?build_starcoder@llm_build_context@@QEAAPEAUggml_cgraph@@XZ
	?build_t5_decoder@llm_build_context@@QEAAPEAUggml_cgraph@@XZ
	?build_t5_encoder@llm_build_context@@QEAAPEAUggml_cgraph@@XZ
	?build_xverse@llm_build_context@@QEAAPEAUggml_cgraph@@XZ
	?c_rules@llama_grammar_parser@@QEBA?AV?$vector@PEBUllama_grammar_element@@V?$allocator@PEBUllama_grammar_element@@@std@@@std@@XZ
	?c_str@?$basic_string@DU?$char_traits@D@std@@V?$allocator@D@2@@std@@QEBAPEBDXZ
	?clear@?$_Hash@V?$_Umap_traits@HHV?$_Uhash_compare@HU?$hash@H@std@@U?$equal_to@H@2@@std@@V?$allocator@U?$pair@$$CBHH@std@@@2@$0A@@std@@@std@@QEAAXXZ
	?clear@?$_Hash@V?$_Umap_traits@HV?$vector@HV?$allocator@H@std@@@std@@V?$_Uhash_compare@HU?$hash@H@std@@U?$equal_to@H@2@@2@V?$allocator@U?$pair@$$CBHV?$vector@HV?$allocator@H@std@@@std@@@std@@@2@$00@std@@@std@@QEAAXXZ
	?clear@?$_Hash@V?$_Umap_traits@PEAUllama_lora_adapter@@MV?$_Uhash_compare@PEAUllama_lora_adapter@@U?$hash@PEAUllama_lora_adapter@@@std@@U?$equal_to@PEAUllama_lora_adapter@@@3@@std@@V?$allocator@U?$pair@QEAUllama_lora_adapter@@M@std@@@3@$0A@@std@@@std@@QEAAXXZ
	?clear@?$_Tree@V?$_Tmap_traits@HV?$vector@MV?$allocator@M@std@@@std@@U?$less@H@2@V?$allocator@U?$pair@$$CBHV?$vector@MV?$allocator@M@std@@@std@@@std@@@2@$0A@@std@@@std@@QEAAXXZ
	?clear@?$_Tree@V?$_Tset_traits@HU?$less@H@std@@V?$allocator@H@2@$0A@@std@@@std@@QEAAXXZ
	?clear@?$vector@V?$vector@Ullama_grammar_element@@V?$allocator@Ullama_grammar_element@@@std@@@std@@V?$allocator@V?$vector@Ullama_grammar_element@@V?$allocator@Ullama_grammar_element@@@std@@@std@@@2@@std@@QEAAXXZ
	?close@?$basic_filebuf@DU?$char_traits@D@std@@@std@@QEAAPEAV12@XZ
	?count@?$_Tree@V?$_Tset_traits@HU?$less@H@std@@V?$allocator@H@2@$0A@@std@@@std@@QEBA_KAEBH@Z
	?create_tensor@llama_model_loader@@QEAAPEAUggml_tensor@@PEAUggml_context@@AEBV?$basic_string@DU?$char_traits@D@std@@V?$allocator@D@2@@std@@AEBV?$initializer_list@_J@5@H@Z
	?current_exception@std@@YA?AVexception_ptr@1@XZ
	?deallocate@?$allocator@C@std@@QEAAXQEAC_K@Z
	?deallocate@?$allocator@D@std@@QEAAXQEAD_K@Z
	?deallocate@?$allocator@E@std@@QEAAXQEAE_K@Z
	?deallocate@?$allocator@H@std@@QEAAXQEAH_K@Z
	?deallocate@?$allocator@I@std@@QEAAXQEAI_K@Z
	?deallocate@?$allocator@M@std@@QEAAXQEAM_K@Z
	?deallocate@?$allocator@N@std@@QEAAXQEAN_K@Z
	?deallocate@?$allocator@PEAH@std@@QEAAXQEAPEAH_K@Z
	?deallocate@?$allocator@PEAUggml_backend@@@std@@QEAAXQEAPEAUggml_backend@@_K@Z
	?deallocate@?$allocator@PEAUggml_backend_buffer@@@std@@QEAAXQEAPEAUggml_backend_buffer@@_K@Z
	?deallocate@?$allocator@PEAUggml_backend_buffer_type@@@std@@QEAAXQEAPEAUggml_backend_buffer_type@@_K@Z
	?deallocate@?$allocator@PEAUggml_backend_device@@@std@@QEAAXQEAPEAUggml_backend_device@@_K@Z
	?deallocate@?$allocator@PEAUggml_backend_event@@@std@@QEAAXQEAPEAUggml_backend_event@@_K@Z
	?deallocate@?$allocator@PEAUggml_tensor@@@std@@QEAAXQEAPEAUggml_tensor@@_K@Z
	?deallocate@?$allocator@PEAUllama_sampler@@@std@@QEAAXQEAPEAUllama_sampler@@_K@Z
	?deallocate@?$allocator@PEAUllama_token_data@@@std@@QEAAXQEAPEAUllama_token_data@@_K@Z
	?deallocate@?$allocator@PEAX@std@@QEAAXQEAPEAX_K@Z
	?deallocate@?$allocator@PEBUllama_chat_message@@@std@@QEAAXQEAPEBUllama_chat_message@@_K@Z
	?deallocate@?$allocator@PEBUllama_grammar_element@@@std@@QEAAXQEAPEBUllama_grammar_element@@_K@Z
	?deallocate@?$allocator@PEBUllama_tensor_weight@llama_model_loader@@@std@@QEAAXQEAPEBUllama_tensor_weight@llama_model_loader@@_K@Z
	?deallocate@?$allocator@U?$no_init@E@@@std@@QEAAXQEAU?$no_init@E@@_K@Z
	?deallocate@?$allocator@U?$no_init@M@@@std@@QEAAXQEAU?$no_init@M@@_K@Z
	?deallocate@?$allocator@U?$pair@II@std@@@std@@QEAAXQEAU?$pair@II@2@_K@Z
	?deallocate@?$allocator@U?$pair@PEAUggml_backend@@P6AXPEAU1@H@Z@std@@@std@@QEAAXQEAU?$pair@PEAUggml_backend@@P6AXPEAU1@H@Z@2@_K@Z
	?deallocate@?$allocator@U?$pair@PEAUggml_backend_device@@PEAUggml_backend_buffer_type@@@std@@@std@@QEAAXQEAU?$pair@PEAUggml_backend_device@@PEAUggml_backend_buffer_type@@@2@_K@Z
	?deallocate@?$allocator@U?$pair@PEAUggml_context@@V?$unordered_map@IPEAUggml_backend_buffer@@U?$hash@I@std@@U?$equal_to@I@3@V?$allocator@U?$pair@$$CBIPEAUggml_backend_buffer@@@std@@@3@@std@@@std@@@std@@QEAAXQEAU?$pair@PEAUggml_context@@V?$unordered_map@IPEAUggml_backend_buffer@@U?$hash@I@std@@U?$equal_to@I@3@V?$allocator@U?$pair@$$CBIPEAUggml_backend_buffer@@@std@@@3@@std@@@2@_K@Z
	?deallocate@?$allocator@U?$pair@V?$basic_string@DU?$char_traits@D@std@@V?$allocator@D@2@@std@@PEAUggml_tensor@@@std@@@std@@QEAAXQEAU?$pair@V?$basic_string@DU?$char_traits@D@std@@V?$allocator@D@2@@std@@PEAUggml_tensor@@@2@_K@Z
	?deallocate@?$allocator@U?$pair@V?$vector@IV?$allocator@I@std@@@std@@Ullama_partial_utf8@@@std@@@std@@QEAAXQEAU?$pair@V?$vector@IV?$allocator@I@std@@@std@@Ullama_partial_utf8@@@2@_K@Z
	?deallocate@?$allocator@U?$pair@_K_K@std@@@std@@QEAAXQEAU?$pair@_K_K@2@_K@Z
	?deallocate@?$allocator@U_Grp_t@?$_Tgt_state_t@PEBD@std@@@std@@QEAAXQEAU_Grp_t@?$_Tgt_state_t@PEBD@2@_K@Z
	?deallocate@?$allocator@U_Grp_t@?$_Tgt_state_t@PEB_W@std@@@std@@QEAAXQEAU_Grp_t@?$_Tgt_state_t@PEB_W@2@_K@Z
	?deallocate@?$allocator@U_Loop_vals_t@std@@@std@@QEAAXQEAU_Loop_vals_t@2@_K@Z
	?deallocate@?$allocator@Ulayer_dev@llama_model@@@std@@QEAAXQEAUlayer_dev@llama_model@@_K@Z
	?deallocate@?$allocator@Ullama_grammar_candidate@@@std@@QEAAXQEAUllama_grammar_candidate@@_K@Z
	?deallocate@?$allocator@Ullama_grammar_element@@@std@@QEAAXQEAUllama_grammar_element@@_K@Z
	?deallocate@?$allocator@Ullama_kv_cell@@@std@@QEAAXQEAUllama_kv_cell@@_K@Z
	?deallocate@?$allocator@Ullama_layer@@@std@@QEAAXQEAUllama_layer@@_K@Z
	?deallocate@?$allocator@Ullama_logit_bias@@@std@@QEAAXQEAUllama_logit_bias@@_K@Z
	?deallocate@?$allocator@Ullama_sbatch_seq@@@std@@QEAAXQEAUllama_sbatch_seq@@_K@Z
	?deallocate@?$allocator@Ullama_token_data@@@std@@QEAAXQEAUllama_token_data@@_K@Z
	?deallocate@?$allocator@Ullm_bigram_bpe@@@std@@QEAAXQEAUllm_bigram_bpe@@_K@Z
	?deallocate@?$allocator@Ullm_bigram_spm@@@std@@QEAAXQEAUllm_bigram_spm@@_K@Z
	?deallocate@?$allocator@Ullm_symbol@@@std@@QEAAXQEAUllm_symbol@@_K@Z
	?deallocate@?$allocator@Utoken_data@llama_vocab@@@std@@QEAAXQEAUtoken_data@llama_vocab@@_K@Z
	?deallocate@?$allocator@V?$basic_string@DU?$char_traits@D@std@@V?$allocator@D@2@@std@@@std@@QEAAXQEAV?$basic_string@DU?$char_traits@D@std@@V?$allocator@D@2@@2@_K@Z
	?deallocate@?$allocator@V?$future@U?$pair@PEAUggml_tensor@@_N@std@@@std@@@std@@QEAAXQEAV?$future@U?$pair@PEAUggml_tensor@@_N@std@@@2@_K@Z
	?deallocate@?$allocator@V?$set@HU?$less@H@std@@V?$allocator@H@2@@std@@@std@@QEAAXQEAV?$set@HU?$less@H@std@@V?$allocator@H@2@@2@_K@Z
	?deallocate@?$allocator@V?$sub_match@PEBD@std@@@std@@QEAAXQEAV?$sub_match@PEBD@2@_K@Z
	?deallocate@?$allocator@V?$sub_match@PEB_W@std@@@std@@QEAAXQEAV?$sub_match@PEB_W@2@_K@Z
	?deallocate@?$allocator@V?$unique_ptr@Uggml_backend@@Uggml_backend_deleter@@@std@@@std@@QEAAXQEAV?$unique_ptr@Uggml_backend@@Uggml_backend_deleter@@@2@_K@Z
	?deallocate@?$allocator@V?$unique_ptr@Uggml_backend_buffer@@Uggml_backend_buffer_deleter@@@std@@@std@@QEAAXQEAV?$unique_ptr@Uggml_backend_buffer@@Uggml_backend_buffer_deleter@@@2@_K@Z
	?deallocate@?$allocator@V?$unique_ptr@Uggml_context@@Uggml_context_deleter@@@std@@@std@@QEAAXQEAV?$unique_ptr@Uggml_context@@Uggml_context_deleter@@@2@_K@Z
	?deallocate@?$allocator@V?$unique_ptr@Ullama_file@@U?$default_delete@Ullama_file@@@std@@@std@@@std@@QEAAXQEAV?$unique_ptr@Ullama_file@@U?$default_delete@Ullama_file@@@std@@@2@_K@Z
	?deallocate@?$allocator@V?$unique_ptr@Ullama_mlock@@U?$default_delete@Ullama_mlock@@@std@@@std@@@std@@QEAAXQEAV?$unique_ptr@Ullama_mlock@@U?$default_delete@Ullama_mlock@@@std@@@2@_K@Z
	?deallocate@?$allocator@V?$unique_ptr@Ullama_mmap@@U?$default_delete@Ullama_mmap@@@std@@@std@@@std@@QEAAXQEAV?$unique_ptr@Ullama_mmap@@U?$default_delete@Ullama_mmap@@@std@@@2@_K@Z
	?deallocate@?$allocator@V?$vector@PEBUllama_grammar_element@@V?$allocator@PEBUllama_grammar_element@@@std@@@std@@@std@@QEAAXQEAV?$vector@PEBUllama_grammar_element@@V?$allocator@PEBUllama_grammar_element@@@std@@@2@_K@Z
	?deallocate@?$allocator@V?$vector@Ullama_grammar_element@@V?$allocator@Ullama_grammar_element@@@std@@@std@@@std@@QEAAXQEAV?$vector@Ullama_grammar_element@@V?$allocator@Ullama_grammar_element@@@std@@@2@_K@Z
	?deallocate@?$allocator@Vthread@std@@@std@@QEAAXQEAVthread@2@_K@Z
	?deallocate@?$allocator@_K@std@@QEAAXQEA_K_K@Z
	?default_error_condition@error_category@std@@UEBA?AVerror_condition@2@H@Z
	?do_always_noconv@?$codecvt_utf8@_W$0BAPPPP@$0A@@std@@MEBA_NXZ
	?do_compare@?$collate@D@std@@MEBAHPEBD000@Z
	?do_compare@?$collate@_W@std@@MEBAHPEB_W000@Z
	?do_encoding@?$codecvt_utf8@_W$0BAPPPP@$0A@@std@@MEBAHXZ
	?do_hash@?$collate@D@std@@MEBAJPEBD0@Z
	?do_hash@?$collate@_W@std@@MEBAJPEB_W0@Z
	?do_in@?$codecvt_utf8@_W$0BAPPPP@$0A@@std@@MEBAHAEAU_Mbstatet@@PEBD1AEAPEBDPEA_W3AEAPEA_W@Z
	?do_length@?$codecvt_utf8@_W$0BAPPPP@$0A@@std@@MEBAHAEAU_Mbstatet@@PEBD1_K@Z
	?do_max_length@?$codecvt_utf8@_W$0BAPPPP@$0A@@std@@MEBAHXZ
	?do_out@?$codecvt_utf8@_W$0BAPPPP@$0A@@std@@MEBAHAEAU_Mbstatet@@PEB_W1AEAPEB_WPEAD3AEAPEAD@Z
	?do_transform@?$collate@D@std@@MEBA?AV?$basic_string@DU?$char_traits@D@std@@V?$allocator@D@2@@2@PEBD0@Z
	?do_transform@?$collate@_W@std@@MEBA?AV?$basic_string@_WU?$char_traits@_W@std@@V?$allocator@_W@2@@2@PEB_W0@Z
	?do_unshift@?$codecvt_utf8@_W$0BAPPPP@$0A@@std@@MEBAHAEAU_Mbstatet@@PEAD1AEAPEAD@Z
	?equivalent@error_category@std@@UEBA_NAEBVerror_code@2@H@Z
	?equivalent@error_category@std@@UEBA_NHAEBVerror_condition@2@@Z
	?erase@?$_Tree@V?$_Tset_traits@HU?$less@H@std@@V?$allocator@H@2@$0A@@std@@@std@@QEAA_KAEBH@Z
	?erase@?$vector@_NV?$allocator@_N@std@@@std@@QEAA?AV?$_Vb_iterator@U?$_Wrap_alloc@V?$allocator@I@std@@@std@@@2@V?$_Vb_const_iterator@U?$_Wrap_alloc@V?$allocator@I@std@@@std@@@2@0@Z
	?find_bpe_rank@llama_vocab@@QEBAHAEBV?$basic_string@DU?$char_traits@D@std@@V?$allocator@D@2@@std@@0@Z
	?from_batch@llama_sbatch@@QEAAXAEBUllama_batch@@_K_N2@Z
	?from_bytes@?$wstring_convert@V?$codecvt_utf8@_W$0BAPPPP@$0A@@std@@_WV?$allocator@_W@2@V?$allocator@D@2@@std@@QEAA?AV?$basic_string@_WU?$char_traits@_W@std@@V?$allocator@_W@2@@2@PEBD0@Z
	?generate_symbol_id@llama_grammar_parser@@QEAAIAEBV?$basic_string@DU?$char_traits@D@std@@V?$allocator@D@2@@std@@@Z
	?get_ambient_scheduler@Concurrency@@YAAEBV?$shared_ptr@Uscheduler_interface@Concurrency@@@std@@XZ
	?get_arch_name@llama_model_loader@@QEBA?AV?$basic_string@DU?$char_traits@D@std@@V?$allocator@D@2@@std@@XZ
	?get_kv@?$GKV@UArrayInfo@GGUFMeta@@@GGUFMeta@@SA?AUArrayInfo@2@PEBUgguf_context@@H@Z
	?get_longest_prefix@naive_trie@@QEBA?AU?$pair@PEBD_K@std@@PEBD_K1@Z
	?get_size_read@llama_data_read_buffer@@UEAA_KXZ
	?get_size_read@llama_data_read_file@@UEAA_KXZ
	?get_size_written@llama_data_write_buffer@@UEAA_KXZ
	?get_size_written@llama_data_write_dummy@@UEAA_KXZ
	?get_size_written@llama_data_write_file@@UEAA_KXZ
	?get_symbol_id@llama_grammar_parser@@QEAAIPEBD_K@Z
	?get_weight@llama_lora_adapter@@QEAAPEAUllama_lora_weight@@PEAUggml_tensor@@@Z
	?get_weight@llama_model_loader@@QEBAPEBUllama_tensor_weight@1@PEBD@Z
	?grow_to@llama_mlock@@QEAAX_K@Z
	?imbue@?$basic_filebuf@DU?$char_traits@D@std@@@std@@MEAAXAEBVlocale@2@@Z
	?init@llm_build_context@@QEAAXXZ
	?init_mappings@llama_model_loader@@QEAAX_NPEAV?$vector@V?$unique_ptr@Ullama_mlock@@U?$default_delete@Ullama_mlock@@@std@@@std@@V?$allocator@V?$unique_ptr@Ullama_mlock@@U?$default_delete@Ullama_mlock@@@std@@@std@@@2@@std@@@Z
	?init_tokenizer@llama_vocab@@QEAAXXZ
	?insert@naive_trie@@QEAAXPEBD_KH@Z
	?invoke@?$_PPLTaskHandle@EU?$_InitialTaskHandle@XV<lambda_61d324d6c6ae299623b0a01e4b2f6764>@@U_TypeSelectorNoAsync@details@Concurrency@@@?$task@E@Concurrency@@U_TaskProcHandle@details@3@@details@Concurrency@@UEBAXXZ
	?invoke@?$_PPLTaskHandle@EU?$_InitialTaskHandle@XV<lambda_f7036c9a115536b365ca4544394c825b>@@U_TypeSelectorNoAsync@details@Concurrency@@@?$task@E@Concurrency@@U_TaskProcHandle@details@3@@details@Concurrency@@UEBAXXZ
	?isctype@?$_Regex_traits@_W@std@@QEBA_N_WF@Z
	?llama_add_bos_token_impl@@YA_NAEBUllama_vocab@@@Z
	?llama_add_eos_token_impl@@YA_NAEBUllama_vocab@@@Z
	?llama_byte_to_token_impl@@YAHAEBUllama_vocab@@E@Z
	?llama_detokenize@@YA?AV?$basic_string@DU?$char_traits@D@std@@V?$allocator@D@2@@std@@AEBUllama_vocab@@AEBV?$vector@HV?$allocator@H@std@@@2@_N@Z
	?llama_detokenize_impl@@YAHAEBUllama_vocab@@PEBHHPEADH_N3@Z
	?llama_grammar_accept@@YAXAEBV?$vector@V?$vector@Ullama_grammar_element@@V?$allocator@Ullama_grammar_element@@@std@@@std@@V?$allocator@V?$vector@Ullama_grammar_element@@V?$allocator@Ullama_grammar_element@@@std@@@std@@@2@@std@@AEBV?$vector@V?$vector@PEBUllama_grammar_element@@V?$allocator@PEBUllama_grammar_element@@@std@@@std@@V?$allocator@V?$vector@PEBUllama_grammar_element@@V?$allocator@PEBUllama_grammar_element@@@std@@@std@@@2@@2@IAEAV32@@Z
	?llama_grammar_accept_impl@@YAXAEAUllama_grammar@@H@Z
	?llama_grammar_apply_impl@@YAXAEBUllama_grammar@@PEAUllama_token_data_array@@@Z
	?llama_grammar_clone_impl@@YAPEAUllama_grammar@@AEBU1@@Z
	?llama_grammar_free_impl@@YAXPEAUllama_grammar@@@Z
	?llama_grammar_get_rules@@YAAEBV?$vector@V?$vector@Ullama_grammar_element@@V?$allocator@Ullama_grammar_element@@@std@@@std@@V?$allocator@V?$vector@Ullama_grammar_element@@V?$allocator@Ullama_grammar_element@@@std@@@std@@@2@@std@@PEBUllama_grammar@@@Z
	?llama_grammar_get_stacks@@YAAEAV?$vector@V?$vector@PEBUllama_grammar_element@@V?$allocator@PEBUllama_grammar_element@@@std@@@std@@V?$allocator@V?$vector@PEBUllama_grammar_element@@V?$allocator@PEBUllama_grammar_element@@@std@@@std@@@2@@std@@PEAUllama_grammar@@@Z
	?llama_grammar_init_impl@@YAPEAUllama_grammar@@PEBUllama_vocab@@PEAPEBUllama_grammar_element@@_K2@Z
	?llama_grammar_init_impl@@YAPEAUllama_grammar@@PEBUllama_vocab@@PEBD1@Z
	?llama_grammar_reject_candidates_for_stack@@YA?AV?$vector@Ullama_grammar_candidate@@V?$allocator@Ullama_grammar_candidate@@@std@@@std@@AEBV?$vector@V?$vector@Ullama_grammar_element@@V?$allocator@Ullama_grammar_element@@@std@@@std@@V?$allocator@V?$vector@Ullama_grammar_element@@V?$allocator@Ullama_grammar_element@@@std@@@std@@@2@@2@AEBV?$vector@PEBUllama_grammar_element@@V?$allocator@PEBUllama_grammar_element@@@std@@@2@AEBV12@@Z
	?llama_internal_get_tensor_map@@YAAEBV?$vector@U?$pair@V?$basic_string@DU?$char_traits@D@std@@V?$allocator@D@2@@std@@PEAUggml_tensor@@@std@@V?$allocator@U?$pair@V?$basic_string@DU?$char_traits@D@std@@V?$allocator@D@2@@std@@PEAUggml_tensor@@@std@@@2@@std@@PEAUllama_context@@@Z
	?llama_log_callback_default@@YAXW4ggml_log_level@@PEBDPEAX@Z
	?llama_log_internal@@YAXW4ggml_log_level@@PEBDZZ
	?llama_sampler_init_dry_impl@@YAPEAUllama_sampler@@AEBUllama_vocab@@HMMHHPEAPEBD_K@Z
	?llama_sampler_init_dry_testing@@YAPEAUllama_sampler@@HMMHHAEBV?$vector@V?$vector@HV?$allocator@H@std@@@std@@V?$allocator@V?$vector@HV?$allocator@H@std@@@std@@@2@@std@@@Z
	?llama_sampler_init_grammar_impl@@YAPEAUllama_sampler@@AEBUllama_vocab@@PEBD1@Z
	?llama_sampler_init_infill_impl@@YAPEAUllama_sampler@@AEBUllama_vocab@@@Z
	?llama_token_bos_impl@@YAHAEBUllama_vocab@@@Z
	?llama_token_cls_impl@@YAHAEBUllama_vocab@@@Z
	?llama_token_eom_impl@@YAHAEBUllama_vocab@@@Z
	?llama_token_eos_impl@@YAHAEBUllama_vocab@@@Z
	?llama_token_eot_impl@@YAHAEBUllama_vocab@@@Z
	?llama_token_fim_mid_impl@@YAHAEBUllama_vocab@@@Z
	?llama_token_fim_pad_impl@@YAHAEBUllama_vocab@@@Z
	?llama_token_fim_pre_impl@@YAHAEBUllama_vocab@@@Z
	?llama_token_fim_rep_impl@@YAHAEBUllama_vocab@@@Z
	?llama_token_fim_sep_impl@@YAHAEBUllama_vocab@@@Z
	?llama_token_fim_suf_impl@@YAHAEBUllama_vocab@@@Z
	?llama_token_get_attr_impl@@YA?AW4llama_token_attr@@AEBUllama_vocab@@H@Z
	?llama_token_get_score_impl@@YAMAEBUllama_vocab@@H@Z
	?llama_token_get_text_impl@@YAPEBDAEBUllama_vocab@@H@Z
	?llama_token_is_control_impl@@YA_NAEBUllama_vocab@@H@Z
	?llama_token_is_eog_impl@@YA_NAEBUllama_vocab@@H@Z
	?llama_token_middle_impl@@YAHAEBUllama_vocab@@@Z
	?llama_token_nl_impl@@YAHAEBUllama_vocab@@@Z
	?llama_token_pad_impl@@YAHAEBUllama_vocab@@@Z
	?llama_token_prefix_impl@@YAHAEBUllama_vocab@@@Z
	?llama_token_sep_impl@@YAHAEBUllama_vocab@@@Z
	?llama_token_suffix_impl@@YAHAEBUllama_vocab@@@Z
	?llama_token_to_piece_impl@@YAHAEBUllama_vocab@@HPEADHH_N@Z
	?llama_tokenize_impl@@YAHAEBUllama_vocab@@PEBDHPEAHH_N3@Z
	?llama_tokenize_internal@@YA?AV?$vector@HV?$allocator@H@std@@@std@@AEBUllama_vocab@@V?$basic_string@DU?$char_traits@D@std@@V?$allocator@D@2@@2@_N2@Z
	?llm_build_pos_bias@llm_build_context@@QEAAPEAUggml_tensor@@PEAU2@0@Z
	?llm_build_pos_bucket@llm_build_context@@QEAAPEAUggml_tensor@@_N@Z
	?load_all_data@llama_model_loader@@QEAA_NPEAUggml_context@@AEAV?$unordered_map@IPEAUggml_backend_buffer@@U?$hash@I@std@@U?$equal_to@I@3@V?$allocator@U?$pair@$$CBIPEAUggml_backend_buffer@@@std@@@3@@std@@PEAV?$vector@V?$unique_ptr@Ullama_mlock@@U?$default_delete@Ullama_mlock@@@std@@@std@@V?$allocator@V?$unique_ptr@Ullama_mlock@@U?$default_delete@Ullama_mlock@@@std@@@std@@@2@@4@P6A_NMPEAX@Z3@Z
	?make_error_code@std@@YA?AVerror_code@1@W4errc@1@@Z
	?message@_Future_error_category2@std@@UEBA?AV?$basic_string@DU?$char_traits@D@std@@V?$allocator@D@2@@2@H@Z
	?message@_Generic_error_category@std@@UEBA?AV?$basic_string@DU?$char_traits@D@std@@V?$allocator@D@2@@2@H@Z
	?n_ff@llama_hparams@@QEBAII@Z
	?n_gqa@llama_hparams@@QEBAII@Z
	?n_head@llama_hparams@@QEBAII@Z
	?n_head_kv@llama_hparams@@QEBAII@Z
	?name@_Future_error_category2@std@@UEBAPEBDXZ
	?name@_Generic_error_category@std@@UEBAPEBDXZ
	?name@locale@std@@QEBA?AV?$basic_string@DU?$char_traits@D@std@@V?$allocator@D@2@@2@XZ
	?normalize@llm_tokenizer_ugm_session@@AEAAXAEBV?$basic_string@DU?$char_traits@D@std@@V?$allocator@D@2@@std@@PEAV23@@Z
	?normalize_prefix@llm_tokenizer_ugm_session@@AEAA?AUnormalization_result@1@AEBV?$basic_string@DU?$char_traits@D@std@@V?$allocator@D@2@@std@@_K@Z
	?overflow@?$basic_filebuf@DU?$char_traits@D@std@@@std@@MEAAHH@Z
	?overflow@?$basic_stringbuf@DU?$char_traits@D@std@@V?$allocator@D@2@@std@@MEAAHH@Z
	?override_type_to_str@?$GKV@G@GGUFMeta@@SAPEBDW4llama_model_kv_override_type@@@Z
	?override_type_to_str@?$GKV@H@GGUFMeta@@SAPEBDW4llama_model_kv_override_type@@@Z
	?override_type_to_str@?$GKV@I@GGUFMeta@@SAPEBDW4llama_model_kv_override_type@@@Z
	?override_type_to_str@?$GKV@M@GGUFMeta@@SAPEBDW4llama_model_kv_override_type@@@Z
	?override_type_to_str@?$GKV@V?$basic_string@DU?$char_traits@D@std@@V?$allocator@D@2@@std@@@GGUFMeta@@SAPEBDW4llama_model_kv_override_type@@@Z
	?override_type_to_str@?$GKV@_N@GGUFMeta@@SAPEBDW4llama_model_kv_override_type@@@Z
	?parse@llama_grammar_parser@@QEAA_NPEBD@Z
	?parse_alternates@llama_grammar_parser@@QEAAPEBDPEBDAEBV?$basic_string@DU?$char_traits@D@std@@V?$allocator@D@2@@std@@I_N@Z
	?parse_rule@llama_grammar_parser@@QEAAPEBDPEBD@Z
	?parse_sequence@llama_grammar_parser@@QEAAPEBDPEBDAEBV?$basic_string@DU?$char_traits@D@std@@V?$allocator@D@2@@std@@AEAV?$vector@Ullama_grammar_element@@V?$allocator@Ullama_grammar_element@@@std@@@3@_N@Z
	?pbackfail@?$basic_filebuf@DU?$char_traits@D@std@@@std@@MEAAHH@Z
	?pbackfail@?$basic_stringbuf@DU?$char_traits@D@std@@V?$allocator@D@2@@std@@MEAAHH@Z
	?preprocess@llm_tokenizer_wpm_session@@SA?AV?$vector@V?$basic_string@DU?$char_traits@D@std@@V?$allocator@D@2@@std@@V?$allocator@V?$basic_string@DU?$char_traits@D@std@@V?$allocator@D@2@@std@@@2@@std@@AEBV?$basic_string@DU?$char_traits@D@std@@V?$allocator@D@2@@3@@Z
	?print@llama_grammar_parser@@QEAAXPEAU_iobuf@@@Z
	?push@?$priority_queue@Ullm_bigram_bpe@@V?$vector@Ullm_bigram_bpe@@V?$allocator@Ullm_bigram_bpe@@@std@@@std@@Ucomparator@1@@std@@QEAAXAEBUllm_bigram_bpe@@@Z
	?push_back@?$ring_buffer@H@@QEAAXAEBH@Z
	?raw_lock@llama_mlock@@QEBA_NPEAX_K@Z
	?read@llama_data_read_buffer@@UEAAPEBE_K@Z
	?read@llama_data_read_file@@UEAAPEBE_K@Z
	?read_kv_cache_data@llama_data_read@@QEAA_NPEAUllama_context@@I@Z
	?read_kv_cache_meta@llama_data_read@@QEAA_NPEAUllama_context@@IH@Z
	?read_model_info@llama_data_read@@QEAAXPEBUllama_context@@@Z
	?read_output_ids@llama_data_read@@QEAAXPEAUllama_context@@@Z
	?read_raw@llama_file@@QEBAXPEAX_K@Z
	?read_to@llama_data_read_buffer@@UEAAXPEAX_K@Z
	?read_to@llama_data_read_file@@UEAAXPEAX_K@Z
	?resegment@llm_tokenizer_spm_session@@AEAAXAEAUllm_symbol@@AEAV?$vector@HV?$allocator@H@std@@@std@@@Z
	?reserve@?$basic_string@DU?$char_traits@D@std@@V?$allocator@D@2@@std@@QEAAX_K@Z
	?reserve@?$vector@V?$unique_ptr@Uggml_backend_buffer@@Uggml_backend_buffer_deleter@@@std@@V?$allocator@V?$unique_ptr@Uggml_backend_buffer@@Uggml_backend_buffer_deleter@@@std@@@2@@std@@QEAAX_K@Z
	?reserve@?$vector@V?$unique_ptr@Ullama_mmap@@U?$default_delete@Ullama_mmap@@@std@@@std@@V?$allocator@V?$unique_ptr@Ullama_mmap@@U?$default_delete@Ullama_mmap@@@std@@@std@@@2@@std@@QEAAX_K@Z
	?reserve_ubatch@llama_sbatch@@QEAA?AUllama_ubatch@@_K_N@Z
	?resize@?$basic_string@DU?$char_traits@D@std@@V?$allocator@D@2@@std@@QEAAX_KD@Z
	?resize@?$vector@CV?$allocator@C@std@@@std@@QEAAX_K@Z
	?resize@?$vector@EV?$allocator@E@std@@@std@@QEAAX_K@Z
	?resize@?$vector@HV?$allocator@H@std@@@std@@QEAAX_K@Z
	?resize@?$vector@MV?$allocator@M@std@@@std@@QEAAX_K@Z
	?resize@?$vector@PEAHV?$allocator@PEAH@std@@@std@@QEAAX_K@Z
	?resize@?$vector@U_Loop_vals_t@std@@V?$allocator@U_Loop_vals_t@std@@@2@@std@@QEAAX_K@Z
	?resize@?$vector@Ullama_grammar_element@@V?$allocator@Ullama_grammar_element@@@std@@@std@@QEAAX_K@Z
	?resize@?$vector@_NV?$allocator@_N@std@@@std@@QEAAX_K_N@Z
	?restore@llama_kv_slot_restorer@@QEAAXAEAUllama_kv_cache@@@Z
	?rethrow_exception@std@@YAXVexception_ptr@1@@Z
	?schedule@_DefaultPPLTaskScheduler@details@Concurrency@@UEAAXP6AXPEAX@Z0@Z
	?seek@llama_file@@QEBAX_KH@Z
	?seekoff@?$basic_filebuf@DU?$char_traits@D@std@@@std@@MEAA?AV?$fpos@U_Mbstatet@@@2@_JHH@Z
	?seekoff@?$basic_stringbuf@DU?$char_traits@D@std@@V?$allocator@D@2@@std@@MEAA?AV?$fpos@U_Mbstatet@@@2@_JHH@Z
	?seekpos@?$basic_filebuf@DU?$char_traits@D@std@@@std@@MEAA?AV?$fpos@U_Mbstatet@@@2@V32@H@Z
	?seekpos@?$basic_stringbuf@DU?$char_traits@D@std@@V?$allocator@D@2@@std@@MEAA?AV?$fpos@U_Mbstatet@@@2@V32@H@Z
	?set@?$GKV@G@GGUFMeta@@SA_NPEBUgguf_context@@HAEAGPEBUllama_model_kv_override@@@Z
	?set@?$GKV@H@GGUFMeta@@SA_NPEBUgguf_context@@HAEAHPEBUllama_model_kv_override@@@Z
	?set@?$GKV@I@GGUFMeta@@SA_NPEBUgguf_context@@HAEAIPEBUllama_model_kv_override@@@Z
	?set@?$GKV@_N@GGUFMeta@@SA_NPEBUgguf_context@@HAEA_NPEBUllama_model_kv_override@@@Z
	?setbuf@?$basic_filebuf@DU?$char_traits@D@std@@@std@@MEAAPEAV?$basic_streambuf@DU?$char_traits@D@std@@@2@PEAD_J@Z
	?size@?$vector@HV?$allocator@H@std@@@std@@QEBA_KXZ
	?size@?$vector@MV?$allocator@M@std@@@std@@QEBA_KXZ
	?split_simple@llama_sbatch@@QEAA?AUllama_ubatch@@_K@Z
	?stoul@std@@YAKAEBV?$basic_string@DU?$char_traits@D@std@@V?$allocator@D@2@@1@PEA_KH@Z
	?str@?$basic_stringstream@DU?$char_traits@D@std@@V?$allocator@D@2@@std@@QEBA?AV?$basic_string@DU?$char_traits@D@std@@V?$allocator@D@2@@2@XZ
	?str@LLM_TN_IMPL@@QEBA?AV?$basic_string@DU?$char_traits@D@std@@V?$allocator@D@2@@std@@XZ
	?substr@?$basic_string@DU?$char_traits@D@std@@V?$allocator@D@2@@std@@QEBA?AV12@_K0@Z
	?swap@?$basic_filebuf@DU?$char_traits@D@std@@@std@@QEAAXAEAV12@@Z
	?sync@?$basic_filebuf@DU?$char_traits@D@std@@@std@@MEAAHXZ
	?tell@llama_file@@QEBA_KXZ
	?to_string@std@@YA?AV?$basic_string@DU?$char_traits@D@std@@V?$allocator@D@2@@1@H@Z
	?to_string@std@@YA?AV?$basic_string@DU?$char_traits@D@std@@V?$allocator@D@2@@1@I@Z
	?to_string@std@@YA?AV?$basic_string@DU?$char_traits@D@std@@V?$allocator@D@2@@1@N@Z
	?to_string@std@@YA?AV?$basic_string@DU?$char_traits@D@std@@V?$allocator@D@2@@1@_K@Z
	?tokenize@llm_tokenizer_bpe_session@@QEAAXAEBV?$basic_string@DU?$char_traits@D@std@@V?$allocator@D@2@@std@@AEAV?$vector@HV?$allocator@H@std@@@3@@Z
	?tokenize@llm_tokenizer_rwkv_session@@QEAAXAEBV?$basic_string@DU?$char_traits@D@std@@V?$allocator@D@2@@std@@AEAV?$vector@HV?$allocator@H@std@@@3@@Z
	?tokenize@llm_tokenizer_spm_session@@QEAAXAEBV?$basic_string@DU?$char_traits@D@std@@V?$allocator@D@2@@std@@AEAV?$vector@HV?$allocator@H@std@@@3@@Z
	?tokenize@llm_tokenizer_ugm_session@@QEAAXAEBV?$basic_string@DU?$char_traits@D@std@@V?$allocator@D@2@@std@@AEAV?$vector@HV?$allocator@H@std@@@3@@Z
	?tokenize@llm_tokenizer_wpm_session@@QEAAXAEBV?$basic_string@DU?$char_traits@D@std@@V?$allocator@D@2@@std@@AEAV?$vector@HV?$allocator@H@std@@@3@@Z
	?translate@?$_Regex_traits@D@std@@QEBADD@Z
	?translate@?$_Regex_traits@_W@std@@QEBA_W_W@Z
	?try_add_bigram@llm_tokenizer_spm_session@@AEAAXHH@Z
	?uflow@?$basic_filebuf@DU?$char_traits@D@std@@@std@@MEAAHXZ
	?underflow@?$basic_filebuf@DU?$char_traits@D@std@@@std@@MEAAHXZ
	?underflow@?$basic_stringbuf@DU?$char_traits@D@std@@V?$allocator@D@2@@std@@MEAAHXZ
	?unicode_byte_to_utf8@@YA?AV?$basic_string@DU?$char_traits@D@std@@V?$allocator@D@2@@std@@E@Z
	?unicode_cpt_flags@@YA?AUcodepoint_flags@@AEBV?$basic_string@DU?$char_traits@D@std@@V?$allocator@D@2@@std@@@Z
	?unicode_cpt_flags@@YA?AUcodepoint_flags@@I@Z
	?unicode_cpt_from_utf8@@YAIAEBV?$basic_string@DU?$char_traits@D@std@@V?$allocator@D@2@@std@@AEA_K@Z
	?unicode_cpt_to_utf8@@YA?AV?$basic_string@DU?$char_traits@D@std@@V?$allocator@D@2@@std@@I@Z
	?unicode_cpts_from_utf8@@YA?AV?$vector@IV?$allocator@I@std@@@std@@AEBV?$basic_string@DU?$char_traits@D@std@@V?$allocator@D@2@@2@@Z
	?unicode_cpts_normalize_nfd@@YA?AV?$vector@IV?$allocator@I@std@@@std@@AEBV12@@Z
	?unicode_len_utf8@@YA_KD@Z
	?unicode_regex_split@@YA?AV?$vector@V?$basic_string@DU?$char_traits@D@std@@V?$allocator@D@2@@std@@V?$allocator@V?$basic_string@DU?$char_traits@D@std@@V?$allocator@D@2@@std@@@2@@std@@AEBV?$basic_string@DU?$char_traits@D@std@@V?$allocator@D@2@@2@AEBV12@@Z
	?unicode_tolower@@YAII@Z
	?unicode_utf8_to_byte@@YAEAEBV?$basic_string@DU?$char_traits@D@std@@V?$allocator@D@2@@std@@@Z
	?what@exception@std@@UEBAPEBDXZ
	?what@future_error@std@@UEBAPEBDXZ
	?write@llama_data_write_buffer@@UEAAXPEBX_K@Z
	?write@llama_data_write_dummy@@UEAAXPEBX_K@Z
	?write@llama_data_write_file@@UEAAXPEBX_K@Z
	?write_kv_cache@llama_data_write@@QEAAXPEBUllama_context@@H@Z
	?write_kv_cache_data@llama_data_write@@QEAAXPEBUllama_context@@AEBV?$vector@U?$pair@II@std@@V?$allocator@U?$pair@II@std@@@2@@std@@@Z
	?write_raw@llama_file@@QEBAXPEBX_K@Z
	?write_tensor_data@llama_data_write_buffer@@UEAAXPEBUggml_tensor@@_K1@Z
	?write_tensor_data@llama_data_write_dummy@@UEAAXPEBUggml_tensor@@_K1@Z
	?write_tensor_data@llama_data_write_file@@UEAAXPEBUggml_tensor@@_K1@Z
	?xsgetn@?$basic_filebuf@DU?$char_traits@D@std@@@std@@MEAA_JPEAD_J@Z
	?xsputn@?$basic_filebuf@DU?$char_traits@D@std@@@std@@MEAA_JPEBD_J@Z
	__local_stdio_printf_options
	__local_stdio_scanf_options
	_scprintf
	fprintf
	llama_add_bos_token
	llama_add_eos_token
	llama_attach_threadpool
	llama_backend_free
	llama_backend_init
	llama_batch_free
	llama_batch_get_one
	llama_batch_init
	llama_chat_apply_template
	llama_context_default_params
	llama_control_vector_apply
	llama_copy_state_data
	llama_decode
	llama_detach_threadpool
	llama_detokenize
	llama_encode
	llama_free
	llama_free_model
	llama_get_embeddings
	llama_get_embeddings_ith
	llama_get_embeddings_seq
	llama_get_kv_cache_token_count
	llama_get_kv_cache_used_cells
	llama_get_logits
	llama_get_logits_ith
	llama_get_model
	llama_get_model_tensor
	llama_get_state_size
	llama_kv_cache_can_shift
	llama_kv_cache_clear
	llama_kv_cache_defrag
	llama_kv_cache_seq_add
	llama_kv_cache_seq_cp
	llama_kv_cache_seq_div
	llama_kv_cache_seq_keep
	llama_kv_cache_seq_pos_max
	llama_kv_cache_seq_rm
	llama_kv_cache_update
	llama_kv_cache_view_free
	llama_kv_cache_view_init
	llama_kv_cache_view_update
	llama_load_model_from_file
	llama_load_session_file
	llama_log_set
	llama_lora_adapter_clear
	llama_lora_adapter_free
	llama_lora_adapter_init
	llama_lora_adapter_remove
	llama_lora_adapter_set
	llama_max_devices
	llama_model_decoder_start_token
	llama_model_default_params
	llama_model_desc
	llama_model_has_decoder
	llama_model_has_encoder
	llama_model_is_recurrent
	llama_model_meta_count
	llama_model_meta_key_by_index
	llama_model_meta_val_str
	llama_model_meta_val_str_by_index
	llama_model_n_params
	llama_model_quantize
	llama_model_quantize_default_params
	llama_model_size
	llama_n_batch
	llama_n_ctx
	llama_n_ctx_train
	llama_n_embd
	llama_n_head
	llama_n_layer
	llama_n_seq_max
	llama_n_threads
	llama_n_threads_batch
	llama_n_ubatch
	llama_n_vocab
	llama_new_context_with_model
	llama_numa_init
	llama_perf_context
	llama_perf_context_print
	llama_perf_context_reset
	llama_perf_sampler
	llama_perf_sampler_print
	llama_perf_sampler_reset
	llama_pooling_type
	llama_print_system_info
	llama_rope_freq_scale_train
	llama_rope_type
	llama_sampler_accept
	llama_sampler_apply
	llama_sampler_chain_add
	llama_sampler_chain_default_params
	llama_sampler_chain_get
	llama_sampler_chain_init
	llama_sampler_chain_n
	llama_sampler_chain_remove
	llama_sampler_clone
	llama_sampler_free
	llama_sampler_get_seed
	llama_sampler_init_dist
	llama_sampler_init_dry
	llama_sampler_init_grammar
	llama_sampler_init_greedy
	llama_sampler_init_infill
	llama_sampler_init_logit_bias
	llama_sampler_init_min_p
	llama_sampler_init_mirostat
	llama_sampler_init_mirostat_v2
	llama_sampler_init_penalties
	llama_sampler_init_softmax
	llama_sampler_init_temp
	llama_sampler_init_temp_ext
	llama_sampler_init_top_k
	llama_sampler_init_top_p
	llama_sampler_init_typical
	llama_sampler_init_xtc
	llama_sampler_name
	llama_sampler_reset
	llama_sampler_sample
	llama_save_session_file
	llama_set_abort_callback
	llama_set_causal_attn
	llama_set_embeddings
	llama_set_n_threads
	llama_set_state_data
	llama_split_path
	llama_split_prefix
	llama_state_get_data
	llama_state_get_size
	llama_state_load_file
	llama_state_save_file
	llama_state_seq_get_data
	llama_state_seq_get_size
	llama_state_seq_load_file
	llama_state_seq_save_file
	llama_state_seq_set_data
	llama_state_set_data
	llama_supports_gpu_offload
	llama_supports_mlock
	llama_supports_mmap
	llama_supports_rpc
	llama_synchronize
	llama_time_us
	llama_token_bos
	llama_token_cls
	llama_token_eos
	llama_token_eot
	llama_token_fim_mid
	llama_token_fim_pad
	llama_token_fim_pre
	llama_token_fim_rep
	llama_token_fim_sep
	llama_token_fim_suf
	llama_token_get_attr
	llama_token_get_score
	llama_token_get_text
	llama_token_is_control
	llama_token_is_eog
	llama_token_middle
	llama_token_nl
	llama_token_pad
	llama_token_prefix
	llama_token_sep
	llama_token_suffix
	llama_token_to_piece
	llama_tokenize
	llama_vocab_type
	snprintf
	sprintf_s
	sscanf
	vsnprintf
